 LungAirwayCapDLL

 Timestamp is 649f17d3 (Fri Jun 30 13:58:43 2023)

 Preferred load address is 10000000

 Start         Length     Name                   Class
 0001:00000000 000609e8H .textbss                DATA
 0002:00000000 000cbff0H .text$mn                CODE
 0002:000cbff0 00002a61H .text$x                 CODE
 0003:00000000 00000104H .CRT$XCA                DATA
 0003:00000104 00000104H .CRT$XCZ                DATA
 0003:00000208 00000104H .CRT$XIA                DATA
 0003:0000030c 00000118H .CRT$XIC                DATA
 0003:00000424 00000104H .CRT$XIZ                DATA
 0003:00000528 00000104H .CRT$XPA                DATA
 0003:0000062c 0000010cH .CRT$XPX                DATA
 0003:00000738 00000104H .CRT$XPXA               DATA
 0003:0000083c 00000104H .CRT$XPZ                DATA
 0003:00000940 00000104H .CRT$XTA                DATA
 0003:00000a44 0000010cH .CRT$XTZ                DATA
 0003:00000b50 00028870H .rdata                  DATA
 0003:000293c0 00000180H .rdata$CastGuardVftablesA DATA
 0003:00029540 0000014cH .rdata$CastGuardVftablesC DATA
 0003:0002968c 00000444H .rdata$r                DATA
 0003:00029ad0 000001ecH .rdata$zzzdbg           DATA
 0003:00029cbc 00000104H .rtc$IAA                DATA
 0003:00029dc0 0000010cH .rtc$IMZ                DATA
 0003:00029ecc 00000104H .rtc$IZZ                DATA
 0003:00029fd0 00000104H .rtc$TAA                DATA
 0003:0002a0d4 0000010cH .rtc$TMZ                DATA
 0003:0002a1e0 00000108H .rtc$TZZ                DATA
 0003:0002a2e8 000026a8H .xdata$x                DATA
 0003:0002c990 0000028eH .edata                  DATA
 0004:00000000 000014a4H .data                   DATA
 0004:000014a4 00000170H .data$r                 DATA
 0004:00001614 000001ecH .data$rs                DATA
 0004:00001800 000022a4H .bss                    DATA
 0005:00000000 000001f4H .idata$5                DATA
 0005:000001f4 00000014H .idata$2                DATA
 0005:00000208 00000014H .idata$3                DATA
 0005:0000021c 000001f4H .idata$4                DATA
 0005:00000410 000008eeH .idata$6                DATA
 0006:00000000 0000010eH .00cfg                  DATA
 0007:00000000 00000170H .rsrc$01                DATA
 0007:00000170 000001b6H .rsrc$02                DATA

  Address         Publics by Value              Rva+Base       Lib:Object

 0000:00000000       ___AbsoluteZero            00000000     <absolute>
 0000:00000000       ___arm64x_extra_rfe_table  00000000     <absolute>
 0000:00000000       ___arm64x_extra_rfe_table_size 00000000     <absolute>
 0000:00000000       ___arm64x_native_entrypoint 00000000     <absolute>
 0000:00000000       ___arm64x_redirection_metadata 00000000     <absolute>
 0000:00000000       ___arm64x_redirection_metadata_count 00000000     <absolute>
 0000:00000000       ___dynamic_value_reloc_table 00000000     <absolute>
 0000:00000000       ___enclave_config          00000000     <absolute>
 0000:00000000       ___guard_check_icall_a64n_fptr 00000000     <absolute>
 0000:00000000       ___guard_eh_cont_count     00000000     <absolute>
 0000:00000000       ___guard_eh_cont_table     00000000     <absolute>
 0000:00000000       ___guard_fids_count        00000000     <absolute>
 0000:00000000       ___guard_fids_table        00000000     <absolute>
 0000:00000000       ___guard_iat_count         00000000     <absolute>
 0000:00000000       ___guard_iat_table         00000000     <absolute>
 0000:00000000       ___guard_longjmp_count     00000000     <absolute>
 0000:00000000       ___guard_longjmp_table     00000000     <absolute>
 0000:00000000       ___hybrid_auxiliary_iat    00000000     <absolute>
 0000:00000000       ___hybrid_auxiliary_iat_copy 00000000     <absolute>
 0000:00000000       ___hybrid_code_map         00000000     <absolute>
 0000:00000000       ___hybrid_code_map_count   00000000     <absolute>
 0000:00000000       ___safe_se_handler_count   00000000     <absolute>
 0000:00000000       ___safe_se_handler_table   00000000     <absolute>
 0000:00000000       ___volatile_metadata       00000000     <absolute>
 0000:00000000       ___x64_code_ranges_to_entry_points 00000000     <absolute>
 0000:00000000       ___x64_code_ranges_to_entry_points_count 00000000     <absolute>
 0000:00000000       __except_list              00000000     <absolute>
 0000:00000100       ___guard_flags             00000100     <absolute>
 0000:00000000       ___ImageBase               10000000     <linker-defined>
 0001:00000000       __enc$textbss$begin        10001000     <linker-defined>
 0001:000609e8       __enc$textbss$end          100619e8     <linker-defined>
 0002:000075d0       _cgMainDeriv               100695d0 f   LungAirwayCapacities.obj
 0002:000079c0       _cgMainSS                  100699c0 f   LungAirwayCapacities.obj
 0002:00007a10       _cgMainSE                  10069a10 f   LungAirwayCapacities.obj
 0002:00007a30       _cgMainCreateSim           10069a30 f   LungAirwayCapacities.obj
 0002:00007a80       ?__empty_global_delete@@YAXPAX@Z 10069a80 f i LungAirwayCapacitiesWrapper.obj
 0002:00007aa0       ?__empty_global_delete@@YAXPAXI@Z 10069aa0 f i LungAirwayCapacitiesWrapper.obj
 0002:00007ac0       _InitLungAirwayCapacitiesModel 10069ac0 f   LungAirwayCapacitiesWrapper.obj
 0002:00007b40       _LungAirwayCapacitiesModel 10069b40 f   LungAirwayCapacitiesWrapper.obj
 0002:00007cd0       ___fmin                    10069cd0 f   vsmSimobj32d-vs14:fmin.obj
 0002:00007cf0       _cgSimStateInit            10069cf0 f   vsmSimobj32d-vs14:cgInit.obj
 0002:00007e90       _cgCreateSim               10069e90 f   vsmSimobj32d-vs14:cgInit.obj
 0002:00007ec0       _cgInitSubsystem           10069ec0 f   vsmSimobj32d-vs14:cgInit.obj
 0002:00007f70       _cgInitSimObjectSubsystem  10069f70 f   vsmSimobj32d-vs14:initSimObject.obj
 0002:00008060       _cgFreeSimObject           1006a060 f   vsmSimobj32d-vs14:initSimObject.obj
 0002:00008160       _vsmCgGetLastErrorString   1006a160 f   vsmSimobj32d-vs14:cmdApi.obj
 0002:00008190       _vsmCgRuntimeCommand       1006a190 f   vsmSimobj32d-vs14:cmdApi.obj
 0002:00008590       _galloc@4                  1006a590 f   vsmSimobj32d-vs14:galloc.obj
 0002:000085e0       _gfree@4                   1006a5e0 f   vsmSimobj32d-vs14:galloc.obj
 0002:00008600       _grealloc@8                1006a600 f   vsmSimobj32d-vs14:galloc.obj
 0002:00008680       _simAllocArgVecs           1006a680 f   vsmSimobj32d-vs14:allocSigVec.obj
 0002:000089a0       _simAllocStates            1006a9a0 f   vsmSimobj32d-vs14:cg.obj
 0002:00008ad0       _simFreeStates             1006aad0 f   vsmSimobj32d-vs14:cg.obj
 0002:00008c90       _simInit                   1006ac90 f   vsmSimobj32d-vs14:cg.obj
 0002:00008d70       _resetStates               1006ad70 f   vsmSimobj32d-vs14:cg.obj
 0002:00008ec0       _initSimState              1006aec0 f   vsmSimobj32d-vs14:cg.obj
 0002:00008f30       _simEndMessage             1006af30 f   vsmSimobj32d-vs14:cg.obj
 0002:00008f90       _resetSimForNextRun        1006af90 f   vsmSimobj32d-vs14:cg.obj
 0002:00008fc0       _initSimStruct             1006afc0 f   vsmSimobj32d-vs14:cg.obj
 0002:00009540       _simAllocIntegStates       1006b540 f   vsmSimobj32d-vs14:integrate.obj
 0002:000096d0       _checkLimitsAndReset       1006b6d0 f   vsmSimobj32d-vs14:integrate.obj
 0002:000096f0       _integrateRK2              1006b6f0 f   vsmSimobj32d-vs14:integrate.obj
 0002:00009850       _integrateEuler            1006b850 f   vsmSimobj32d-vs14:integrate.obj
 0002:000098c0       _resetIntegState           1006b8c0 f   vsmSimobj32d-vs14:integrate.obj
 0002:000098f0       _resetIntegStates          1006b8f0 f   vsmSimobj32d-vs14:integrate.obj
 0002:000099d0       _evalIntegStep             1006b9d0 f   vsmSimobj32d-vs14:integrate.obj
 0002:00009de0       _iterateVsmDllSubsystems   1006bde0 f   vsmSimobj32d-vs14:integrate.obj
 0002:00009ee0       _resetIntegStateHSim       1006bee0 f   vsmSimobj32d-vs14:integrate.obj
 0002:00009f90       _copyIntegStates           1006bf90 f   vsmSimobj32d-vs14:integrate.obj
 0002:00009fe0       _integrateTrap             1006bfe0 f   vsmSimobj32d-vs14:integrate.obj
 0002:0000a3b0       _debMsg                    1006c3b0 f   vsmSimobj32d-vs14:cgio.obj
 0002:0000a3d0       _fileOpen                  1006c3d0 f   vsmSimobj32d-vs14:cgio.obj
 0002:0000a430       _winMsg                    1006c430 f   vsmSimobj32d-vs14:cgio.obj
 0002:0000a450       _filePrint                 1006c450 f   vsmSimobj32d-vs14:cgio.obj
 0002:0000a4c0       _putC                      1006c4c0 f   vsmSimobj32d-vs14:cgio.obj
 0002:0000a4e0       _fileClose                 1006c4e0 f   vsmSimobj32d-vs14:cgio.obj
 0002:0000a520       _ungetC                    1006c520 f   vsmSimobj32d-vs14:cgio.obj
 0002:0000a550       _lastC                     1006c550 f   vsmSimobj32d-vs14:cgio.obj
 0002:0000a560       _peekC                     1006c560 f   vsmSimobj32d-vs14:cgio.obj
 0002:0000a590       _getC                      1006c590 f   vsmSimobj32d-vs14:cgio.obj
 0002:0000a620       _fileLineCount             1006c620 f   vsmSimobj32d-vs14:cgio.obj
 0002:0000a7d0       _resetFilePtr              1006c7d0 f   vsmSimobj32d-vs14:cgio.obj
 0002:0000a830       _fileTLM                   1006c830 f   vsmSimobj32d-vs14:cgio.obj
 0002:0000a9d0       ___local_stdio_printf_options 1006c9d0 f i vsmSimobj32d-vs14:cgio.obj
 0002:0000a9e0       __vfprintf_l               1006c9e0 f i vsmSimobj32d-vs14:cgio.obj
 0002:0000aa20       __vsnprintf_l              1006ca20 f i vsmSimobj32d-vs14:cgio.obj
 0002:0000aa90       _vprintf                   1006ca90 f i vsmSimobj32d-vs14:cgio.obj
 0002:0000aac0       _vsprintf                  1006cac0 f i vsmSimobj32d-vs14:cgio.obj
 0002:0000aaf0       _matDecl@8                 1006caf0 f   vsmSimobj32d-vs14:matdecl.obj
 0002:0000ab50       _matReDecl@12              1006cb50 f   vsmSimobj32d-vs14:matdecl.obj
 0002:0000abe0       _resetSubsystemOutputs     1006cbe0 f   vsmSimobj32d-vs14:executeSubsystem.obj
 0002:0000ad10       _executeSubsystem          1006cd10 f   vsmSimobj32d-vs14:executeSubsystem.obj
 0002:0000ae40       _simAllocXferStates        1006ce40 f   vsmSimobj32d-vs14:xfer.obj
 0002:0000ae80       _doXferFuncs               1006ce80 f   vsmSimobj32d-vs14:xfer.obj
 0002:0000aef0       _resetXfers                1006cef0 f   vsmSimobj32d-vs14:xfer.obj
 0002:0000b060       _simLatchXferFuncInput     1006d060 f   vsmSimobj32d-vs14:xfer.obj
 0002:0000b0e0       _simPostXferFuncOutput     1006d0e0 f   vsmSimobj32d-vs14:xfer.obj
 0002:0000b310       _simCalcXferState          1006d310 f   vsmSimobj32d-vs14:xfer.obj
 0002:0000b640       _simXferFunc               1006d640 f   vsmSimobj32d-vs14:xfer.obj
 0002:0000bab0       _simXferInline             1006dab0 f   vsmSimobj32d-vs14:xfer.obj
 0002:0000c070       _resetTimeDelays           1006e070 f   vsmSimobj32d-vs14:delay.obj
 0002:0000c140       _getTimeDelayVal           1006e140 f   vsmSimobj32d-vs14:delay.obj
 0002:0000c190       _simTimeDelay              1006e190 f   vsmSimobj32d-vs14:delay.obj
 0002:0000c850       _resetCrossDetects         1006e850 f   vsmSimobj32d-vs14:crossdet.obj
 0002:0000c8a0       _crossDetect               1006e8a0 f   vsmSimobj32d-vs14:crossdet.obj
 0002:0000ca10       _crossDetectSim            1006ea10 f   vsmSimobj32d-vs14:crossdet.obj
 0002:0000cbd0       _matCopy                   1006ebd0 f   vsmSimobj32d-vs14:matCopy.obj
 0002:0000cc60       _matDecl3D                 1006ec60 f   vsmSimobj32d-vs14:matCopy.obj
 0002:0000ccb0       _matReDecl3D               1006ecb0 f   vsmSimobj32d-vs14:matCopy.obj
 0002:0000cd40       _integrateRK4              1006ed40 f   vsmSimobj32d-vs14:rk4.obj
 0002:0000d080       _getIniFileName            1006f080 f   vsmSimobj32d-vs14:macroexp.obj
 0002:0000d090       _getAppPrefStr             1006f090 f   vsmSimobj32d-vs14:macroexp.obj
 0002:0000d0c0       _expandPathAliasOnce       1006f0c0 f   vsmSimobj32d-vs14:macroexp.obj
 0002:0000d1b0       _expandPathAlias           1006f1b0 f   vsmSimobj32d-vs14:macroexp.obj
 0002:0000d260       _expandLocalPathAlias      1006f260 f   vsmSimobj32d-vs14:macroexp.obj
 0002:0000d620       __vsprintf_l               1006f620 f i vsmSimobj32d-vs14:macroexp.obj
 0002:0000d650       _sprintf                   1006f650 f i vsmSimobj32d-vs14:macroexp.obj
 0002:0000d690       _imxCheck                  1006f690 f   vsmSimobj32d-vs14:matcheck.obj
 0002:0000d720       _mxCheck                   1006f720 f   vsmSimobj32d-vs14:matcheck.obj
 0002:0000d7b0       _mxCheck1D                 1006f7b0 f   vsmSimobj32d-vs14:matcheck.obj
 0002:0000d820       _mx1Check                  1006f820 f   vsmSimobj32d-vs14:matcheck.obj
 0002:0000d950       _matSet                    1006f950 f   vsmSimobj32d-vs14:matmul.obj
 0002:0000d9d0       _matAdd                    1006f9d0 f   vsmSimobj32d-vs14:matmul.obj
 0002:0000dac0       _matMul3                   1006fac0 f   vsmSimobj32d-vs14:matmul.obj
 0002:0000dcc0       @_RTC_AllocaHelper@12      1006fcc0 f   LIBCMTD:stack.obj
 0002:0000dd00       @_RTC_CheckStackVars2@12   1006fd00 f   LIBCMTD:stack.obj
 0002:0000de10       @_RTC_CheckStackVars@8     1006fe10 f   LIBCMTD:stack.obj
 0002:0000de80       __RTC_CheckEsp             1006fe80 f   LIBCMTD:stack.obj
 0002:0000deb0       __CRT_RTC_INIT             1006feb0 f   LIBCMTD:init.obj
 0002:0000dec0       __CRT_RTC_INITW            1006fec0 f   LIBCMTD:init.obj
 0002:0000ded0       __RTC_InitBase             1006fed0 f   LIBCMTD:init.obj
 0002:0000df10       __RTC_Shutdown             1006ff10 f   LIBCMTD:init.obj
 0002:0000e530       __CRT_INIT@12              10070530 f   LIBCMTD:dll_dllmain.obj
 0002:0000e550       __DllMainCRTStartup@12     10070550 f   LIBCMTD:dll_dllmain.obj
 0002:0000e580       @__security_check_cookie@4 10070580 f   LIBCMTD:secchk.obj
 0002:0000e5a0       __ftoui3                   100705a0 f   LIBCMTD:ftol3.obj
 0002:0000e600       __ftoul3                   10070600 f   LIBCMTD:ftol3.obj
 0002:0000e690       __ftoul3_legacy            10070690 f   LIBCMTD:ftol3.obj
 0002:0000e6c0       __ftol3                    100706c0 f   LIBCMTD:ftol3.obj
 0002:0000e750       __dtoui3                   10070750 f   LIBCMTD:ftol3.obj
 0002:0000e7f0       __dtoul3                   100707f0 f   LIBCMTD:ftol3.obj
 0002:0000e8c0       __dtoul3_legacy            100708c0 f   LIBCMTD:ftol3.obj
 0002:0000e900       __dtol3                    10070900 f   LIBCMTD:ftol3.obj
 0002:0000e9e0       __ultod3                   100709e0 f   LIBCMTD:ftol3.obj
 0002:0000ea50       __ltod3                    10070a50 f   LIBCMTD:ftol3.obj
 0002:0000eab0       __alloca_probe             10070ab0 f   LIBCMTD:chkstk.obj
 0002:0000eab0       __chkstk                   10070ab0 f   LIBCMTD:chkstk.obj
 0002:0000eba0       ?_RTC_AllocaFailure@@YAXPAXPAU_RTC_ALLOCA_NODE@@H@Z 10070ba0 f   LIBCMTD:error.obj
 0002:0000ecc0       ?_RTC_Failure@@YAXPAXH@Z   10070cc0 f   LIBCMTD:error.obj
 0002:0000ed30       ?_RTC_StackFailure@@YAXPAXPBD@Z 10070d30 f   LIBCMTD:error.obj
 0002:0000f1e0       __RTC_UninitUse            100711e0 f   LIBCMTD:error.obj
 0002:0000f2c0       __vsprintf_s_l             100712c0 f i LIBCMTD:error.obj
 0002:0000f300       _sprintf_s                 10071300 f i LIBCMTD:error.obj
 0002:0000f330       ?_RTC_GetErrorFunc@@YAP6AHHPBDH00ZZPBX@Z 10071330 f   LIBCMTD:userapi.obj
 0002:0000f340       ?_RTC_GetErrorFuncW@@YAP6AHHPB_WH00ZZPBX@Z 10071340 f   LIBCMTD:userapi.obj
 0002:0000f350       __RTC_GetErrDesc           10071350 f   LIBCMTD:userapi.obj
 0002:0000f370       __RTC_NumErrors            10071370 f   LIBCMTD:userapi.obj
 0002:0000f380       __RTC_SetErrorFunc         10071380 f   LIBCMTD:userapi.obj
 0002:0000f3b0       __RTC_SetErrorFuncW        100713b0 f   LIBCMTD:userapi.obj
 0002:0000f3e0       __RTC_SetErrorType         100713e0 f   LIBCMTD:userapi.obj
 0002:0000f4a0       ___security_init_cookie    100714a0 f   LIBCMTD:gs_support.obj
 0002:0000f540       _DllMain@12                10071540 f   LIBCMTD:dll_dllmain_stub.obj
 0002:0000f550       ?__scrt_initialize_type_info@@YAXXZ 10071550 f   LIBCMTD:tncleanup.obj
 0002:0000f570       ?__scrt_uninitialize_type_info@@YAXXZ 10071570 f   LIBCMTD:tncleanup.obj
 0002:0000f590       ___local_stdio_scanf_options 10071590 f i LIBCMTD:default_local_stdio_options.obj
 0002:0000f5a0       ___scrt_initialize_default_local_stdio_options 100715a0 f   LIBCMTD:default_local_stdio_options.obj
 0002:0000f5f0       ?configure_argv@__scrt_narrow_argv_policy@@SAHXZ 100715f0 f i LIBCMTD:utility.obj
 0002:0000f6c0       ?initialize_environment@__scrt_narrow_environment_policy@@SAHXZ 100716c0 f i LIBCMTD:utility.obj
 0002:0000f760       _NtCurrentTeb              10071760 f i LIBCMTD:utility.obj
 0002:0000f770       ___scrt_acquire_startup_lock 10071770 f   LIBCMTD:utility.obj
 0002:0000f7d0       ___scrt_dllmain_after_initialize_c 100717d0 f   LIBCMTD:utility.obj
 0002:0000f810       ___scrt_dllmain_before_initialize_c 10071810 f   LIBCMTD:utility.obj
 0002:0000f840       ___scrt_dllmain_crt_thread_attach 10071840 f   LIBCMTD:utility.obj
 0002:0000f880       ___scrt_dllmain_crt_thread_detach 10071880 f   LIBCMTD:utility.obj
 0002:0000f8a0       ___scrt_dllmain_exception_filter 100718a0 f   LIBCMTD:utility.obj
 0002:0000f900       ___scrt_dllmain_uninitialize_c 10071900 f   LIBCMTD:utility.obj
 0002:0000f940       ___scrt_dllmain_uninitialize_critical 10071940 f   LIBCMTD:utility.obj
 0002:0000f960       ___scrt_initialize_crt     10071960 f   LIBCMTD:utility.obj
 0002:0000f9c0       ___scrt_initialize_onexit_tables 100719c0 f   LIBCMTD:utility.obj
 0002:0000fad0       ___scrt_is_nonwritable_in_current_image 10071ad0 f   LIBCMTD:utility.obj
 0002:0000fc50       ___scrt_release_startup_lock 10071c50 f   LIBCMTD:utility.obj
 0002:0000fc80       ___scrt_uninitialize_crt   10071c80 f   LIBCMTD:utility.obj
 0002:0000fcd0       __onexit                   10071cd0 f   LIBCMTD:utility.obj
 0002:0000fd50       _at_quick_exit             10071d50 f   LIBCMTD:utility.obj
 0002:0000fda0       _atexit                    10071da0 f   LIBCMTD:utility.obj
 0002:0000fde0       ___scrt_get_dyn_tls_init_callback 10071de0 f   LIBCMTD:dyn_tls_init.obj
 0002:0000fdf0       ___scrt_fastfail           10071df0 f   LIBCMTD:utility_desktop.obj
 0002:0000ff80       ___scrt_get_show_window_mode 10071f80 f   LIBCMTD:utility_desktop.obj
 0002:0000ffd0       ___scrt_initialize_mta     10071fd0 f   LIBCMTD:utility_desktop.obj
 0002:0000ffe0       ___scrt_initialize_winrt   10071fe0 f   LIBCMTD:utility_desktop.obj
 0002:0000fff0       ___scrt_is_managed_app     10071ff0 f   LIBCMTD:utility_desktop.obj
 0002:000100a0       ___scrt_set_unhandled_exception_filter 100720a0 f   LIBCMTD:utility_desktop.obj
 0002:000100c0       ___scrt_exe_initialize_mta 100720c0 f   LIBCMTD:utility_desktop.obj
 0002:000100c0       ___scrt_stub_for_initialize_mta 100720c0 f   LIBCMTD:utility_desktop.obj
 0002:000100d0       ___scrt_unhandled_exception_filter@4 100720d0 f   LIBCMTD:utility_desktop.obj
 0002:00010170       __crt_debugger_hook        10072170 f   LIBCMTD:utility_desktop.obj
 0002:00010190       __RTC_Initialize           10072190 f   LIBCMTD:initsect.obj
 0002:000101d0       __RTC_Terminate            100721d0 f   LIBCMTD:initsect.obj
 0002:00010210       @_guard_check_icall_nop@4  10072210 f i LIBCMTD:guard_support.obj
 0002:00010220       _ReadNoFence               10072220 f i LIBCMTD:guard_support.obj
 0002:00010240       _ReadPointerNoFence        10072240 f i LIBCMTD:guard_support.obj
 0002:00010260       ___castguard_check_failure_debugbreak 10072260 f i LIBCMTD:guard_support.obj
 0002:00010280       ___castguard_check_failure_fastfail 10072280 f i LIBCMTD:guard_support.obj
 0002:000102b0       ___castguard_check_failure_nop 100722b0 f i LIBCMTD:guard_support.obj
 0002:000102c0       ___castguard_check_failure_os_handled 100722c0 f i LIBCMTD:guard_support.obj
 0002:00010370       ___castguard_slow_path_check_debugbreak 10072370 f i LIBCMTD:guard_support.obj
 0002:000103b0       ___castguard_slow_path_check_fastfail 100723b0 f i LIBCMTD:guard_support.obj
 0002:00010400       ___castguard_slow_path_check_nop 10072400 f i LIBCMTD:guard_support.obj
 0002:00010410       ___castguard_slow_path_check_os_handled 10072410 f i LIBCMTD:guard_support.obj
 0002:000104b0       __guard_icall_checks_enforced 100724b0 f i LIBCMTD:guard_support.obj
 0002:000104f0       ___raise_securityfailure   100724f0 f   LIBCMTD:gs_report.obj
 0002:00010530       ___report_gsfailure        10072530 f   LIBCMTD:gs_report.obj
 0002:00010680       ___report_rangecheckfailure 10072680 f   LIBCMTD:gs_report.obj
 0002:00010690       ___report_securityfailure  10072690 f   LIBCMTD:gs_report.obj
 0002:000107a0       ___report_securityfailureEx 100727a0 f   LIBCMTD:gs_report.obj
 0002:00010910       ___isa_available_init      10072910 f   LIBCMTD:cpu_disp.obj
 0002:000112b0       ?_RTC_GetSrcLine@@YAHPAEPA_WKPAH1K@Z 100732b0 f   LIBCMTD:pdblkup.obj
 0002:00011710       __except_handler4_noexcept 10073710 f   LIBCMTD:chandler4_noexcept.obj
 0002:00011790       __get_startup_argv_mode    10073790 f   LIBCMTD:argv_mode.obj
 0002:000117a0       ___scrt_is_ucrt_dll_in_use 100737a0 f   LIBCMTD:ucrt_detection.obj
 0002:000117d0       _memcpy                    100737d0 f   libvcruntimed:memcpy.obj
 0002:00011eb0       _memset                    10073eb0 f   libvcruntimed:memset.obj
 0002:00012060       _strchr                    10074060 f   libvcruntimed:strchr.obj
 0002:000120ce       ___from_strstr_to_strchr   100740ce     libvcruntimed:strchr.obj
 0002:00012260       __except_handler4          10074260 f   libvcruntimed:chandler4.obj
 0002:00012500       ??$?RD@__crt_internal_free_policy@@QBEXQBD@Z 10074500 f i libvcruntimed:std_type_info.obj
 0002:00012530       ??$?RX@__crt_internal_free_policy@@QBEXQBX@Z 10074530 f i libvcruntimed:std_type_info.obj
 0002:00012560       ??$__crt_interlocked_compare_exchange_pointer@$$CBDPAD$$T@@YAPBDPDSBDQAD$$T@Z 10074560 f i libvcruntimed:std_type_info.obj
 0002:00012580       ??$__crt_interlocked_read_pointer@$$CBD@@YAPBDPDSBD@Z 10074580 f i libvcruntimed:std_type_info.obj
 0002:000125a0       ??0?$__crt_unique_heap_ptr@DU__crt_internal_free_policy@@@@QAE@QAD@Z 100745a0 f i libvcruntimed:std_type_info.obj
 0002:000125c0       ??0?$__crt_unique_heap_ptr@XU__crt_internal_free_policy@@@@QAE@QAX@Z 100745c0 f i libvcruntimed:std_type_info.obj
 0002:000125e0       ??1?$__crt_unique_heap_ptr@DU__crt_internal_free_policy@@@@QAE@XZ 100745e0 f i libvcruntimed:std_type_info.obj
 0002:00012600       ??1?$__crt_unique_heap_ptr@XU__crt_internal_free_policy@@@@QAE@XZ 10074600 f i libvcruntimed:std_type_info.obj
 0002:00012620       ??B?$__crt_unique_heap_ptr@DU__crt_internal_free_policy@@@@QBE_NXZ 10074620 f i libvcruntimed:std_type_info.obj
 0002:00012640       ??B?$__crt_unique_heap_ptr@XU__crt_internal_free_policy@@@@QBE_NXZ 10074640 f i libvcruntimed:std_type_info.obj
 0002:000126c0       ?__crt_interlocked_read_32@@YAHPDH@Z 100746c0 f i libvcruntimed:std_type_info.obj
 0002:000126e0       ?detach@?$__crt_unique_heap_ptr@XU__crt_internal_free_policy@@@@QAEPAXXZ 100746e0 f i libvcruntimed:std_type_info.obj
 0002:00012710       ?get@?$__crt_unique_heap_ptr@DU__crt_internal_free_policy@@@@QBEPADXZ 10074710 f i libvcruntimed:std_type_info.obj
 0002:00012730       ?get@?$__crt_unique_heap_ptr@XU__crt_internal_free_policy@@@@QBEPAXXZ 10074730 f i libvcruntimed:std_type_info.obj
 0002:00012750       ?is_valid@?$__crt_unique_heap_ptr@DU__crt_internal_free_policy@@@@QBE_NXZ 10074750 f i libvcruntimed:std_type_info.obj
 0002:00012790       ?is_valid@?$__crt_unique_heap_ptr@XU__crt_internal_free_policy@@@@QBE_NXZ 10074790 f i libvcruntimed:std_type_info.obj
 0002:000127d0       ?release@?$__crt_unique_heap_ptr@DU__crt_internal_free_policy@@@@QAEXXZ 100747d0 f i libvcruntimed:std_type_info.obj
 0002:00012800       ?release@?$__crt_unique_heap_ptr@XU__crt_internal_free_policy@@@@QAEXXZ 10074800 f i libvcruntimed:std_type_info.obj
 0002:00012830       ___std_type_info_compare   10074830 f   libvcruntimed:std_type_info.obj
 0002:00012860       ___std_type_info_destroy_list 10074860 f   libvcruntimed:std_type_info.obj
 0002:000128b0       ___std_type_info_hash      100748b0 f   libvcruntimed:std_type_info.obj
 0002:00012920       ___std_type_info_name      10074920 f   libvcruntimed:std_type_info.obj
 0002:00012b50       ___vcrt_initialize         10074b50 f   libvcruntimed:initialization.obj
 0002:00012b90       ___vcrt_thread_attach      10074b90 f   libvcruntimed:initialization.obj
 0002:00012bb0       ___vcrt_thread_detach      10074bb0 f   libvcruntimed:initialization.obj
 0002:00012bd0       ___vcrt_uninitialize       10074bd0 f   libvcruntimed:initialization.obj
 0002:00012bf0       ___vcrt_uninitialize_critical 10074bf0 f   libvcruntimed:initialization.obj
 0002:00012c10       ___DestructExceptionObject 10074c10 f   libvcruntimed:ehhelpers.obj
 0002:00012d80       ?_CallMemberFunction0@@YGXQAX0@Z 10074d80 f i libvcruntimed:ehhelpers.obj
 0002:00012e50       ?raw_name@type_info@@QBEPBDXZ 10074e50 f i libvcruntimed:ehhelpers.obj
 0002:00012e70       __IsExceptionObjectToBeDestroyed 10074e70 f   libvcruntimed:ehhelpers.obj
 0002:00012ec0       __SetWinRTOutOfMemoryExceptionCallback 10074ec0 f   libvcruntimed:ehhelpers.obj
 0002:00012ed0       ___AdjustPointer           10074ed0 f   libvcruntimed:ehhelpers.obj
 0002:00012f30       ___FrameUnwindFilter       10074f30 f   libvcruntimed:ehhelpers.obj
 0002:00012fe0       ___GetPlatformExceptionInfo 10074fe0 f   libvcruntimed:ehhelpers.obj
 0002:00013080       ___current_exception       10075080 f   libvcruntimed:ehhelpers.obj
 0002:00013090       ___current_exception_context 10075090 f   libvcruntimed:ehhelpers.obj
 0002:000130a0       ___processing_throw        100750a0 f   libvcruntimed:ehhelpers.obj
 0002:000130b0       ___std_terminate           100750b0 f   libvcruntimed:ehhelpers.obj
 0002:000130c0       __is_exception_typeof      100750c0 f   libvcruntimed:ehhelpers.obj
 0002:000131d0       ___vcrt_GetModuleFileNameW 100751d0 f   libvcruntimed:winapi_thunks.obj
 0002:000131f0       ___vcrt_GetModuleHandleW   100751f0 f   libvcruntimed:winapi_thunks.obj
 0002:00013210       ___vcrt_LoadLibraryExW     10075210 f   libvcruntimed:winapi_thunks.obj
 0002:00013230       __local_unwind4            10075230 f   libvcruntimed:exsup4.obj
 0002:00013360       __seh_longjmp_unwind4@4    10075360 f   libvcruntimed:exsup4.obj
 0002:000133a0       @_EH4_CallFilterFunc@8     100753a0 f   libvcruntimed:exsup4.obj
 0002:000133c0       @_EH4_TransferToHandler@8  100753c0 f   libvcruntimed:exsup4.obj
 0002:000133e0       @_EH4_GlobalUnwind2@8      100753e0 f   libvcruntimed:exsup4.obj
 0002:00013400       @_EH4_LocalUnwind@16       10075400 f   libvcruntimed:exsup4.obj
 0002:00013430       ___except_validate_context_record 10075430 f   libvcruntimed:jbcxrval.obj
 0002:00013490       ___except_validate_jump_buffer 10075490 f   libvcruntimed:jbcxrval.obj
 0002:000134b0       ___except_validate_jump_buffer_common 100754b0 f i libvcruntimed:jbcxrval.obj
 0002:00013520       ??$?0$00@DName@@QAE@PBDU?$StringLifeSelector@$00@@@Z 10075520 f i libvcruntimed:undname.obj
 0002:00013590       ??$?0$00@pcharNode@@QAE@PBDHU?$StringLifeSelector@$00@@@Z 10075590 f i libvcruntimed:undname.obj
 0002:000135d0       ??$?0$01@DName@@QAE@PBDU?$StringLifeSelector@$01@@@Z 100755d0 f i libvcruntimed:undname.obj
 0002:00013640       ??$?0$01@pcharNode@@QAE@PBDHU?$StringLifeSelector@$01@@@Z 10075640 f i libvcruntimed:undname.obj
 0002:000136e0       ??$?0$0A@@DName@@QAE@PBDU?$StringLifeSelector@$0A@@@@Z 100756e0 f i libvcruntimed:undname.obj
 0002:00013750       ??$?0$0A@@pcharNode@@QAE@PBDHU?$StringLifeSelector@$0A@@@@Z 10075750 f i libvcruntimed:undname.obj
 0002:000137f0       ??$?0_K$0A@@?$optional@_K@std@@QAE@$$QA_K@Z 100757f0 f i libvcruntimed:undname.obj
 0002:00013840       ??$?0_K@?$_Optional_construct_base@_K@std@@QAE@Uin_place_t@1@$$QA_K@Z 10075840 f i libvcruntimed:undname.obj
 0002:00013870       ??$?0_K@?$_Optional_destruct_base@_K$00@std@@QAE@Uin_place_t@1@$$QA_K@Z 10075870 f i libvcruntimed:undname.obj
 0002:000138b0       ??$append@VDNameNode@@@DName@@AAEXPBVDNameNode@@@Z 100758b0 f i libvcruntimed:undname.obj
 0002:00013960       ??$append@VDNameStatusNode@@@DName@@AAEXPBVDNameStatusNode@@@Z 10075960 f i libvcruntimed:undname.obj
 0002:00013a10       ??$append@VcharNode@@@DName@@AAEXPBVcharNode@@@Z 10075a10 f i libvcruntimed:undname.obj
 0002:00013ac0       ??$append@VpDNameNode@@@DName@@AAEXPBVpDNameNode@@@Z 10075ac0 f i libvcruntimed:undname.obj
 0002:00013b70       ??$append@VpcharNode@@@DName@@AAEXPBVpcharNode@@@Z 10075b70 f i libvcruntimed:undname.obj
 0002:00013c20       ??$doPchar@$00@DName@@AAEXPBDH@Z 10075c20 f i libvcruntimed:undname.obj
 0002:00013d70       ??$doPchar@$01@DName@@AAEXPBDH@Z 10075d70 f i libvcruntimed:undname.obj
 0002:00013ec0       ??$doPchar@$0A@@DName@@AAEXPBDH@Z 10075ec0 f i libvcruntimed:undname.obj
 0002:00014010       ??$forward@_K@std@@YA$$QA_KAA_K@Z 10076010 f i libvcruntimed:undname.obj
 0002:00014180       ??$size@D$04@std@@YAIAAY04$$CBD@Z 10076180 f i libvcruntimed:undname.obj
 0002:00014190       ??0?$_Optional_construct_base@_K@std@@QAE@XZ 10076190 f i libvcruntimed:undname.obj
 0002:000141b0       ??0?$_Optional_destruct_base@_K$00@std@@QAE@XZ 100761b0 f i libvcruntimed:undname.obj
 0002:000141e0       ??0?$optional@_K@std@@QAE@XZ 100761e0 f i libvcruntimed:undname.obj
 0002:00014200       ??0Block@_HeapManager@@QAE@XZ 10076200 f i libvcruntimed:undname.obj
 0002:00014220       ??0DName@@QAE@AAPBDD@Z     10076220 f   libvcruntimed:undname.obj
 0002:000143f0       ??0DName@@QAE@ABUStringLiteral@@@Z 100763f0 f   libvcruntimed:undname.obj
 0002:00014450       ??0DName@@QAE@ABV0@@Z      10076450 f i libvcruntimed:undname.obj
 0002:00014480       ??0DName@@QAE@D@Z          10076480 f   libvcruntimed:undname.obj
 0002:000144c0       ??0DName@@QAE@PAV0@@Z      100764c0 f   libvcruntimed:undname.obj
 0002:000145a0       ??0DName@@QAE@W4DNameStatus@@@Z 100765a0 f   libvcruntimed:undname.obj
 0002:00014660       ??0DName@@QAE@XZ           10076660 f i libvcruntimed:undname.obj
 0002:00014690       ??0DName@@QAE@_J@Z         10076690 f   libvcruntimed:undname.obj
 0002:000147b0       ??0DName@@QAE@_K@Z         100767b0 f   libvcruntimed:undname.obj
 0002:00014880       ??0DNameNode@@IAE@XZ       10076880 f i libvcruntimed:undname.obj
 0002:000148a0       ??0Replicator@@QAE@XZ      100768a0 f i libvcruntimed:undname.obj
 0002:000148f0       ??0UnDecorator@@QAE@PBDP6APADJ@ZK@Z 100768f0 f i libvcruntimed:undname.obj
 0002:00014990       ??0_Nontrivial_dummy_type@std@@QAE@XZ 10076990 f i libvcruntimed:undname.obj
 0002:000149b0       ??0charNode@@QAE@D@Z       100769b0 f i libvcruntimed:undname.obj
 0002:000149f0       ??0pDNameNode@@QAE@PAVDName@@@Z 100769f0 f   libvcruntimed:undname.obj
 0002:00014a70       ??0pairNode@@QAE@PBVDNameNode@@0@Z 10076a70 f i libvcruntimed:undname.obj
 0002:00014ae0       ??2@YAPAXIAAV_HeapManager@@H@Z 10076ae0 f   libvcruntimed:undname.obj
 0002:00014b30       ??4DName@@QAEAAV0@ABUStringLiteral@@@Z 10076b30 f   libvcruntimed:undname.obj
 0002:00014b80       ??4DName@@QAEAAV0@ABV0@@Z  10076b80 f   libvcruntimed:undname.obj
 0002:00014bb0       ??4DName@@QAEAAV0@D@Z      10076bb0 f i libvcruntimed:undname.obj
 0002:00014bf0       ??4DName@@QAEAAV0@PAV0@@Z  10076bf0 f   libvcruntimed:undname.obj
 0002:00014cb0       ??4DName@@QAEAAV0@W4DNameStatus@@@Z 10076cb0 f   libvcruntimed:undname.obj
 0002:00014d50       ??AReplicator@@QBE?AVDName@@H@Z 10076d50 f   libvcruntimed:undname.obj
 0002:00014dd0       ??B?$optional@_K@std@@QBE_NXZ 10076dd0 f i libvcruntimed:undname.obj
 0002:00014df0       ??D?$_Optional_construct_base@_K@std@@QGAEAA_KXZ 10076df0 f i libvcruntimed:undname.obj
 0002:00014e70       ??H@YA?AVDName@@ABUStringLiteral@@ABV0@@Z 10076e70 f i libvcruntimed:undname.obj
 0002:00014eb0       ??H@YA?AVDName@@DABV0@@Z   10076eb0 f i libvcruntimed:undname.obj
 0002:00014ef0       ??H@YA?AVDName@@W4DNameStatus@@ABV0@@Z 10076ef0 f i libvcruntimed:undname.obj
 0002:00014f30       ??HDName@@QBE?AV0@ABUStringLiteral@@@Z 10076f30 f   libvcruntimed:undname.obj
 0002:00014f70       ??HDName@@QBE?AV0@ABV0@@Z  10076f70 f   libvcruntimed:undname.obj
 0002:00014fb0       ??HDName@@QBE?AV0@D@Z      10076fb0 f   libvcruntimed:undname.obj
 0002:00014ff0       ??HDName@@QBE?AV0@PAV0@@Z  10076ff0 f   libvcruntimed:undname.obj
 0002:00015030       ??HDName@@QBE?AV0@W4DNameStatus@@@Z 10077030 f   libvcruntimed:undname.obj
 0002:00015070       ??HStringLiteral@@QBE?AU0@H@Z 10077070 f i libvcruntimed:undname.obj
 0002:000150b0       ??YDName@@QAEAAV0@ABUStringLiteral@@@Z 100770b0 f   libvcruntimed:undname.obj
 0002:00015170       ??YDName@@QAEAAV0@ABV0@@Z  10077170 f   libvcruntimed:undname.obj
 0002:00015230       ??YDName@@QAEAAV0@D@Z      10077230 f   libvcruntimed:undname.obj
 0002:000152d0       ??YDName@@QAEAAV0@PAV0@@Z  100772d0 f   libvcruntimed:undname.obj
 0002:000153b0       ??YDName@@QAEAAV0@W4DNameStatus@@@Z 100773b0 f   libvcruntimed:undname.obj
 0002:00015430       ??YReplicator@@QAEAAV0@ABVDName@@@Z 10077430 f   libvcruntimed:undname.obj
 0002:000154e0       ??_5DName@@QAEAAV0@ABV0@@Z 100774e0 f   libvcruntimed:undname.obj
 0002:00015560       ??__K_l@@YA?AUStringLiteral@@PBDI@Z 10077560 f i libvcruntimed:undname.obj
 0002:00015590       ?Constructor@_HeapManager@@QAEXP6APAXI@ZP6AXPAX@Z@Z 10077590 f i libvcruntimed:undname.obj
 0002:000155e0       ?Destructor@_HeapManager@@QAEXXZ 100775e0 f i libvcruntimed:undname.obj
 0002:00015680       ?UScore@UnDecorator@@SA?AUStringLiteral@@W4Tokens@@@Z 10077680 f   libvcruntimed:undname.obj
 0002:000156e0       ?composeDeclaration@UnDecorator@@CA?AVDName@@ABV2@@Z 100776e0 f i libvcruntimed:undname.obj
 0002:00017e30       ?dbGetString@DName@@QBEPADXZ 10079e30 f   libvcruntimed:undname.obj
 0002:00017e60       ?doAccessSpecifiers@UnDecorator@@SAHXZ 10079e60 f i libvcruntimed:undname.obj
 0002:00017e90       ?doAllocationLanguage@UnDecorator@@SAHXZ 10079e90 f i libvcruntimed:undname.obj
 0002:00017ec0       ?doAllocationModel@UnDecorator@@SAHXZ 10079ec0 f i libvcruntimed:undname.obj
 0002:00017ef0       ?doEcsu@UnDecorator@@SAHXZ 10079ef0 f i libvcruntimed:undname.obj
 0002:00017f20       ?doEllipsis@UnDecorator@@SAHXZ 10079f20 f i libvcruntimed:undname.obj
 0002:00017f50       ?doFunctionReturns@UnDecorator@@SAHXZ 10079f50 f i libvcruntimed:undname.obj
 0002:00017f80       ?doMSKeywords@UnDecorator@@SAHXZ 10079f80 f i libvcruntimed:undname.obj
 0002:00017fb0       ?doMemberTypes@UnDecorator@@SAHXZ 10079fb0 f i libvcruntimed:undname.obj
 0002:00017fe0       ?doNameOnly@UnDecorator@@SAHXZ 10079fe0 f i libvcruntimed:undname.obj
 0002:00018000       ?doNoIdentCharCheck@UnDecorator@@SAHXZ 1007a000 f i libvcruntimed:undname.obj
 0002:00018020       ?doPchar@DName@@AAEXD@Z    1007a020 f   libvcruntimed:undname.obj
 0002:000180b0       ?doPtr64@UnDecorator@@SAHXZ 1007a0b0 f i libvcruntimed:undname.obj
 0002:000180e0       ?doRestrictionSpec@UnDecorator@@SAHXZ 1007a0e0 f i libvcruntimed:undname.obj
 0002:00018110       ?doThisTypes@UnDecorator@@SAHXZ 1007a110 f i libvcruntimed:undname.obj
 0002:00018150       ?doThrowTypes@UnDecorator@@SAHXZ 1007a150 f i libvcruntimed:undname.obj
 0002:00018180       ?doTypeOnly@UnDecorator@@SAHXZ 1007a180 f i libvcruntimed:undname.obj
 0002:000181a0       ?doUnderScore@UnDecorator@@SAHXZ 1007a1a0 f i libvcruntimed:undname.obj
 0002:000181d0       ?getAddressOf@UnDecorator@@CA?AVDName@@XZ 1007a1d0 f   libvcruntimed:undname.obj
 0002:00018270       ?getArgumentList@UnDecorator@@CA?AVDName@@XZ 1007a270 f   libvcruntimed:undname.obj
 0002:000183f0       ?getArgumentTypes@UnDecorator@@CA?AVDName@@XZ 1007a3f0 f   libvcruntimed:undname.obj
 0002:00018600       ?getArrayAccess@UnDecorator@@CA?AVDName@@XZ 1007a600 f   libvcruntimed:undname.obj
 0002:000186b0       ?getArrayObject@UnDecorator@@CA?AVDName@@XZ 1007a6b0 f   libvcruntimed:undname.obj
 0002:000187c0       ?getArrayType@UnDecorator@@CA?AVDName@@ABV2@@Z 1007a7c0 f i libvcruntimed:undname.obj
 0002:00018b00       ?getBasedType@UnDecorator@@CA?AVDName@@XZ 1007ab00 f   libvcruntimed:undname.obj
 0002:00018c60       ?getBasicDataType@UnDecorator@@CA?AVDName@@ABV2@@Z 1007ac60 f   libvcruntimed:undname.obj
 0002:00019860       ?getCHPEName@UnDecorator@@QAEPADPADH@Z 1007b860 f i libvcruntimed:undname.obj
 0002:00019a20       ?getCallIndex@UnDecorator@@CA?AVDName@@XZ 1007ba20 f i libvcruntimed:undname.obj
 0002:00019a40       ?getCallingConvention@UnDecorator@@CA?AVDName@@XZ 1007ba40 f   libvcruntimed:undname.obj
 0002:00019d20       ?getDataIndirectType@UnDecorator@@CA?AVDName@@ABV2@W4IndirectionKind@@0H@Z 1007bd20 f   libvcruntimed:undname.obj
 0002:0001a870       ?getDataIndirectType@UnDecorator@@CA?AVDName@@XZ 1007c870 f i libvcruntimed:undname.obj
 0002:0001a8c0       ?getDataType@UnDecorator@@CA?AVDName@@PAV2@@Z 1007c8c0 f   libvcruntimed:undname.obj
 0002:0001aa30       ?getDecoratedName@UnDecorator@@CA?AVDName@@XZ 1007ca30 f   libvcruntimed:undname.obj
 0002:0001af50       ?getDimension@UnDecorator@@CA?AVDName@@_N@Z 1007cf50 f   libvcruntimed:undname.obj
 0002:0001b1f0       ?getDispatchTarget@UnDecorator@@CA?AVDName@@XZ 1007d1f0 f   libvcruntimed:undname.obj
 0002:0001b290       ?getDisplacement@UnDecorator@@CA?AVDName@@XZ 1007d290 f i libvcruntimed:undname.obj
 0002:0001b2b0       ?getECSUDataType@UnDecorator@@CA?AVDName@@XZ 1007d2b0 f   libvcruntimed:undname.obj
 0002:0001b630       ?getECSUName@UnDecorator@@CA?AVDName@@XZ 1007d630 f i libvcruntimed:undname.obj
 0002:0001b650       ?getEnumType@UnDecorator@@CA?AVDName@@XZ 1007d650 f i libvcruntimed:undname.obj
 0002:0001b8b0       ?getExtendedDataIndirectType@UnDecorator@@CA?AVDName@@AAW4IndirectionKind@@AA_NH@Z 1007d8b0 f   libvcruntimed:undname.obj
 0002:0001bb40       ?getExternalDataType@UnDecorator@@CA?AVDName@@ABV2@@Z 1007db40 f i libvcruntimed:undname.obj
 0002:0001bbf0       ?getFloatingPoint@UnDecorator@@CA?AVDName@@H@Z 1007dbf0 f   libvcruntimed:undname.obj
 0002:0001bd60       ?getFunctionIndirectType@UnDecorator@@CA?AVDName@@ABV2@@Z 1007dd60 f   libvcruntimed:undname.obj
 0002:0001c340       ?getGuardNumber@UnDecorator@@CA?AVDName@@XZ 1007e340 f i libvcruntimed:undname.obj
 0002:0001c360       ?getLastChar@DName@@QBEDXZ 1007e360 f i libvcruntimed:undname.obj
 0002:0001c3b0       ?getLastChar@DNameStatusNode@@UBEDXZ 1007e3b0 f i libvcruntimed:undname.obj
 0002:0001c3f0       ?getLastChar@charNode@@UBEDXZ 1007e3f0 f i libvcruntimed:undname.obj
 0002:0001c410       ?getLastChar@pDNameNode@@UBEDXZ 1007e410 f i libvcruntimed:undname.obj
 0002:0001c450       ?getLastChar@pairNode@@UBEDXZ 1007e450 f i libvcruntimed:undname.obj
 0002:0001c4d0       ?getLastChar@pcharNode@@UBEDXZ 1007e4d0 f i libvcruntimed:undname.obj
 0002:0001c510       ?getLexicalFrame@UnDecorator@@CA?AVDName@@XZ 1007e510 f i libvcruntimed:undname.obj
 0002:0001c560       ?getMemberAccess@UnDecorator@@CA?AVDName@@XZ 1007e560 f   libvcruntimed:undname.obj
 0002:0001c610       ?getMemoryWithBuffer@_HeapManager@@QAEPAXI@Z 1007e610 f   libvcruntimed:undname.obj
 0002:0001c730       ?getMemoryWithoutBuffer@_HeapManager@@QAEPAXI@Z 1007e730 f   libvcruntimed:undname.obj
 0002:0001c780       ?getNoexcept@UnDecorator@@CA?AVDName@@XZ 1007e780 f   libvcruntimed:undname.obj
 0002:0001c800       ?getNumberOfDimensions@UnDecorator@@CAHXZ 1007e800 f   libvcruntimed:undname.obj
 0002:0001c900       ?getOperatorName@UnDecorator@@CA?AVDName@@_NPA_N@Z 1007e900 f i libvcruntimed:undname.obj
 0002:0001d5f0       ?getPointerToMember@UnDecorator@@CA?AVDName@@XZ 1007f5f0 f   libvcruntimed:undname.obj
 0002:0001d700       ?getPointerType@UnDecorator@@CA?AVDName@@ABV2@0@Z 1007f700 f i libvcruntimed:undname.obj
 0002:0001d730       ?getPointerTypeArray@UnDecorator@@CA?AVDName@@ABV2@0@Z 1007f730 f i libvcruntimed:undname.obj
 0002:0001d760       ?getPrimaryDataType@UnDecorator@@CA?AVDName@@ABV2@@Z 1007f760 f   libvcruntimed:undname.obj
 0002:0001dca0       ?getPtrRefDataType@UnDecorator@@CA?AVDName@@ABV2@H@Z 1007fca0 f   libvcruntimed:undname.obj
 0002:0001dfd0       ?getPtrRefType@UnDecorator@@CA?AVDName@@ABV2@0W4IndirectionKind@@@Z 1007ffd0 f   libvcruntimed:undname.obj
 0002:0001e1b0       ?getReferenceType@UnDecorator@@CA?AVDName@@ABV2@0W4IndirectionKind@@@Z 100801b0 f i libvcruntimed:undname.obj
 0002:0001e1e0       ?getRestrictionSpec@UnDecorator@@CA?AVDName@@XZ 100801e0 f   libvcruntimed:undname.obj
 0002:0001e3d0       ?getReturnType@UnDecorator@@CA?AVDName@@PAV2@@Z 100803d0 f   libvcruntimed:undname.obj
 0002:0001e420       ?getScope@UnDecorator@@CA?AVDName@@XZ 10080420 f   libvcruntimed:undname.obj
 0002:0001eab0       ?getScopedName@UnDecorator@@CA?AVDName@@XZ 10080ab0 f   libvcruntimed:undname.obj
 0002:0001ec40       ?getSignedDimension@UnDecorator@@CA?AVDName@@XZ 10080c40 f   libvcruntimed:undname.obj
 0002:0001ecd0       ?getStorageConvention@UnDecorator@@CA?AVDName@@XZ 10080cd0 f i libvcruntimed:undname.obj
 0002:0001ecf0       ?getString@DName@@QBEPADPAD0@Z 10080cf0 f i libvcruntimed:undname.obj
 0002:0001ed60       ?getString@DName@@QBEPADPADH@Z 10080d60 f i libvcruntimed:undname.obj
 0002:0001ee10       ?getString@DNameStatusNode@@UBEPADPAD0@Z 10080e10 f i libvcruntimed:undname.obj
 0002:0001ee50       ?getString@charNode@@UBEPADPAD0@Z 10080e50 f i libvcruntimed:undname.obj
 0002:0001ee90       ?getString@pDNameNode@@UBEPADPAD0@Z 10080e90 f i libvcruntimed:undname.obj
 0002:0001eee0       ?getString@pairNode@@UBEPADPAD0@Z 10080ee0 f i libvcruntimed:undname.obj
 0002:0001ef90       ?getString@pcharNode@@UBEPADPAD0@Z 10080f90 f i libvcruntimed:undname.obj
 0002:0001efd0       ?getStringEncoding@UnDecorator@@CA?AVDName@@W4PrefixKind@@H@Z 10080fd0 f   libvcruntimed:undname.obj
 0002:0001f0f0       ?getStringHelper@@YAPADPADPBD1H@Z 100810f0 f i libvcruntimed:undname.obj
 0002:0001f140       ?getStringObject@UnDecorator@@CA?AVDName@@XZ 10081140 f   libvcruntimed:undname.obj
 0002:0001f200       ?getSymbolName@UnDecorator@@CA?AVDName@@XZ 10081200 f i libvcruntimed:undname.obj
 0002:0001f2a0       ?getTemplateArgumentList@UnDecorator@@CA?AVDName@@XZ 100812a0 f   libvcruntimed:undname.obj
 0002:0001f610       ?getTemplateName@UnDecorator@@CA?AVDName@@_N@Z 10081610 f   libvcruntimed:undname.obj
 0002:0001f820       ?getTemplateNonTypeArgument@UnDecorator@@CA?AVDName@@XZ 10081820 f   libvcruntimed:undname.obj
 0002:0001ffc0       ?getTemplateTypeArgument@UnDecorator@@CA?AVDName@@XZ 10081fc0 f   libvcruntimed:undname.obj
 0002:000201d0       ?getThisType@UnDecorator@@CA?AVDName@@XZ 100821d0 f i libvcruntimed:undname.obj
 0002:00020220       ?getThrowTypes@UnDecorator@@CA?AVDName@@XZ 10082220 f   libvcruntimed:undname.obj
 0002:00020250       ?getTypeEncoding@UnDecorator@@CAHXZ 10082250 f i libvcruntimed:undname.obj
 0002:00020f30       ?getUndecoratedName@UnDecorator@@QAEPADPADH@Z 10082f30 f i libvcruntimed:undname.obj
 0002:000210e0       ?getUnionObject@UnDecorator@@CA?AVDName@@XZ 100830e0 f   libvcruntimed:undname.obj
 0002:000211e0       ?getVCallThunkType@UnDecorator@@CA?AVDName@@XZ 100831e0 f i libvcruntimed:undname.obj
 0002:00021270       ?getValue@UnDecorator@@CA?AV?$optional@_K@std@@XZ 10083270 f   libvcruntimed:undname.obj
 0002:00021350       ?getValueObject@UnDecorator@@CA?AVDName@@XZ 10083350 f   libvcruntimed:undname.obj
 0002:00021570       ?getVbTableType@UnDecorator@@CA?AVDName@@ABV2@@Z 10083570 f i libvcruntimed:undname.obj
 0002:00021590       ?getVdispMapType@UnDecorator@@CA?AVDName@@ABV2@@Z 10083590 f i libvcruntimed:undname.obj
 0002:00021620       ?getVfTableType@UnDecorator@@CA?AVDName@@ABV2@@Z 10083620 f i libvcruntimed:undname.obj
 0002:00021870       ?getZName@UnDecorator@@CA?AVDName@@_N0@Z 10083870 f   libvcruntimed:undname.obj
 0002:00021c40       ?get_current_character_and_increment_buffer@UnDecorator@@CADXZ 10083c40 f i libvcruntimed:undname.obj
 0002:00021c80       ?haveTemplateParameters@UnDecorator@@SAHXZ 10083c80 f i libvcruntimed:undname.obj
 0002:00021ca0       ?increment_buffer@UnDecorator@@CA_NI@Z 10083ca0 f i libvcruntimed:undname.obj
 0002:00021d00       ?increment_buffer_no_check@UnDecorator@@CAXI@Z 10083d00 f i libvcruntimed:undname.obj
 0002:00021d40       ?increment_buffer_no_check@UnDecorator@@CAXXZ 10083d40 f i libvcruntimed:undname.obj
 0002:00021d60       ?isArray@DName@@QBEHXZ     10083d60 f i libvcruntimed:undname.obj
 0002:00021d80       ?isComArray@DName@@QBEHXZ  10083d80 f i libvcruntimed:undname.obj
 0002:00021da0       ?isEmpty@DName@@QBEHXZ     10083da0 f i libvcruntimed:undname.obj
 0002:00021de0       ?isFull@Replicator@@QBEHXZ 10083de0 f i libvcruntimed:undname.obj
 0002:00021e20       ?isNoTE@DName@@QBEHXZ      10083e20 f i libvcruntimed:undname.obj
 0002:00021e40       ?isPinPtr@DName@@QBEHXZ    10083e40 f i libvcruntimed:undname.obj
 0002:00021e60       ?isPtrRef@DName@@QBEHXZ    10083e60 f i libvcruntimed:undname.obj
 0002:00021e80       ?isUDC@DName@@QBEHXZ       10083e80 f i libvcruntimed:undname.obj
 0002:00021ed0       ?isUDTThunk@DName@@QBEHXZ  10083ed0 f i libvcruntimed:undname.obj
 0002:00021f20       ?isVCallThunk@DName@@QBEHXZ 10083f20 f i libvcruntimed:undname.obj
 0002:00021f40       ?isValid@DName@@QBEHXZ     10083f40 f i libvcruntimed:undname.obj
 0002:00021f80       ?length@DName@@QBEHXZ      10083f80 f i libvcruntimed:undname.obj
 0002:00021fd0       ?length@DNameStatusNode@@UBEHXZ 10083fd0 f i libvcruntimed:undname.obj
 0002:00021ff0       ?length@charNode@@UBEHXZ   10083ff0 f i libvcruntimed:undname.obj
 0002:00022010       ?length@pDNameNode@@UBEHXZ 10084010 f i libvcruntimed:undname.obj
 0002:00022050       ?length@pairNode@@UBEHXZ   10084050 f i libvcruntimed:undname.obj
 0002:000220e0       ?length@pcharNode@@UBEHXZ  100840e0 f i libvcruntimed:undname.obj
 0002:00022100       ?make@DNameStatusNode@@SAPBV1@W4DNameStatus@@@Z 10084100 f i libvcruntimed:undname.obj
 0002:00022140       ?parseDecoratedName@UnDecorator@@CA?AVDName@@XZ 10084140 f   libvcruntimed:undname.obj
 0002:00022320       ?raw_length@DNameStatusNode@@UBEHXZ 10084320 f i libvcruntimed:undname.obj
 0002:00022340       ?raw_length@charNode@@UBEHXZ 10084340 f i libvcruntimed:undname.obj
 0002:00022360       ?raw_length@pDNameNode@@UBEHXZ 10084360 f i libvcruntimed:undname.obj
 0002:00022380       ?raw_length@pairNode@@UBEHXZ 10084380 f i libvcruntimed:undname.obj
 0002:000223a0       ?raw_length@pcharNode@@UBEHXZ 100843a0 f i libvcruntimed:undname.obj
 0002:000223c0       ?setIsArray@DName@@QAEXXZ  100843c0 f i libvcruntimed:undname.obj
 0002:000223f0       ?setIsComArray@DName@@QAEXXZ 100843f0 f i libvcruntimed:undname.obj
 0002:00022420       ?setIsNoTE@DName@@QAEXXZ   10084420 f i libvcruntimed:undname.obj
 0002:00022450       ?setIsPinPtr@DName@@QAEXXZ 10084450 f i libvcruntimed:undname.obj
 0002:00022480       ?setIsUDC@DName@@QAEXXZ    10084480 f i libvcruntimed:undname.obj
 0002:000224c0       ?setIsVCallThunk@DName@@QAEXXZ 100844c0 f i libvcruntimed:undname.obj
 0002:000224f0       ?setPtrRef@DName@@QAEAAV1@XZ 100844f0 f i libvcruntimed:undname.obj
 0002:00022520       ?status@DName@@QBE?AW4DNameStatus@@XZ 10084520 f i libvcruntimed:undname.obj
 0002:00022640       ___unDName                 10084640 f   libvcruntimed:undname.obj
 0002:00022680       ___unDNameEx               10084680 f   libvcruntimed:undname.obj
 0002:00022780       _snprintf                  10084780 f i libvcruntimed:undname.obj
 0002:000227d0       _unDNameGenerateCHPE       100847d0 f   libvcruntimed:undname.obj
 0002:00022850       _vsnprintf                 10084850 f i libvcruntimed:undname.obj
 0002:000228c0       ??$?RU__vcrt_ptd@@@__crt_internal_free_policy@@QBEXQBU__vcrt_ptd@@@Z 100848c0 f i libvcruntimed:per_thread_data.obj
 0002:000228f0       ??0?$__crt_unique_heap_ptr@U__vcrt_ptd@@U__crt_internal_free_policy@@@@QAE@QAU__vcrt_ptd@@@Z 100848f0 f i libvcruntimed:per_thread_data.obj
 0002:00022930       ??1?$__crt_unique_heap_ptr@U__vcrt_ptd@@U__crt_internal_free_policy@@@@QAE@XZ 10084930 f i libvcruntimed:per_thread_data.obj
 0002:00022970       ??B?$__crt_unique_heap_ptr@U__vcrt_ptd@@U__crt_internal_free_policy@@@@QBE_NXZ 10084970 f i libvcruntimed:per_thread_data.obj
 0002:00022990       ?detach@?$__crt_unique_heap_ptr@U__vcrt_ptd@@U__crt_internal_free_policy@@@@QAEPAU__vcrt_ptd@@XZ 10084990 f i libvcruntimed:per_thread_data.obj
 0002:000229c0       ?get@?$__crt_unique_heap_ptr@U__vcrt_ptd@@U__crt_internal_free_policy@@@@QBEPAU__vcrt_ptd@@XZ 100849c0 f i libvcruntimed:per_thread_data.obj
 0002:000229e0       ?is_valid@?$__crt_unique_heap_ptr@U__vcrt_ptd@@U__crt_internal_free_policy@@@@QBE_NXZ 100849e0 f i libvcruntimed:per_thread_data.obj
 0002:00022a20       ?release@?$__crt_unique_heap_ptr@U__vcrt_ptd@@U__crt_internal_free_policy@@@@QAEXXZ 10084a20 f i libvcruntimed:per_thread_data.obj
 0002:00022a80       ___vcrt_freefls@4          10084a80 f   libvcruntimed:per_thread_data.obj
 0002:00022ab0       ___vcrt_freeptd            10084ab0 f   libvcruntimed:per_thread_data.obj
 0002:00022b20       ___vcrt_getptd             10084b20 f   libvcruntimed:per_thread_data.obj
 0002:00022b50       ___vcrt_getptd_noexit      10084b50 f   libvcruntimed:per_thread_data.obj
 0002:00022d00       ___vcrt_getptd_noinit      10084d00 f   libvcruntimed:per_thread_data.obj
 0002:00022d70       ___vcrt_initialize_ptd     10084d70 f   libvcruntimed:per_thread_data.obj
 0002:00022dd0       ___vcrt_uninitialize_ptd   10084dd0 f   libvcruntimed:per_thread_data.obj
 0002:00022e10       ___vcrt_initialize_locks   10084e10 f   libvcruntimed:locks.obj
 0002:00022e80       ___vcrt_lock               10084e80 f   libvcruntimed:locks.obj
 0002:00022ea0       ___vcrt_uninitialize_locks 10084ea0 f   libvcruntimed:locks.obj
 0002:00022f00       ___vcrt_unlock             10084f00 f   libvcruntimed:locks.obj
 0002:00022f20       __global_unwind2           10084f20 f   libvcruntimed:exsup.obj
 0002:00022fb0       __local_unwind2            10084fb0 f   libvcruntimed:exsup.obj
 0002:00023070       __abnormal_termination     10085070 f   libvcruntimed:exsup.obj
 0002:000230b0       __NLG_Notify1              100850b0 f   libvcruntimed:exsup.obj
 0002:000230c0       __NLG_Notify               100850c0 f   libvcruntimed:exsup.obj
 0002:000230d7       __NLG_Dispatch             100850d7     libvcruntimed:exsup.obj
 0002:000230d7       __NLG_Dispatch2            100850d7     libvcruntimed:exsup.obj
 0002:000230f0       __NLG_Call                 100850f0 f   libvcruntimed:exsup.obj
 0002:000230f2       __NLG_Return2              100850f2     libvcruntimed:exsup.obj
 0002:00023100       ??$__crt_interlocked_exchange_pointer@$$A6AXXZP6AXXZ@@YAP6AXXZPDS6AXXZQ6AXXZ@Z 10085100 f i libvcruntimed:purevirt.obj
 0002:00023110       ??$__crt_interlocked_read_pointer@$$A6AXXZ@@YAP6AXXZPDS6AXXZ@Z 10085110 f i libvcruntimed:purevirt.obj
 0002:00023130       __get_purecall_handler     10085130 f   libvcruntimed:purevirt.obj
 0002:00023150       __purecall                 10085150 f   libvcruntimed:purevirt.obj
 0002:00023190       __set_purecall_handler     10085190 f   libvcruntimed:purevirt.obj
 0002:000231b0       ??$?0AAViterator@TryBlockMap@__FrameHandler3@@AAV012@$0A@@?$pair@Viterator@TryBlockMap@__FrameHandler3@@V123@@std@@QAE@AAViterator@TryBlockMap@__FrameHandler3@@0@Z 100851b0 f i libvcruntimed:trnsctrl.obj
 0002:00023210       ??$forward@AAViterator@TryBlockMap@__FrameHandler3@@@std@@YAAAViterator@TryBlockMap@__FrameHandler3@@AAV123@@Z 10085210 f i libvcruntimed:trnsctrl.obj
 0002:00023220       ??0iterator@TryBlockMap@__FrameHandler3@@QAE@AAV12@I@Z 10085220 f i libvcruntimed:trnsctrl.obj
 0002:00023250       ?GetRangeOfTrysToCheck@__FrameHandler3@@SA?AU?$pair@Viterator@TryBlockMap@__FrameHandler3@@V123@@std@@AAVTryBlockMap@1@HPAXPBU_s_FuncInfo@@H@Z 10085250 f   libvcruntimed:trnsctrl.obj
 0002:00023370       ?_CallCatchBlock2@@YAPAXPAUEHRegistrationNode@@PBU_s_FuncInfo@@PAXHK@Z 10085370 f   libvcruntimed:trnsctrl.obj
 0002:00023400       ?_CallSETranslator@@YAHPAUEHExceptionRecord@@PAUEHRegistrationNode@@PAX2PBU_s_FuncInfo@@H1@Z 10085400 f   libvcruntimed:trnsctrl.obj
 0002:00023560       ?_JumpToContinuation@@YGXPAXPAUEHRegistrationNode@@@Z 10085560 f   libvcruntimed:trnsctrl.obj
 0002:000235a0       ?_UnwindNestedFrames@@YGXPAUEHRegistrationNode@@PAUEHExceptionRecord@@@Z 100855a0 f   libvcruntimed:trnsctrl.obj
 0002:00023610       __CatchGuardHandler        10085610 f   libvcruntimed:trnsctrl.obj
 0002:00023670       __CreateFrameInfo          10085670 f   libvcruntimed:trnsctrl.obj
 0002:000236b0       __FindAndUnlinkFrame       100856b0 f   libvcruntimed:trnsctrl.obj
 0002:00023740       __TranslatorGuardHandler   10085740 f   libvcruntimed:trnsctrl.obj
 0002:00023820       ___CxxFrameHandler         10085820 f   libvcruntimed:trnsctrl.obj
 0002:00023870       ___CxxFrameHandler2        10085870 f   libvcruntimed:trnsctrl.obj
 0002:000238c0       ___CxxFrameHandler3        100858c0 f   libvcruntimed:trnsctrl.obj
 0002:00023910       ___CxxLongjmpUnwind@4      10085910 f   libvcruntimed:trnsctrl.obj
 0002:00023960       ??$__crt_interlocked_exchange_pointer@UHINSTANCE__@@PAU1@@@YAPAUHINSTANCE__@@PDSAU0@QAU0@@Z 10085960 f i libvcruntimed:winapi_downlevel.obj
 0002:00023970       ??$__crt_interlocked_exchange_pointer@UHINSTANCE__@@PAX@@YAPAUHINSTANCE__@@PDSAU0@QAX@Z 10085970 f i libvcruntimed:winapi_downlevel.obj
 0002:00023980       ??$__crt_interlocked_exchange_pointer@XPAX@@YAPAXPDSAXQAX@Z 10085980 f i libvcruntimed:winapi_downlevel.obj
 0002:00023990       ??$__crt_interlocked_read_pointer@UHINSTANCE__@@@@YAPAUHINSTANCE__@@PDSAU0@@Z 10085990 f i libvcruntimed:winapi_downlevel.obj
 0002:000239b0       ??$__crt_interlocked_read_pointer@X@@YAPAXPDSAX@Z 100859b0 f i libvcruntimed:winapi_downlevel.obj
 0002:00023e80       ___vcrt_FlsAlloc           10085e80 f   libvcruntimed:winapi_downlevel.obj
 0002:00023ed0       ___vcrt_FlsFree            10085ed0 f   libvcruntimed:winapi_downlevel.obj
 0002:00023f20       ___vcrt_FlsGetValue        10085f20 f   libvcruntimed:winapi_downlevel.obj
 0002:00023f70       ___vcrt_FlsSetValue        10085f70 f   libvcruntimed:winapi_downlevel.obj
 0002:00023fd0       ___vcrt_InitializeCriticalSectionEx 10085fd0 f   libvcruntimed:winapi_downlevel.obj
 0002:00024e50       ??$TypeMatchHelper@V__FrameHandler3@@@@YAHPBU_s_HandlerType@@PBU_s_CatchableType@@PBU_s_ThrowInfo@@@Z 10086e50 f i libvcruntimed:frame.obj
 0002:00024f60       ??$__InternalCxxFrameHandler@V__FrameHandler3@@@@YA?AW4_EXCEPTION_DISPOSITION@@PAUEHExceptionRecord@@PAUEHRegistrationNode@@PAU_CONTEXT@@PAXPBU_s_FuncInfo@@H1E@Z 10086f60 f i libvcruntimed:frame.obj
 0002:00025190       ??$__InternalCxxFrameHandlerWrapper@V__FrameHandler3@@@@YA?AW4_EXCEPTION_DISPOSITION@@PAUEHExceptionRecord@@PAUEHRegistrationNode@@PAU_CONTEXT@@PAXPBU_s_FuncInfo@@H1E@Z 10087190 f i libvcruntimed:frame.obj
 0002:000251d0       ??0HandlerMap@__FrameHandler3@@QAE@PBU_s_TryBlockMapEntry@@II@Z 100871d0 f i libvcruntimed:frame.obj
 0002:00025200       ??0TryBlockMap@__FrameHandler3@@QAE@PBU_s_FuncInfo@@I@Z 10087200 f i libvcruntimed:frame.obj
 0002:00025230       ??0bad_exception@std@@QAE@ABV01@@Z 10087230 f i libvcruntimed:frame.obj
 0002:00025260       ??0bad_exception@std@@QAE@XZ 10087260 f i libvcruntimed:frame.obj
 0002:00025290       ??0exception@std@@QAE@ABV01@@Z 10087290 f i libvcruntimed:frame.obj
 0002:000252e0       ??0exception@std@@QAE@QBDH@Z 100872e0 f i libvcruntimed:frame.obj
 0002:00025320       ??0iterator@HandlerMap@__FrameHandler3@@QAE@AAV12@I@Z 10087320 f i libvcruntimed:frame.obj
 0002:00025350       ??1bad_exception@std@@UAE@XZ 10087350 f i libvcruntimed:frame.obj
 0002:00025370       ??1exception@std@@UAE@XZ   10087370 f i libvcruntimed:frame.obj
 0002:000253a0       ??8iterator@HandlerMap@__FrameHandler3@@QBE_NABV012@@Z 100873a0 f i libvcruntimed:frame.obj
 0002:000253e0       ??8type_info@@QBE_NABV0@@Z 100873e0 f i libvcruntimed:frame.obj
 0002:00025460       ??9iterator@HandlerMap@__FrameHandler3@@QBE_NABV012@@Z 10087460 f i libvcruntimed:frame.obj
 0002:000254b0       ??Diterator@HandlerMap@__FrameHandler3@@QAE?BU_s_HandlerType@@XZ 100874b0 f i libvcruntimed:frame.obj
 0002:00025500       ??Diterator@TryBlockMap@__FrameHandler3@@QAE?BU_s_TryBlockMapEntry@@XZ 10087500 f i libvcruntimed:frame.obj
 0002:00025560       ??Eiterator@HandlerMap@__FrameHandler3@@QAEAAV012@XZ 10087560 f i libvcruntimed:frame.obj
 0002:00025590       ??Eiterator@TryBlockMap@__FrameHandler3@@QAEAAV012@XZ 10087590 f i libvcruntimed:frame.obj
 0002:000255c0       ??Miterator@TryBlockMap@__FrameHandler3@@QBE_NABV012@@Z 100875c0 f i libvcruntimed:frame.obj
 0002:00025600       ??_Ebad_exception@std@@UAEPAXI@Z 10087600 f i libvcruntimed:frame.obj
 0002:00025600       ??_Gbad_exception@std@@UAEPAXI@Z 10087600 f i libvcruntimed:frame.obj
 0002:00025640       ??_Eexception@std@@UAEPAXI@Z 10087640 f i libvcruntimed:frame.obj
 0002:00025640       ??_Gexception@std@@UAEPAXI@Z 10087640 f i libvcruntimed:frame.obj
 0002:00025680       ?BuildCatchObject@__FrameHandler3@@SAXPAUEHExceptionRecord@@PAXPBU_s_HandlerType@@PBU_s_CatchableType@@@Z 10087680 f   libvcruntimed:frame.obj
 0002:000256b0       ?BuildCatchObjectHelper@__FrameHandler3@@SAHPAUEHExceptionRecord@@PAXPBU_s_HandlerType@@PBU_s_CatchableType@@@Z 100876b0 f   libvcruntimed:frame.obj
 0002:00025b30       ?FrameUnwindToEmptyState@__FrameHandler3@@SAXPAUEHRegistrationNode@@PAXPBU_s_FuncInfo@@@Z 10087b30 f   libvcruntimed:frame.obj
 0002:00025b60       ?FrameUnwindToState@__FrameHandler3@@SAXPAUEHRegistrationNode@@PAXPBU_s_FuncInfo@@H@Z 10087b60 f   libvcruntimed:frame.obj
 0002:00025d40       ?GetMaxState@__FrameHandler3@@SAHPAXPBU_s_FuncInfo@@@Z 10087d40 f i libvcruntimed:frame.obj
 0002:00025e90       ?TypeMatch@__FrameHandler3@@SAHPBU_s_HandlerType@@PBU_s_CatchableType@@PBU_s_ThrowInfo@@@Z 10087e90 f   libvcruntimed:frame.obj
 0002:00025eb0       ?_CallMemberFunction1@@YGXQAX00@Z 10087eb0 f i libvcruntimed:frame.obj
 0002:00025ee0       ?_CallMemberFunction2@@YGXQAX00H@Z 10087ee0 f i libvcruntimed:frame.obj
 0002:00025f10       ?begin@HandlerMap@__FrameHandler3@@QAE?AViterator@12@XZ 10087f10 f i libvcruntimed:frame.obj
 0002:00025f40       ?end@HandlerMap@__FrameHandler3@@QAE?AViterator@12@XZ 10087f40 f i libvcruntimed:frame.obj
 0002:00025f70       ?getESTypes@__FrameHandler3@@SAPBU_s_ESTypeList@@PBU_s_FuncInfo@@@Z 10087f70 f i libvcruntimed:frame.obj
 0002:00025f80       ?getLastEntry@HandlerMap@__FrameHandler3@@QAEPBU_s_HandlerType@@XZ 10087f80 f i libvcruntimed:frame.obj
 0002:00025fb0       ?getMagicNum@__FrameHandler3@@SAIPBU_s_FuncInfo@@@Z 10087fb0 f i libvcruntimed:frame.obj
 0002:00025fd0       ?getNumTryBlocks@TryBlockMap@__FrameHandler3@@QAEIXZ 10087fd0 f i libvcruntimed:frame.obj
 0002:00025ff0       ?isEHs@__FrameHandler3@@SA_NPBU_s_FuncInfo@@@Z 10087ff0 f i libvcruntimed:frame.obj
 0002:00026020       ?isNoExcept@__FrameHandler3@@SA_NPBU_s_FuncInfo@@@Z 10088020 f i libvcruntimed:frame.obj
 0002:00026050       ?what@exception@std@@UBEPBDXZ 10088050 f i libvcruntimed:frame.obj
 0002:00026090       ___BuildCatchObject        10088090 f   libvcruntimed:frame.obj
 0002:000260c0       ___BuildCatchObjectHelper  100880c0 f   libvcruntimed:frame.obj
 0002:000260f0       ___TypeMatch               100880f0 f   libvcruntimed:frame.obj
 0002:00026110       ___vcrt_EncodePointer      10088110 f i libvcruntimed:frame.obj
 0002:00026130       __CallSettingFrame@12      10088130 f   libvcruntimed:lowhelpr.obj
 0002:00026157       __NLG_Return               10088157     libvcruntimed:lowhelpr.obj
 0002:000261c0       __get_unexpected           100881c0 f   libvcruntimed:unexpected.obj
 0002:000261e0       _set_unexpected            100881e0 f   libvcruntimed:unexpected.obj
 0002:00026220       _unexpected                10088220 f   libvcruntimed:unexpected.obj
 0002:00026260       _memmove                   10088260 f   libvcruntimed:memmove.obj
 0002:00026940       ?GetCurrentState@__FrameHandler3@@SAHPAUEHRegistrationNode@@PAXPBU_s_FuncInfo@@@Z 10088940 f   libvcruntimed:ehstate.obj
 0002:00026980       ?SetState@__FrameHandler3@@SAXPAUEHRegistrationNode@@PBU_s_FuncInfo@@H@Z 10088980 f   libvcruntimed:ehstate.obj
 0002:000269a0       ??$?RD@__crt_public_free_policy@@QBEXQBD@Z 100889a0 f i libvcruntimed:std_exception.obj
 0002:000269c0       ??0?$__crt_unique_heap_ptr@DU__crt_public_free_policy@@@@QAE@QAD@Z 100889c0 f i libvcruntimed:std_exception.obj
 0002:000269e0       ??1?$__crt_unique_heap_ptr@DU__crt_public_free_policy@@@@QAE@XZ 100889e0 f i libvcruntimed:std_exception.obj
 0002:00026a00       ??B?$__crt_unique_heap_ptr@DU__crt_public_free_policy@@@@QBE_NXZ 10088a00 f i libvcruntimed:std_exception.obj
 0002:00026a20       ?detach@?$__crt_unique_heap_ptr@DU__crt_public_free_policy@@@@QAEPADXZ 10088a20 f i libvcruntimed:std_exception.obj
 0002:00026a50       ?get@?$__crt_unique_heap_ptr@DU__crt_public_free_policy@@@@QBEPADXZ 10088a50 f i libvcruntimed:std_exception.obj
 0002:00026a70       ?is_valid@?$__crt_unique_heap_ptr@DU__crt_public_free_policy@@@@QBE_NXZ 10088a70 f i libvcruntimed:std_exception.obj
 0002:00026ab0       ?release@?$__crt_unique_heap_ptr@DU__crt_public_free_policy@@@@QAEXXZ 10088ab0 f i libvcruntimed:std_exception.obj
 0002:00026ae0       ___std_exception_copy      10088ae0 f   libvcruntimed:std_exception.obj
 0002:00026c10       ___std_exception_destroy   10088c10 f   libvcruntimed:std_exception.obj
 0002:00026c50       __CxxThrowException@8      10088c50 f   libvcruntimed:throw.obj
 0002:00026d20       _pow                       10088d20 f   libucrtd:pow.obj
 0002:00026d80       _free                      10088d80 f   libucrtd:free.obj
 0002:00027040       ___control87_2             10089040 f   libucrtd:ieee87.obj
 0002:000271b0       ___fpreset_sse2            100891b0 f   libucrtd:ieee87.obj
 0002:00027600       __clearfp                  10089600 f   libucrtd:ieee87.obj
 0002:00027660       __control87                10089660 f   libucrtd:ieee87.obj
 0002:00027740       __controlfp                10089740 f   libucrtd:ieee87.obj
 0002:00027770       __fpreset                  10089770 f   libucrtd:ieee87.obj
 0002:000279a0       __invoke_watson_if_error   100899a0 f i libucrtd:ieee87.obj
 0002:000279e0       __set_controlfp            100899e0 f   libucrtd:ieee87.obj
 0002:00027a90       __statusfp                 10089a90 f   libucrtd:ieee87.obj
 0002:00027af0       __statusfp2                10089af0 f   libucrtd:ieee87.obj
 0002:00027b40       _calloc                    10089b40 f   libucrtd:calloc.obj
 0002:00027b70       _realloc                   10089b70 f   libucrtd:realloc.obj
 0002:00027ba0       ??$?B$$A6GXPAXK0@Z@__crt_fast_encoded_nullptr_t@@QBEP6GXPAXK0@ZXZ 10089ba0 f i libucrtd:exit.obj
 0002:00027cf0       ??$__crt_fast_decode_pointer@P6GXPAXK0@Z@@YAP6GXPAXK0@ZQ6GX0K0@Z@Z 10089cf0 f i libucrtd:exit.obj
 0002:00027d30       ??$__crt_fast_encode_pointer@P6GXPAXK0@Z@@YAP6GXPAXK0@ZQ6GX0K0@Z@Z 10089d30 f i libucrtd:exit.obj
 0002:00027d70       ??$__crt_get_proc_address@P6GXI@Z@@YAP6GXI@ZQAUHINSTANCE__@@QBD@Z 10089d70 f i libucrtd:exit.obj
 0002:00027d90       ??$__crt_interlocked_read@J@@YAJPDJ@Z 10089d90 f i libucrtd:exit.obj
 0002:00027e50       ??0?$__crt_unique_handle_t@U__crt_hmodule_traits@@@@QAE@QAUHINSTANCE__@@@Z 10089e50 f i libucrtd:exit.obj
 0002:00027e70       ??1?$__crt_unique_handle_t@U__crt_hmodule_traits@@@@QAE@XZ 10089e70 f i libucrtd:exit.obj
 0002:000280b0       ?__acrt_select_exit_lock@@YA?AW4__acrt_lock_id@@XZ 1008a0b0 f i libucrtd:exit.obj
 0002:000280c0       ?__crt_fast_encode_pointer@@YA?AU__crt_fast_encoded_nullptr_t@@$$T@Z 1008a0c0 f i libucrtd:exit.obj
 0002:000280d0       ?__crt_rotate_pointer_value@@YAIIH@Z 1008a0d0 f i libucrtd:exit.obj
 0002:00028110       ?close@?$__crt_unique_handle_t@U__crt_hmodule_traits@@@@QAEXXZ 1008a110 f i libucrtd:exit.obj
 0002:00028150       ?close@__crt_hmodule_traits@@SA_NPAUHINSTANCE__@@@Z 1008a150 f i libucrtd:exit.obj
 0002:000282c0       ?get@?$__crt_unique_handle_t@U__crt_hmodule_traits@@@@QBEPAUHINSTANCE__@@XZ 1008a2c0 f i libucrtd:exit.obj
 0002:000282e0       ?get_address_of@?$__crt_unique_handle_t@U__crt_hmodule_traits@@@@QAEPAPAUHINSTANCE__@@XZ 1008a2e0 f i libucrtd:exit.obj
 0002:00028300       ?get_invalid_value@__crt_hmodule_traits@@SAPAUHINSTANCE__@@XZ 1008a300 f i libucrtd:exit.obj
 0002:00028510       __Exit                     1008a510 f   libucrtd:exit.obj
 0002:00028530       ___acrt_initialize_thread_local_exit_callback 1008a530 f   libucrtd:exit.obj
 0002:00028550       __c_exit                   1008a550 f   libucrtd:exit.obj
 0002:00028570       __cexit                    1008a570 f   libucrtd:exit.obj
 0002:00028590       __exit                     1008a590 f   libucrtd:exit.obj
 0002:000285b0       __is_c_termination_complete 1008a5b0 f   libucrtd:exit.obj
 0002:000285d0       __register_thread_local_exe_atexit_callback 1008a5d0 f   libucrtd:exit.obj
 0002:00028620       _exit                      1008a620 f   libucrtd:exit.obj
 0002:00028640       _quick_exit                1008a640 f   libucrtd:exit.obj
 0002:00028d50       __time32                   1008ad50 f   libucrtd:time.obj
 0002:00028d70       __time64                   1008ad70 f   libucrtd:time.obj
 0002:00028d90       __timespec32_get           1008ad90 f   libucrtd:time.obj
 0002:00028db0       __timespec64_get           1008adb0 f   libucrtd:time.obj
 0002:00029090       ??$?R_W@__crt_public_free_policy@@QBEXQB_W@Z 1008b090 f i libucrtd:stat.obj
 0002:000290c0       ??$__acrt_convert_wcs_mbs_cp@D_WV<lambda_62f6974d9771e494a5ea317cc32e971c>@@U__crt_win32_buffer_internal_dynamic_resizing@@@@YAHQBDAAV?$__crt_win32_buffer@_WU__crt_win32_buffer_internal_dynamic_resizing@@@@ABV<lambda_62f6974d9771e494a5ea317cc32e971c>@@I@Z 1008b0c0 f i libucrtd:stat.obj
 0002:000294a0       ??$__acrt_mbs_to_wcs_cp@U__crt_win32_buffer_internal_dynamic_resizing@@@@YAHQBDAAV?$__crt_win32_buffer@_WU__crt_win32_buffer_internal_dynamic_resizing@@@@I@Z 1008b4a0 f i libucrtd:stat.obj
 0002:0002c280       ??$loctotime@AAGAAGAAGAAGAAGAAGH@?$__crt_integer_traits@J@@SAJAAG00000$$QAH@Z 1008e280 f i libucrtd:stat.obj
 0002:0002c2d0       ??$loctotime@AAGAAGAAGAAGAAGAAGH@?$__crt_integer_traits@_J@@SA_JAAG00000$$QAH@Z 1008e2d0 f i libucrtd:stat.obj
 0002:0002c320       ??$loctotime@HHHHHHH@?$__crt_integer_traits@J@@SAJ$$QAH000000@Z 1008e320 f i libucrtd:stat.obj
 0002:0002c370       ??$loctotime@HHHHHHH@?$__crt_integer_traits@_J@@SA_J$$QAH000000@Z 1008e370 f i libucrtd:stat.obj
 0002:0002c600       ??0?$__crt_unique_handle_t@U__crt_handle_traits@@@@QAE@QAX@Z 1008e600 f i libucrtd:stat.obj
 0002:0002c620       ??0?$__crt_unique_heap_ptr@_WU__crt_public_free_policy@@@@QAE@QA_W@Z 1008e620 f i libucrtd:stat.obj
 0002:0002c640       ??0?$__crt_win32_buffer@_WU__crt_win32_buffer_internal_dynamic_resizing@@@@QAE@XZ 1008e640 f i libucrtd:stat.obj
 0002:0002c6a0       ??0_LocaleUpdate@@QAE@QAU__crt_locale_pointers@@@Z 1008e6a0 f i libucrtd:stat.obj
 0002:0002c7b0       ??1?$__crt_unique_handle_t@U__crt_handle_traits@@@@QAE@XZ 1008e7b0 f i libucrtd:stat.obj
 0002:0002c7d0       ??1?$__crt_unique_heap_ptr@_WU__crt_public_free_policy@@@@QAE@XZ 1008e7d0 f i libucrtd:stat.obj
 0002:0002c7f0       ??1?$__crt_win32_buffer@_WU__crt_win32_buffer_internal_dynamic_resizing@@@@QAE@XZ 1008e7f0 f i libucrtd:stat.obj
 0002:0002c850       ??1_LocaleUpdate@@QAE@XZ   1008e850 f i libucrtd:stat.obj
 0002:0002c890       ??B?$__crt_unique_handle_t@U__crt_handle_traits@@@@QBE_NXZ 1008e890 f i libucrtd:stat.obj
 0002:0002ca90       ??R<lambda_62f6974d9771e494a5ea317cc32e971c>@@QBEHIQBDQA_WI@Z 1008ea90 f i libucrtd:stat.obj
 0002:0002cf80       ?GetLocaleT@_LocaleUpdate@@QAEPAU__crt_locale_pointers@@XZ 1008ef80 f i libucrtd:stat.obj
 0002:0002cfa0       ?__acrt_get_utf8_acp_compatibility_codepage@@YAIXZ 1008efa0 f i libucrtd:stat.obj
 0002:0002d050       ?_deallocate@?$__crt_win32_buffer@_WU__crt_win32_buffer_internal_dynamic_resizing@@@@AAEXXZ 1008f050 f i libucrtd:stat.obj
 0002:0002d0b0       ?allocate@?$__crt_win32_buffer@_WU__crt_win32_buffer_internal_dynamic_resizing@@@@QAEHI@Z 1008f0b0 f i libucrtd:stat.obj
 0002:0002d140       ?allocate@__crt_win32_buffer_internal_dynamic_resizing@@SAHQAPAXIABV__crt_win32_buffer_empty_debug_info@@@Z 1008f140 f i libucrtd:stat.obj
 0002:0002d230       ?capacity@?$__crt_win32_buffer@_WU__crt_win32_buffer_internal_dynamic_resizing@@@@QBEIXZ 1008f230 f i libucrtd:stat.obj
 0002:0002d250       ?close@?$__crt_unique_handle_t@U__crt_handle_traits@@@@QAEXXZ 1008f250 f i libucrtd:stat.obj
 0002:0002d290       ?close@__crt_handle_traits@@SA_NPAX@Z 1008f290 f i libucrtd:stat.obj
 0002:0002d4b0       ?data@?$__crt_win32_buffer@_WU__crt_win32_buffer_internal_dynamic_resizing@@@@QAEPA_WXZ 1008f4b0 f i libucrtd:stat.obj
 0002:0002d4d0       ?deallocate@__crt_win32_buffer_internal_dynamic_resizing@@SAXQAXABV__crt_win32_buffer_empty_debug_info@@@Z 1008f4d0 f i libucrtd:stat.obj
 0002:0002d4f0       ?debug_info@?$__crt_win32_buffer@_WU__crt_win32_buffer_internal_dynamic_resizing@@@@QBEABV__crt_win32_buffer_empty_debug_info@@XZ 1008f4f0 f i libucrtd:stat.obj
 0002:0002d510       ?get@?$__crt_unique_handle_t@U__crt_handle_traits@@@@QBEPAXXZ 1008f510 f i libucrtd:stat.obj
 0002:0002d530       ?get_address_of@?$__crt_unique_heap_ptr@_WU__crt_public_free_policy@@@@QAEPAPA_WXZ 1008f530 f i libucrtd:stat.obj
 0002:0002d610       ?get_invalid_value@__crt_handle_traits@@SAPAXXZ 1008f610 f i libucrtd:stat.obj
 0002:0002db10       ?is_valid@?$__crt_unique_handle_t@U__crt_handle_traits@@@@QBE_NXZ 1008fb10 f i libucrtd:stat.obj
 0002:0002db50       ?release@?$__crt_unique_heap_ptr@_WU__crt_public_free_policy@@@@QAEXXZ 1008fb50 f i libucrtd:stat.obj
 0002:0002db80       ?set_to_nullptr@?$__crt_win32_buffer@_WU__crt_win32_buffer_internal_dynamic_resizing@@@@QAEXXZ 1008fb80 f i libucrtd:stat.obj
 0002:0002dbc0       ?size@?$__crt_win32_buffer@_WU__crt_win32_buffer_internal_dynamic_resizing@@@@QAEXI@Z 1008fbc0 f i libucrtd:stat.obj
 0002:0002dbe0       ___acrt_disable_global_locale_sync 1008fbe0 f i libucrtd:stat.obj
 0002:0002dc10       ___acrt_enable_global_locale_sync 1008fc10 f i libucrtd:stat.obj
 0002:0002dc40       ___acrt_locale_changed     1008fc40 f i libucrtd:stat.obj
 0002:0002dc70       ___ascii_iswalpha          1008fc70 f i libucrtd:stat.obj
 0002:0002dcc0       ___ascii_tolower           1008fcc0 f i libucrtd:stat.obj
 0002:0002dcf0       ___ascii_towlower          1008fcf0 f i libucrtd:stat.obj
 0002:0002dd10       __fstat32                  1008fd10 f   libucrtd:stat.obj
 0002:0002dd30       __fstat32i64               1008fd30 f   libucrtd:stat.obj
 0002:0002dd50       __fstat64                  1008fd50 f   libucrtd:stat.obj
 0002:0002dd70       __fstat64i32               1008fd70 f   libucrtd:stat.obj
 0002:0002dd90       __stat32                   1008fd90 f   libucrtd:stat.obj
 0002:0002ddb0       __stat32i64                1008fdb0 f   libucrtd:stat.obj
 0002:0002ddd0       __stat64                   1008fdd0 f   libucrtd:stat.obj
 0002:0002ddf0       __stat64i32                1008fdf0 f   libucrtd:stat.obj
 0002:0002de10       __wstat32                  1008fe10 f   libucrtd:stat.obj
 0002:0002de30       __wstat32i64               1008fe30 f   libucrtd:stat.obj
 0002:0002de50       __wstat64                  1008fe50 f   libucrtd:stat.obj
 0002:0002de70       __wstat64i32               1008fe70 f   libucrtd:stat.obj
 0002:0002de90       ??$?RPAU__crt_stdio_stream_data@@@__crt_internal_free_policy@@QBEXQBQAU__crt_stdio_stream_data@@@Z 1008fe90 f i libucrtd:_file.obj
 0002:0002dec0       ??0?$__crt_unique_heap_ptr@PAU__crt_stdio_stream_data@@U__crt_internal_free_policy@@@@QAE@QAPAU__crt_stdio_stream_data@@@Z 1008fec0 f i libucrtd:_file.obj
 0002:0002dee0       ??0__crt_stdio_stream@@QAE@QAU_iobuf@@@Z 1008fee0 f i libucrtd:_file.obj
 0002:0002df00       ??1?$__crt_unique_heap_ptr@PAU__crt_stdio_stream_data@@U__crt_internal_free_policy@@@@QAE@XZ 1008ff00 f i libucrtd:_file.obj
 0002:0002df20       ??C__crt_stdio_stream@@QBEPAU__crt_stdio_stream_data@@XZ 1008ff20 f i libucrtd:_file.obj
 0002:0002df40       ?detach@?$__crt_unique_heap_ptr@PAU__crt_stdio_stream_data@@U__crt_internal_free_policy@@@@QAEPAPAU__crt_stdio_stream_data@@XZ 1008ff40 f i libucrtd:_file.obj
 0002:0002df70       ?release@?$__crt_unique_heap_ptr@PAU__crt_stdio_stream_data@@U__crt_internal_free_policy@@@@QAEXXZ 1008ff70 f i libucrtd:_file.obj
 0002:0002dfa0       ___acrt_initialize_stdio   1008ffa0 f   libucrtd:_file.obj
 0002:0002e170       ___acrt_iob_func           10090170 f   libucrtd:_file.obj
 0002:0002e190       ___acrt_uninitialize_stdio 10090190 f   libucrtd:_file.obj
 0002:0002e230       __get_stream_buffer_pointers 10090230 f   libucrtd:_file.obj
 0002:0002e340       __lock_file                10090340 f   libucrtd:_file.obj
 0002:0002e370       __unlock_file              10090370 f   libucrtd:_file.obj
 0002:0002e3a0       ??$?0ABV?$stream_output_adapter@D@__crt_stdio_output@@AB_KABQBDAAV__crt_cached_ptd_host@@ABQAD@?$format_validation_base@DV?$stream_output_adapter@D@__crt_stdio_output@@@__crt_stdio_output@@IAE@ABV?$stream_output_adapter@D@1@AB_KABQBDAAV__crt_cached_ptd_host@@ABQAD@Z 100903a0 f i libucrtd:output.obj
 0002:0002e3e0       ??$?0ABV?$stream_output_adapter@D@__crt_stdio_output@@AB_KABQBDAAV__crt_cached_ptd_host@@ABQAD@?$positional_parameter_base@DV?$stream_output_adapter@D@__crt_stdio_output@@@__crt_stdio_output@@IAE@ABV?$stream_output_adapter@D@1@AB_KABQBDAAV__crt_cached_ptd_host@@ABQAD@Z 100903e0 f i libucrtd:output.obj
 0002:0002e470       ??$?0ABV?$stream_output_adapter@D@__crt_stdio_output@@AB_KABQBDAAV__crt_cached_ptd_host@@ABQAD@?$standard_base@DV?$stream_output_adapter@D@__crt_stdio_output@@@__crt_stdio_output@@IAE@ABV?$stream_output_adapter@D@1@AB_KABQBDAAV__crt_cached_ptd_host@@ABQAD@Z 10090470 f i libucrtd:output.obj
 0002:0002e4d0       ??$?0ABV?$stream_output_adapter@_W@__crt_stdio_output@@AB_KABQB_WAAV__crt_cached_ptd_host@@ABQAD@?$format_validation_base@_WV?$stream_output_adapter@_W@__crt_stdio_output@@@__crt_stdio_output@@IAE@ABV?$stream_output_adapter@_W@1@AB_KABQB_WAAV__crt_cached_ptd_host@@ABQAD@Z 100904d0 f i libucrtd:output.obj
 0002:0002e510       ??$?0ABV?$stream_output_adapter@_W@__crt_stdio_output@@AB_KABQB_WAAV__crt_cached_ptd_host@@ABQAD@?$positional_parameter_base@_WV?$stream_output_adapter@_W@__crt_stdio_output@@@__crt_stdio_output@@IAE@ABV?$stream_output_adapter@_W@1@AB_KABQB_WAAV__crt_cached_ptd_host@@ABQAD@Z 10090510 f i libucrtd:output.obj
 0002:0002e5a0       ??$?0ABV?$stream_output_adapter@_W@__crt_stdio_output@@AB_KABQB_WAAV__crt_cached_ptd_host@@ABQAD@?$standard_base@_WV?$stream_output_adapter@_W@__crt_stdio_output@@@__crt_stdio_output@@IAE@ABV?$stream_output_adapter@_W@1@AB_KABQB_WAAV__crt_cached_ptd_host@@ABQAD@Z 100905a0 f i libucrtd:output.obj
 0002:0002e600       ??$?0ABV?$string_output_adapter@D@__crt_stdio_output@@AB_KABQBDAAV__crt_cached_ptd_host@@ABQAD@?$format_validation_base@DV?$string_output_adapter@D@__crt_stdio_output@@@__crt_stdio_output@@IAE@ABV?$string_output_adapter@D@1@AB_KABQBDAAV__crt_cached_ptd_host@@ABQAD@Z 10090600 f i libucrtd:output.obj
 0002:0002e640       ??$?0ABV?$string_output_adapter@D@__crt_stdio_output@@AB_KABQBDAAV__crt_cached_ptd_host@@ABQAD@?$positional_parameter_base@DV?$string_output_adapter@D@__crt_stdio_output@@@__crt_stdio_output@@IAE@ABV?$string_output_adapter@D@1@AB_KABQBDAAV__crt_cached_ptd_host@@ABQAD@Z 10090640 f i libucrtd:output.obj
 0002:0002e6d0       ??$?0ABV?$string_output_adapter@D@__crt_stdio_output@@AB_KABQBDAAV__crt_cached_ptd_host@@ABQAD@?$standard_base@DV?$string_output_adapter@D@__crt_stdio_output@@@__crt_stdio_output@@IAE@ABV?$string_output_adapter@D@1@AB_KABQBDAAV__crt_cached_ptd_host@@ABQAD@Z 100906d0 f i libucrtd:output.obj
 0002:0002e730       ??$?0ABV?$string_output_adapter@_W@__crt_stdio_output@@AB_KABQB_WAAV__crt_cached_ptd_host@@ABQAD@?$format_validation_base@_WV?$string_output_adapter@_W@__crt_stdio_output@@@__crt_stdio_output@@IAE@ABV?$string_output_adapter@_W@1@AB_KABQB_WAAV__crt_cached_ptd_host@@ABQAD@Z 10090730 f i libucrtd:output.obj
 0002:0002e770       ??$?0ABV?$string_output_adapter@_W@__crt_stdio_output@@AB_KABQB_WAAV__crt_cached_ptd_host@@ABQAD@?$positional_parameter_base@_WV?$string_output_adapter@_W@__crt_stdio_output@@@__crt_stdio_output@@IAE@ABV?$string_output_adapter@_W@1@AB_KABQB_WAAV__crt_cached_ptd_host@@ABQAD@Z 10090770 f i libucrtd:output.obj
 0002:0002e800       ??$?0ABV?$string_output_adapter@_W@__crt_stdio_output@@AB_KABQB_WAAV__crt_cached_ptd_host@@ABQAD@?$standard_base@_WV?$string_output_adapter@_W@__crt_stdio_output@@@__crt_stdio_output@@IAE@ABV?$string_output_adapter@_W@1@AB_KABQB_WAAV__crt_cached_ptd_host@@ABQAD@Z 10090800 f i libucrtd:output.obj
 0002:0002efe0       ??$_tcstol_internal@DPAPAD$0A@@@YAJAAV__crt_cached_ptd_host@@QBDQAPADH@Z 10090fe0 f i libucrtd:output.obj
 0002:0002f030       ??$_tcstol_internal@_WPAPA_W$0A@@@YAJAAV__crt_cached_ptd_host@@QB_WQAPA_WH@Z 10091030 f i libucrtd:output.obj
 0002:00032bd0       ??$count@D@formatting_buffer@__crt_stdio_output@@QBEIXZ 10094bd0 f i libucrtd:output.obj
 0002:00032c20       ??$count@_W@formatting_buffer@__crt_stdio_output@@QBEIXZ 10094c20 f i libucrtd:output.obj
 0002:00032c70       ??$data@D@formatting_buffer@__crt_stdio_output@@QAEPADXZ 10094c70 f i libucrtd:output.obj
 0002:00032cc0       ??$data@_W@formatting_buffer@__crt_stdio_output@@QAEPA_WXZ 10094cc0 f i libucrtd:output.obj
 0002:00032d10       ??$ensure_buffer_is_big_enough@D@formatting_buffer@__crt_stdio_output@@QAE_NIAAV__crt_cached_ptd_host@@@Z 10094d10 f i libucrtd:output.obj
 0002:00032e40       ??$ensure_buffer_is_big_enough@_W@formatting_buffer@__crt_stdio_output@@QAE_NIAAV__crt_cached_ptd_host@@@Z 10094e40 f i libucrtd:output.obj
 0002:00032f70       ??$extract_argument_from_va_list@C_J@?$positional_parameter_base@DV?$stream_output_adapter@D@__crt_stdio_output@@@__crt_stdio_output@@IAE_NAA_J@Z 10094f70 f i libucrtd:output.obj
 0002:00033130       ??$extract_argument_from_va_list@C_J@?$positional_parameter_base@DV?$string_output_adapter@D@__crt_stdio_output@@@__crt_stdio_output@@IAE_NAA_J@Z 10095130 f i libucrtd:output.obj
 0002:000332f0       ??$extract_argument_from_va_list@C_J@?$positional_parameter_base@_WV?$stream_output_adapter@_W@__crt_stdio_output@@@__crt_stdio_output@@IAE_NAA_J@Z 100952f0 f i libucrtd:output.obj
 0002:000334b0       ??$extract_argument_from_va_list@C_J@?$positional_parameter_base@_WV?$string_output_adapter@_W@__crt_stdio_output@@@__crt_stdio_output@@IAE_NAA_J@Z 100954b0 f i libucrtd:output.obj
 0002:00033670       ??$extract_argument_from_va_list@C_J@?$standard_base@DV?$stream_output_adapter@D@__crt_stdio_output@@@__crt_stdio_output@@IAE_NAA_J@Z 10095670 f i libucrtd:output.obj
 0002:000336b0       ??$extract_argument_from_va_list@C_J@?$standard_base@DV?$string_output_adapter@D@__crt_stdio_output@@@__crt_stdio_output@@IAE_NAA_J@Z 100956b0 f i libucrtd:output.obj
 0002:000336f0       ??$extract_argument_from_va_list@C_J@?$standard_base@_WV?$stream_output_adapter@_W@__crt_stdio_output@@@__crt_stdio_output@@IAE_NAA_J@Z 100956f0 f i libucrtd:output.obj
 0002:00033730       ??$extract_argument_from_va_list@C_J@?$standard_base@_WV?$string_output_adapter@_W@__crt_stdio_output@@@__crt_stdio_output@@IAE_NAA_J@Z 10095730 f i libucrtd:output.obj
 0002:00033770       ??$extract_argument_from_va_list@E_J@?$positional_parameter_base@DV?$stream_output_adapter@D@__crt_stdio_output@@@__crt_stdio_output@@IAE_NAA_J@Z 10095770 f i libucrtd:output.obj
 0002:00033930       ??$extract_argument_from_va_list@E_J@?$positional_parameter_base@DV?$string_output_adapter@D@__crt_stdio_output@@@__crt_stdio_output@@IAE_NAA_J@Z 10095930 f i libucrtd:output.obj
 0002:00033af0       ??$extract_argument_from_va_list@E_J@?$positional_parameter_base@_WV?$stream_output_adapter@_W@__crt_stdio_output@@@__crt_stdio_output@@IAE_NAA_J@Z 10095af0 f i libucrtd:output.obj
 0002:00033cb0       ??$extract_argument_from_va_list@E_J@?$positional_parameter_base@_WV?$string_output_adapter@_W@__crt_stdio_output@@@__crt_stdio_output@@IAE_NAA_J@Z 10095cb0 f i libucrtd:output.obj
 0002:00033e70       ??$extract_argument_from_va_list@E_J@?$standard_base@DV?$stream_output_adapter@D@__crt_stdio_output@@@__crt_stdio_output@@IAE_NAA_J@Z 10095e70 f i libucrtd:output.obj
 0002:00033eb0       ??$extract_argument_from_va_list@E_J@?$standard_base@DV?$string_output_adapter@D@__crt_stdio_output@@@__crt_stdio_output@@IAE_NAA_J@Z 10095eb0 f i libucrtd:output.obj
 0002:00033ef0       ??$extract_argument_from_va_list@E_J@?$standard_base@_WV?$stream_output_adapter@_W@__crt_stdio_output@@@__crt_stdio_output@@IAE_NAA_J@Z 10095ef0 f i libucrtd:output.obj
 0002:00033f30       ??$extract_argument_from_va_list@E_J@?$standard_base@_WV?$string_output_adapter@_W@__crt_stdio_output@@@__crt_stdio_output@@IAE_NAA_J@Z 10095f30 f i libucrtd:output.obj
 0002:00033f70       ??$extract_argument_from_va_list@F_J@?$positional_parameter_base@DV?$stream_output_adapter@D@__crt_stdio_output@@@__crt_stdio_output@@IAE_NAA_J@Z 10095f70 f i libucrtd:output.obj
 0002:00034130       ??$extract_argument_from_va_list@F_J@?$positional_parameter_base@DV?$string_output_adapter@D@__crt_stdio_output@@@__crt_stdio_output@@IAE_NAA_J@Z 10096130 f i libucrtd:output.obj
 0002:000342f0       ??$extract_argument_from_va_list@F_J@?$positional_parameter_base@_WV?$stream_output_adapter@_W@__crt_stdio_output@@@__crt_stdio_output@@IAE_NAA_J@Z 100962f0 f i libucrtd:output.obj
 0002:000344b0       ??$extract_argument_from_va_list@F_J@?$positional_parameter_base@_WV?$string_output_adapter@_W@__crt_stdio_output@@@__crt_stdio_output@@IAE_NAA_J@Z 100964b0 f i libucrtd:output.obj
 0002:00034670       ??$extract_argument_from_va_list@F_J@?$standard_base@DV?$stream_output_adapter@D@__crt_stdio_output@@@__crt_stdio_output@@IAE_NAA_J@Z 10096670 f i libucrtd:output.obj
 0002:000346b0       ??$extract_argument_from_va_list@F_J@?$standard_base@DV?$string_output_adapter@D@__crt_stdio_output@@@__crt_stdio_output@@IAE_NAA_J@Z 100966b0 f i libucrtd:output.obj
 0002:000346f0       ??$extract_argument_from_va_list@F_J@?$standard_base@_WV?$stream_output_adapter@_W@__crt_stdio_output@@@__crt_stdio_output@@IAE_NAA_J@Z 100966f0 f i libucrtd:output.obj
 0002:00034730       ??$extract_argument_from_va_list@F_J@?$standard_base@_WV?$string_output_adapter@_W@__crt_stdio_output@@@__crt_stdio_output@@IAE_NAA_J@Z 10096730 f i libucrtd:output.obj
 0002:00034770       ??$extract_argument_from_va_list@GD@?$positional_parameter_base@DV?$stream_output_adapter@D@__crt_stdio_output@@@__crt_stdio_output@@IAE_NAAD@Z 10096770 f i libucrtd:output.obj
 0002:00034920       ??$extract_argument_from_va_list@GD@?$positional_parameter_base@DV?$string_output_adapter@D@__crt_stdio_output@@@__crt_stdio_output@@IAE_NAAD@Z 10096920 f i libucrtd:output.obj
 0002:00034ad0       ??$extract_argument_from_va_list@GD@?$standard_base@DV?$stream_output_adapter@D@__crt_stdio_output@@@__crt_stdio_output@@IAE_NAAD@Z 10096ad0 f i libucrtd:output.obj
 0002:00034b00       ??$extract_argument_from_va_list@GD@?$standard_base@DV?$string_output_adapter@D@__crt_stdio_output@@@__crt_stdio_output@@IAE_NAAD@Z 10096b00 f i libucrtd:output.obj
 0002:00034b30       ??$extract_argument_from_va_list@G_J@?$positional_parameter_base@DV?$stream_output_adapter@D@__crt_stdio_output@@@__crt_stdio_output@@IAE_NAA_J@Z 10096b30 f i libucrtd:output.obj
 0002:00034cf0       ??$extract_argument_from_va_list@G_J@?$positional_parameter_base@DV?$string_output_adapter@D@__crt_stdio_output@@@__crt_stdio_output@@IAE_NAA_J@Z 10096cf0 f i libucrtd:output.obj
 0002:00034eb0       ??$extract_argument_from_va_list@G_J@?$positional_parameter_base@_WV?$stream_output_adapter@_W@__crt_stdio_output@@@__crt_stdio_output@@IAE_NAA_J@Z 10096eb0 f i libucrtd:output.obj
 0002:00035070       ??$extract_argument_from_va_list@G_J@?$positional_parameter_base@_WV?$string_output_adapter@_W@__crt_stdio_output@@@__crt_stdio_output@@IAE_NAA_J@Z 10097070 f i libucrtd:output.obj
 0002:00035230       ??$extract_argument_from_va_list@G_J@?$standard_base@DV?$stream_output_adapter@D@__crt_stdio_output@@@__crt_stdio_output@@IAE_NAA_J@Z 10097230 f i libucrtd:output.obj
 0002:00035270       ??$extract_argument_from_va_list@G_J@?$standard_base@DV?$string_output_adapter@D@__crt_stdio_output@@@__crt_stdio_output@@IAE_NAA_J@Z 10097270 f i libucrtd:output.obj
 0002:000352b0       ??$extract_argument_from_va_list@G_J@?$standard_base@_WV?$stream_output_adapter@_W@__crt_stdio_output@@@__crt_stdio_output@@IAE_NAA_J@Z 100972b0 f i libucrtd:output.obj
 0002:000352f0       ??$extract_argument_from_va_list@G_J@?$standard_base@_WV?$string_output_adapter@_W@__crt_stdio_output@@@__crt_stdio_output@@IAE_NAA_J@Z 100972f0 f i libucrtd:output.obj
 0002:00035330       ??$extract_argument_from_va_list@H_J@?$positional_parameter_base@DV?$stream_output_adapter@D@__crt_stdio_output@@@__crt_stdio_output@@IAE_NAA_J@Z 10097330 f i libucrtd:output.obj
 0002:000354f0       ??$extract_argument_from_va_list@H_J@?$positional_parameter_base@DV?$string_output_adapter@D@__crt_stdio_output@@@__crt_stdio_output@@IAE_NAA_J@Z 100974f0 f i libucrtd:output.obj
 0002:000356b0       ??$extract_argument_from_va_list@H_J@?$positional_parameter_base@_WV?$stream_output_adapter@_W@__crt_stdio_output@@@__crt_stdio_output@@IAE_NAA_J@Z 100976b0 f i libucrtd:output.obj
 0002:00035870       ??$extract_argument_from_va_list@H_J@?$positional_parameter_base@_WV?$string_output_adapter@_W@__crt_stdio_output@@@__crt_stdio_output@@IAE_NAA_J@Z 10097870 f i libucrtd:output.obj
 0002:00035a30       ??$extract_argument_from_va_list@H_J@?$standard_base@DV?$stream_output_adapter@D@__crt_stdio_output@@@__crt_stdio_output@@IAE_NAA_J@Z 10097a30 f i libucrtd:output.obj
 0002:00035a70       ??$extract_argument_from_va_list@H_J@?$standard_base@DV?$string_output_adapter@D@__crt_stdio_output@@@__crt_stdio_output@@IAE_NAA_J@Z 10097a70 f i libucrtd:output.obj
 0002:00035ab0       ??$extract_argument_from_va_list@H_J@?$standard_base@_WV?$stream_output_adapter@_W@__crt_stdio_output@@@__crt_stdio_output@@IAE_NAA_J@Z 10097ab0 f i libucrtd:output.obj
 0002:00035af0       ??$extract_argument_from_va_list@H_J@?$standard_base@_WV?$string_output_adapter@_W@__crt_stdio_output@@@__crt_stdio_output@@IAE_NAA_J@Z 10097af0 f i libucrtd:output.obj
 0002:00035b30       ??$extract_argument_from_va_list@I_J@?$positional_parameter_base@DV?$stream_output_adapter@D@__crt_stdio_output@@@__crt_stdio_output@@IAE_NAA_J@Z 10097b30 f i libucrtd:output.obj
 0002:00035cf0       ??$extract_argument_from_va_list@I_J@?$positional_parameter_base@DV?$string_output_adapter@D@__crt_stdio_output@@@__crt_stdio_output@@IAE_NAA_J@Z 10097cf0 f i libucrtd:output.obj
 0002:00035eb0       ??$extract_argument_from_va_list@I_J@?$positional_parameter_base@_WV?$stream_output_adapter@_W@__crt_stdio_output@@@__crt_stdio_output@@IAE_NAA_J@Z 10097eb0 f i libucrtd:output.obj
 0002:00036070       ??$extract_argument_from_va_list@I_J@?$positional_parameter_base@_WV?$string_output_adapter@_W@__crt_stdio_output@@@__crt_stdio_output@@IAE_NAA_J@Z 10098070 f i libucrtd:output.obj
 0002:00036230       ??$extract_argument_from_va_list@I_J@?$standard_base@DV?$stream_output_adapter@D@__crt_stdio_output@@@__crt_stdio_output@@IAE_NAA_J@Z 10098230 f i libucrtd:output.obj
 0002:00036270       ??$extract_argument_from_va_list@I_J@?$standard_base@DV?$string_output_adapter@D@__crt_stdio_output@@@__crt_stdio_output@@IAE_NAA_J@Z 10098270 f i libucrtd:output.obj
 0002:000362b0       ??$extract_argument_from_va_list@I_J@?$standard_base@_WV?$stream_output_adapter@_W@__crt_stdio_output@@@__crt_stdio_output@@IAE_NAA_J@Z 100982b0 f i libucrtd:output.obj
 0002:000362f0       ??$extract_argument_from_va_list@I_J@?$standard_base@_WV?$string_output_adapter@_W@__crt_stdio_output@@@__crt_stdio_output@@IAE_NAA_J@Z 100982f0 f i libucrtd:output.obj
 0002:00036330       ??$extract_argument_from_va_list@PADPAD@?$positional_parameter_base@DV?$stream_output_adapter@D@__crt_stdio_output@@@__crt_stdio_output@@IAE_NAAPAD@Z 10098330 f i libucrtd:output.obj
 0002:000364e0       ??$extract_argument_from_va_list@PADPAD@?$positional_parameter_base@DV?$string_output_adapter@D@__crt_stdio_output@@@__crt_stdio_output@@IAE_NAAPAD@Z 100984e0 f i libucrtd:output.obj
 0002:00036690       ??$extract_argument_from_va_list@PADPAD@?$positional_parameter_base@_WV?$stream_output_adapter@_W@__crt_stdio_output@@@__crt_stdio_output@@IAE_NAAPAD@Z 10098690 f i libucrtd:output.obj
 0002:00036850       ??$extract_argument_from_va_list@PADPAD@?$positional_parameter_base@_WV?$string_output_adapter@_W@__crt_stdio_output@@@__crt_stdio_output@@IAE_NAAPAD@Z 10098850 f i libucrtd:output.obj
 0002:00036a10       ??$extract_argument_from_va_list@PADPAD@?$standard_base@DV?$stream_output_adapter@D@__crt_stdio_output@@@__crt_stdio_output@@IAE_NAAPAD@Z 10098a10 f i libucrtd:output.obj
 0002:00036a40       ??$extract_argument_from_va_list@PADPAD@?$standard_base@DV?$string_output_adapter@D@__crt_stdio_output@@@__crt_stdio_output@@IAE_NAAPAD@Z 10098a40 f i libucrtd:output.obj
 0002:00036a70       ??$extract_argument_from_va_list@PADPAD@?$standard_base@_WV?$stream_output_adapter@_W@__crt_stdio_output@@@__crt_stdio_output@@IAE_NAAPAD@Z 10098a70 f i libucrtd:output.obj
 0002:00036aa0       ??$extract_argument_from_va_list@PADPAD@?$standard_base@_WV?$string_output_adapter@_W@__crt_stdio_output@@@__crt_stdio_output@@IAE_NAAPAD@Z 10098aa0 f i libucrtd:output.obj
 0002:00036ad0       ??$extract_argument_from_va_list@PAUansi_string@?1??type_case_Z@?$output_processor@DV?$stream_output_adapter@D@__crt_stdio_output@@V?$format_validation_base@DV?$stream_output_adapter@D@__crt_stdio_output@@@2@@__crt_stdio_output@@AAE_NXZ@PAU1?1??234@AAE_NXZ@@?$standard_base@DV?$stream_output_adapter@D@__crt_stdio_output@@@__crt_stdio_output@@IAE_NAAPAUansi_string@?1??type_case_Z@?$output_processor@DV?$stream_output_adapter@D@__crt_stdio_output@@V?$format_validation_base@DV?$stream_output_adapter@D@__crt_stdio_output@@@2@@1@AAE_NXZ@@Z 10098ad0 f i libucrtd:output.obj
 0002:00036b00       ??$extract_argument_from_va_list@PAUansi_string@?1??type_case_Z@?$output_processor@DV?$stream_output_adapter@D@__crt_stdio_output@@V?$positional_parameter_base@DV?$stream_output_adapter@D@__crt_stdio_output@@@2@@__crt_stdio_output@@AAE_NXZ@PAU1?1??234@AAE_NXZ@@?$positional_parameter_base@DV?$stream_output_adapter@D@__crt_stdio_output@@@__crt_stdio_output@@IAE_NAAPAUansi_string@?1??type_case_Z@?$output_processor@DV?$stream_output_adapter@D@__crt_stdio_output@@V?$positional_parameter_base@DV?$stream_output_adapter@D@__crt_stdio_output@@@2@@1@AAE_NXZ@@Z 10098b00 f i libucrtd:output.obj
 0002:00036cb0       ??$extract_argument_from_va_list@PAUansi_string@?1??type_case_Z@?$output_processor@DV?$stream_output_adapter@D@__crt_stdio_output@@V?$positional_parameter_base@DV?$stream_output_adapter@D@__crt_stdio_output@@@2@@__crt_stdio_output@@AAE_NXZ@PAU1?1??234@AAE_NXZ@@?$standard_base@DV?$stream_output_adapter@D@__crt_stdio_output@@@__crt_stdio_output@@IAE_NAAPAUansi_string@?1??type_case_Z@?$output_processor@DV?$stream_output_adapter@D@__crt_stdio_output@@V?$positional_parameter_base@DV?$stream_output_adapter@D@__crt_stdio_output@@@2@@1@AAE_NXZ@@Z 10098cb0 f i libucrtd:output.obj
 0002:00036ce0       ??$extract_argument_from_va_list@PAUansi_string@?1??type_case_Z@?$output_processor@DV?$stream_output_adapter@D@__crt_stdio_output@@V?$standard_base@DV?$stream_output_adapter@D@__crt_stdio_output@@@2@@__crt_stdio_output@@AAE_NXZ@PAU1?1??234@AAE_NXZ@@?$standard_base@DV?$stream_output_adapter@D@__crt_stdio_output@@@__crt_stdio_output@@IAE_NAAPAUansi_string@?1??type_case_Z@?$output_processor@DV?$stream_output_adapter@D@__crt_stdio_output@@V?$standard_base@DV?$stream_output_adapter@D@__crt_stdio_output@@@2@@1@AAE_NXZ@@Z 10098ce0 f i libucrtd:output.obj
 0002:00036d10       ??$extract_argument_from_va_list@PAUansi_string@?1??type_case_Z@?$output_processor@DV?$string_output_adapter@D@__crt_stdio_output@@V?$format_validation_base@DV?$string_output_adapter@D@__crt_stdio_output@@@2@@__crt_stdio_output@@AAE_NXZ@PAU1?1??234@AAE_NXZ@@?$standard_base@DV?$string_output_adapter@D@__crt_stdio_output@@@__crt_stdio_output@@IAE_NAAPAUansi_string@?1??type_case_Z@?$output_processor@DV?$string_output_adapter@D@__crt_stdio_output@@V?$format_validation_base@DV?$string_output_adapter@D@__crt_stdio_output@@@2@@1@AAE_NXZ@@Z 10098d10 f i libucrtd:output.obj
 0002:00036d40       ??$extract_argument_from_va_list@PAUansi_string@?1??type_case_Z@?$output_processor@DV?$string_output_adapter@D@__crt_stdio_output@@V?$positional_parameter_base@DV?$string_output_adapter@D@__crt_stdio_output@@@2@@__crt_stdio_output@@AAE_NXZ@PAU1?1??234@AAE_NXZ@@?$positional_parameter_base@DV?$string_output_adapter@D@__crt_stdio_output@@@__crt_stdio_output@@IAE_NAAPAUansi_string@?1??type_case_Z@?$output_processor@DV?$string_output_adapter@D@__crt_stdio_output@@V?$positional_parameter_base@DV?$string_output_adapter@D@__crt_stdio_output@@@2@@1@AAE_NXZ@@Z 10098d40 f i libucrtd:output.obj
 0002:00036ef0       ??$extract_argument_from_va_list@PAUansi_string@?1??type_case_Z@?$output_processor@DV?$string_output_adapter@D@__crt_stdio_output@@V?$positional_parameter_base@DV?$string_output_adapter@D@__crt_stdio_output@@@2@@__crt_stdio_output@@AAE_NXZ@PAU1?1??234@AAE_NXZ@@?$standard_base@DV?$string_output_adapter@D@__crt_stdio_output@@@__crt_stdio_output@@IAE_NAAPAUansi_string@?1??type_case_Z@?$output_processor@DV?$string_output_adapter@D@__crt_stdio_output@@V?$positional_parameter_base@DV?$string_output_adapter@D@__crt_stdio_output@@@2@@1@AAE_NXZ@@Z 10098ef0 f i libucrtd:output.obj
 0002:00036f20       ??$extract_argument_from_va_list@PAUansi_string@?1??type_case_Z@?$output_processor@DV?$string_output_adapter@D@__crt_stdio_output@@V?$standard_base@DV?$string_output_adapter@D@__crt_stdio_output@@@2@@__crt_stdio_output@@AAE_NXZ@PAU1?1??234@AAE_NXZ@@?$standard_base@DV?$string_output_adapter@D@__crt_stdio_output@@@__crt_stdio_output@@IAE_NAAPAUansi_string@?1??type_case_Z@?$output_processor@DV?$string_output_adapter@D@__crt_stdio_output@@V?$standard_base@DV?$string_output_adapter@D@__crt_stdio_output@@@2@@1@AAE_NXZ@@Z 10098f20 f i libucrtd:output.obj
 0002:00036f50       ??$extract_argument_from_va_list@PAUansi_string@?1??type_case_Z@?$output_processor@_WV?$stream_output_adapter@_W@__crt_stdio_output@@V?$format_validation_base@_WV?$stream_output_adapter@_W@__crt_stdio_output@@@2@@__crt_stdio_output@@AAE_NXZ@PAU1?1??234@AAE_NXZ@@?$standard_base@_WV?$stream_output_adapter@_W@__crt_stdio_output@@@__crt_stdio_output@@IAE_NAAPAUansi_string@?1??type_case_Z@?$output_processor@_WV?$stream_output_adapter@_W@__crt_stdio_output@@V?$format_validation_base@_WV?$stream_output_adapter@_W@__crt_stdio_output@@@2@@1@AAE_NXZ@@Z 10098f50 f i libucrtd:output.obj
 0002:00036f80       ??$extract_argument_from_va_list@PAUansi_string@?1??type_case_Z@?$output_processor@_WV?$stream_output_adapter@_W@__crt_stdio_output@@V?$positional_parameter_base@_WV?$stream_output_adapter@_W@__crt_stdio_output@@@2@@__crt_stdio_output@@AAE_NXZ@PAU1?1??234@AAE_NXZ@@?$positional_parameter_base@_WV?$stream_output_adapter@_W@__crt_stdio_output@@@__crt_stdio_output@@IAE_NAAPAUansi_string@?1??type_case_Z@?$output_processor@_WV?$stream_output_adapter@_W@__crt_stdio_output@@V?$positional_parameter_base@_WV?$stream_output_adapter@_W@__crt_stdio_output@@@2@@1@AAE_NXZ@@Z 10098f80 f i libucrtd:output.obj
 0002:00037140       ??$extract_argument_from_va_list@PAUansi_string@?1??type_case_Z@?$output_processor@_WV?$stream_output_adapter@_W@__crt_stdio_output@@V?$positional_parameter_base@_WV?$stream_output_adapter@_W@__crt_stdio_output@@@2@@__crt_stdio_output@@AAE_NXZ@PAU1?1??234@AAE_NXZ@@?$standard_base@_WV?$stream_output_adapter@_W@__crt_stdio_output@@@__crt_stdio_output@@IAE_NAAPAUansi_string@?1??type_case_Z@?$output_processor@_WV?$stream_output_adapter@_W@__crt_stdio_output@@V?$positional_parameter_base@_WV?$stream_output_adapter@_W@__crt_stdio_output@@@2@@1@AAE_NXZ@@Z 10099140 f i libucrtd:output.obj
 0002:00037170       ??$extract_argument_from_va_list@PAUansi_string@?1??type_case_Z@?$output_processor@_WV?$stream_output_adapter@_W@__crt_stdio_output@@V?$standard_base@_WV?$stream_output_adapter@_W@__crt_stdio_output@@@2@@__crt_stdio_output@@AAE_NXZ@PAU1?1??234@AAE_NXZ@@?$standard_base@_WV?$stream_output_adapter@_W@__crt_stdio_output@@@__crt_stdio_output@@IAE_NAAPAUansi_string@?1??type_case_Z@?$output_processor@_WV?$stream_output_adapter@_W@__crt_stdio_output@@V?$standard_base@_WV?$stream_output_adapter@_W@__crt_stdio_output@@@2@@1@AAE_NXZ@@Z 10099170 f i libucrtd:output.obj
 0002:000371a0       ??$extract_argument_from_va_list@PAUansi_string@?1??type_case_Z@?$output_processor@_WV?$string_output_adapter@_W@__crt_stdio_output@@V?$format_validation_base@_WV?$string_output_adapter@_W@__crt_stdio_output@@@2@@__crt_stdio_output@@AAE_NXZ@PAU1?1??234@AAE_NXZ@@?$standard_base@_WV?$string_output_adapter@_W@__crt_stdio_output@@@__crt_stdio_output@@IAE_NAAPAUansi_string@?1??type_case_Z@?$output_processor@_WV?$string_output_adapter@_W@__crt_stdio_output@@V?$format_validation_base@_WV?$string_output_adapter@_W@__crt_stdio_output@@@2@@1@AAE_NXZ@@Z 100991a0 f i libucrtd:output.obj
 0002:000371d0       ??$extract_argument_from_va_list@PAUansi_string@?1??type_case_Z@?$output_processor@_WV?$string_output_adapter@_W@__crt_stdio_output@@V?$positional_parameter_base@_WV?$string_output_adapter@_W@__crt_stdio_output@@@2@@__crt_stdio_output@@AAE_NXZ@PAU1?1??234@AAE_NXZ@@?$positional_parameter_base@_WV?$string_output_adapter@_W@__crt_stdio_output@@@__crt_stdio_output@@IAE_NAAPAUansi_string@?1??type_case_Z@?$output_processor@_WV?$string_output_adapter@_W@__crt_stdio_output@@V?$positional_parameter_base@_WV?$string_output_adapter@_W@__crt_stdio_output@@@2@@1@AAE_NXZ@@Z 100991d0 f i libucrtd:output.obj
 0002:00037390       ??$extract_argument_from_va_list@PAUansi_string@?1??type_case_Z@?$output_processor@_WV?$string_output_adapter@_W@__crt_stdio_output@@V?$positional_parameter_base@_WV?$string_output_adapter@_W@__crt_stdio_output@@@2@@__crt_stdio_output@@AAE_NXZ@PAU1?1??234@AAE_NXZ@@?$standard_base@_WV?$string_output_adapter@_W@__crt_stdio_output@@@__crt_stdio_output@@IAE_NAAPAUansi_string@?1??type_case_Z@?$output_processor@_WV?$string_output_adapter@_W@__crt_stdio_output@@V?$positional_parameter_base@_WV?$string_output_adapter@_W@__crt_stdio_output@@@2@@1@AAE_NXZ@@Z 10099390 f i libucrtd:output.obj
 0002:000373c0       ??$extract_argument_from_va_list@PAUansi_string@?1??type_case_Z@?$output_processor@_WV?$string_output_adapter@_W@__crt_stdio_output@@V?$standard_base@_WV?$string_output_adapter@_W@__crt_stdio_output@@@2@@__crt_stdio_output@@AAE_NXZ@PAU1?1??234@AAE_NXZ@@?$standard_base@_WV?$string_output_adapter@_W@__crt_stdio_output@@@__crt_stdio_output@@IAE_NAAPAUansi_string@?1??type_case_Z@?$output_processor@_WV?$string_output_adapter@_W@__crt_stdio_output@@V?$standard_base@_WV?$string_output_adapter@_W@__crt_stdio_output@@@2@@1@AAE_NXZ@@Z 100993c0 f i libucrtd:output.obj
 0002:000373f0       ??$extract_argument_from_va_list@PAXPAX@?$positional_parameter_base@DV?$stream_output_adapter@D@__crt_stdio_output@@@__crt_stdio_output@@IAE_NAAPAX@Z 100993f0 f i libucrtd:output.obj
 0002:000375a0       ??$extract_argument_from_va_list@PAXPAX@?$positional_parameter_base@DV?$string_output_adapter@D@__crt_stdio_output@@@__crt_stdio_output@@IAE_NAAPAX@Z 100995a0 f i libucrtd:output.obj
 0002:00037750       ??$extract_argument_from_va_list@PAXPAX@?$positional_parameter_base@_WV?$stream_output_adapter@_W@__crt_stdio_output@@@__crt_stdio_output@@IAE_NAAPAX@Z 10099750 f i libucrtd:output.obj
 0002:00037910       ??$extract_argument_from_va_list@PAXPAX@?$positional_parameter_base@_WV?$string_output_adapter@_W@__crt_stdio_output@@@__crt_stdio_output@@IAE_NAAPAX@Z 10099910 f i libucrtd:output.obj
 0002:00037ad0       ??$extract_argument_from_va_list@PAXPAX@?$standard_base@DV?$stream_output_adapter@D@__crt_stdio_output@@@__crt_stdio_output@@IAE_NAAPAX@Z 10099ad0 f i libucrtd:output.obj
 0002:00037b00       ??$extract_argument_from_va_list@PAXPAX@?$standard_base@DV?$string_output_adapter@D@__crt_stdio_output@@@__crt_stdio_output@@IAE_NAAPAX@Z 10099b00 f i libucrtd:output.obj
 0002:00037b30       ??$extract_argument_from_va_list@PAXPAX@?$standard_base@_WV?$stream_output_adapter@_W@__crt_stdio_output@@@__crt_stdio_output@@IAE_NAAPAX@Z 10099b30 f i libucrtd:output.obj
 0002:00037b60       ??$extract_argument_from_va_list@PAXPAX@?$standard_base@_WV?$string_output_adapter@_W@__crt_stdio_output@@@__crt_stdio_output@@IAE_NAAPAX@Z 10099b60 f i libucrtd:output.obj
 0002:00037b90       ??$extract_argument_from_va_list@U_CRT_DOUBLE@@U1@@?$positional_parameter_base@DV?$stream_output_adapter@D@__crt_stdio_output@@@__crt_stdio_output@@IAE_NAAU_CRT_DOUBLE@@@Z 10099b90 f i libucrtd:output.obj
 0002:00037d80       ??$extract_argument_from_va_list@U_CRT_DOUBLE@@U1@@?$positional_parameter_base@DV?$string_output_adapter@D@__crt_stdio_output@@@__crt_stdio_output@@IAE_NAAU_CRT_DOUBLE@@@Z 10099d80 f i libucrtd:output.obj
 0002:00037f70       ??$extract_argument_from_va_list@U_CRT_DOUBLE@@U1@@?$positional_parameter_base@_WV?$stream_output_adapter@_W@__crt_stdio_output@@@__crt_stdio_output@@IAE_NAAU_CRT_DOUBLE@@@Z 10099f70 f i libucrtd:output.obj
 0002:00038160       ??$extract_argument_from_va_list@U_CRT_DOUBLE@@U1@@?$positional_parameter_base@_WV?$string_output_adapter@_W@__crt_stdio_output@@@__crt_stdio_output@@IAE_NAAU_CRT_DOUBLE@@@Z 1009a160 f i libucrtd:output.obj
 0002:00038350       ??$extract_argument_from_va_list@U_CRT_DOUBLE@@U1@@?$standard_base@DV?$stream_output_adapter@D@__crt_stdio_output@@@__crt_stdio_output@@IAE_NAAU_CRT_DOUBLE@@@Z 1009a350 f i libucrtd:output.obj
 0002:000383b0       ??$extract_argument_from_va_list@U_CRT_DOUBLE@@U1@@?$standard_base@DV?$string_output_adapter@D@__crt_stdio_output@@@__crt_stdio_output@@IAE_NAAU_CRT_DOUBLE@@@Z 1009a3b0 f i libucrtd:output.obj
 0002:00038410       ??$extract_argument_from_va_list@U_CRT_DOUBLE@@U1@@?$standard_base@_WV?$stream_output_adapter@_W@__crt_stdio_output@@@__crt_stdio_output@@IAE_NAAU_CRT_DOUBLE@@@Z 1009a410 f i libucrtd:output.obj
 0002:00038470       ??$extract_argument_from_va_list@U_CRT_DOUBLE@@U1@@?$standard_base@_WV?$string_output_adapter@_W@__crt_stdio_output@@@__crt_stdio_output@@IAE_NAAU_CRT_DOUBLE@@@Z 1009a470 f i libucrtd:output.obj
 0002:000384d0       ??$extract_argument_from_va_list@_J_J@?$positional_parameter_base@DV?$stream_output_adapter@D@__crt_stdio_output@@@__crt_stdio_output@@IAE_NAA_J@Z 1009a4d0 f i libucrtd:output.obj
 0002:00038690       ??$extract_argument_from_va_list@_J_J@?$positional_parameter_base@DV?$string_output_adapter@D@__crt_stdio_output@@@__crt_stdio_output@@IAE_NAA_J@Z 1009a690 f i libucrtd:output.obj
 0002:00038850       ??$extract_argument_from_va_list@_J_J@?$positional_parameter_base@_WV?$stream_output_adapter@_W@__crt_stdio_output@@@__crt_stdio_output@@IAE_NAA_J@Z 1009a850 f i libucrtd:output.obj
 0002:00038a10       ??$extract_argument_from_va_list@_J_J@?$positional_parameter_base@_WV?$string_output_adapter@_W@__crt_stdio_output@@@__crt_stdio_output@@IAE_NAA_J@Z 1009aa10 f i libucrtd:output.obj
 0002:00038bd0       ??$extract_argument_from_va_list@_J_J@?$standard_base@DV?$stream_output_adapter@D@__crt_stdio_output@@@__crt_stdio_output@@IAE_NAA_J@Z 1009abd0 f i libucrtd:output.obj
 0002:00038c10       ??$extract_argument_from_va_list@_J_J@?$standard_base@DV?$string_output_adapter@D@__crt_stdio_output@@@__crt_stdio_output@@IAE_NAA_J@Z 1009ac10 f i libucrtd:output.obj
 0002:00038c50       ??$extract_argument_from_va_list@_J_J@?$standard_base@_WV?$stream_output_adapter@_W@__crt_stdio_output@@@__crt_stdio_output@@IAE_NAA_J@Z 1009ac50 f i libucrtd:output.obj
 0002:00038c90       ??$extract_argument_from_va_list@_J_J@?$standard_base@_WV?$string_output_adapter@_W@__crt_stdio_output@@@__crt_stdio_output@@IAE_NAA_J@Z 1009ac90 f i libucrtd:output.obj
 0002:00038cd0       ??$extract_argument_from_va_list@_K_J@?$positional_parameter_base@DV?$stream_output_adapter@D@__crt_stdio_output@@@__crt_stdio_output@@IAE_NAA_J@Z 1009acd0 f i libucrtd:output.obj
 0002:00038e90       ??$extract_argument_from_va_list@_K_J@?$positional_parameter_base@DV?$string_output_adapter@D@__crt_stdio_output@@@__crt_stdio_output@@IAE_NAA_J@Z 1009ae90 f i libucrtd:output.obj
 0002:00039050       ??$extract_argument_from_va_list@_K_J@?$positional_parameter_base@_WV?$stream_output_adapter@_W@__crt_stdio_output@@@__crt_stdio_output@@IAE_NAA_J@Z 1009b050 f i libucrtd:output.obj
 0002:00039210       ??$extract_argument_from_va_list@_K_J@?$positional_parameter_base@_WV?$string_output_adapter@_W@__crt_stdio_output@@@__crt_stdio_output@@IAE_NAA_J@Z 1009b210 f i libucrtd:output.obj
 0002:000393d0       ??$extract_argument_from_va_list@_K_J@?$standard_base@DV?$stream_output_adapter@D@__crt_stdio_output@@@__crt_stdio_output@@IAE_NAA_J@Z 1009b3d0 f i libucrtd:output.obj
 0002:00039410       ??$extract_argument_from_va_list@_K_J@?$standard_base@DV?$string_output_adapter@D@__crt_stdio_output@@@__crt_stdio_output@@IAE_NAA_J@Z 1009b410 f i libucrtd:output.obj
 0002:00039450       ??$extract_argument_from_va_list@_K_J@?$standard_base@_WV?$stream_output_adapter@_W@__crt_stdio_output@@@__crt_stdio_output@@IAE_NAA_J@Z 1009b450 f i libucrtd:output.obj
 0002:00039490       ??$extract_argument_from_va_list@_K_J@?$standard_base@_WV?$string_output_adapter@_W@__crt_stdio_output@@@__crt_stdio_output@@IAE_NAA_J@Z 1009b490 f i libucrtd:output.obj
 0002:000394d0       ??$extract_argument_from_va_list@_W_W@?$positional_parameter_base@DV?$stream_output_adapter@D@__crt_stdio_output@@@__crt_stdio_output@@IAE_NAA_W@Z 1009b4d0 f i libucrtd:output.obj
 0002:00039680       ??$extract_argument_from_va_list@_W_W@?$positional_parameter_base@DV?$string_output_adapter@D@__crt_stdio_output@@@__crt_stdio_output@@IAE_NAA_W@Z 1009b680 f i libucrtd:output.obj
 0002:00039830       ??$extract_argument_from_va_list@_W_W@?$positional_parameter_base@_WV?$stream_output_adapter@_W@__crt_stdio_output@@@__crt_stdio_output@@IAE_NAA_W@Z 1009b830 f i libucrtd:output.obj
 0002:000399f0       ??$extract_argument_from_va_list@_W_W@?$positional_parameter_base@_WV?$string_output_adapter@_W@__crt_stdio_output@@@__crt_stdio_output@@IAE_NAA_W@Z 1009b9f0 f i libucrtd:output.obj
 0002:00039bb0       ??$extract_argument_from_va_list@_W_W@?$standard_base@DV?$stream_output_adapter@D@__crt_stdio_output@@@__crt_stdio_output@@IAE_NAA_W@Z 1009bbb0 f i libucrtd:output.obj
 0002:00039be0       ??$extract_argument_from_va_list@_W_W@?$standard_base@DV?$string_output_adapter@D@__crt_stdio_output@@@__crt_stdio_output@@IAE_NAA_W@Z 1009bbe0 f i libucrtd:output.obj
 0002:00039c10       ??$extract_argument_from_va_list@_W_W@?$standard_base@_WV?$stream_output_adapter@_W@__crt_stdio_output@@@__crt_stdio_output@@IAE_NAA_W@Z 1009bc10 f i libucrtd:output.obj
 0002:00039c40       ??$extract_argument_from_va_list@_W_W@?$standard_base@_WV?$string_output_adapter@_W@__crt_stdio_output@@@__crt_stdio_output@@IAE_NAA_W@Z 1009bc40 f i libucrtd:output.obj
 0002:00039c70       ??$get_parameter_type@D@?$positional_parameter_base@DV?$stream_output_adapter@D@__crt_stdio_output@@@__crt_stdio_output@@CA?AW4parameter_type@01@PAD@Z 1009bc70 f i libucrtd:output.obj
 0002:00039c80       ??$get_parameter_type@D@?$positional_parameter_base@DV?$string_output_adapter@D@__crt_stdio_output@@@__crt_stdio_output@@CA?AW4parameter_type@01@PAD@Z 1009bc80 f i libucrtd:output.obj
 0002:00039c90       ??$get_parameter_type@D@?$positional_parameter_base@_WV?$stream_output_adapter@_W@__crt_stdio_output@@@__crt_stdio_output@@CA?AW4parameter_type@01@PAD@Z 1009bc90 f i libucrtd:output.obj
 0002:00039ca0       ??$get_parameter_type@D@?$positional_parameter_base@_WV?$string_output_adapter@_W@__crt_stdio_output@@@__crt_stdio_output@@CA?AW4parameter_type@01@PAD@Z 1009bca0 f i libucrtd:output.obj
 0002:00039cb0       ??$get_parameter_type@Uansi_string@?1??type_case_Z@?$output_processor@DV?$stream_output_adapter@D@__crt_stdio_output@@V?$positional_parameter_base@DV?$stream_output_adapter@D@__crt_stdio_output@@@2@@__crt_stdio_output@@AAE_NXZ@@?$positional_parameter_base@DV?$stream_output_adapter@D@__crt_stdio_output@@@__crt_stdio_output@@CA?AW4parameter_type@01@PAUansi_string@?1??type_case_Z@?$output_processor@DV?$stream_output_adapter@D@__crt_stdio_output@@V?$positional_parameter_base@DV?$stream_output_adapter@D@__crt_stdio_output@@@2@@1@AAE_NXZ@@Z 1009bcb0 f i libucrtd:output.obj
 0002:00039cc0       ??$get_parameter_type@Uansi_string@?1??type_case_Z@?$output_processor@DV?$string_output_adapter@D@__crt_stdio_output@@V?$positional_parameter_base@DV?$string_output_adapter@D@__crt_stdio_output@@@2@@__crt_stdio_output@@AAE_NXZ@@?$positional_parameter_base@DV?$string_output_adapter@D@__crt_stdio_output@@@__crt_stdio_output@@CA?AW4parameter_type@01@PAUansi_string@?1??type_case_Z@?$output_processor@DV?$string_output_adapter@D@__crt_stdio_output@@V?$positional_parameter_base@DV?$string_output_adapter@D@__crt_stdio_output@@@2@@1@AAE_NXZ@@Z 1009bcc0 f i libucrtd:output.obj
 0002:00039cd0       ??$get_parameter_type@Uansi_string@?1??type_case_Z@?$output_processor@_WV?$stream_output_adapter@_W@__crt_stdio_output@@V?$positional_parameter_base@_WV?$stream_output_adapter@_W@__crt_stdio_output@@@2@@__crt_stdio_output@@AAE_NXZ@@?$positional_parameter_base@_WV?$stream_output_adapter@_W@__crt_stdio_output@@@__crt_stdio_output@@CA?AW4parameter_type@01@PAUansi_string@?1??type_case_Z@?$output_processor@_WV?$stream_output_adapter@_W@__crt_stdio_output@@V?$positional_parameter_base@_WV?$stream_output_adapter@_W@__crt_stdio_output@@@2@@1@AAE_NXZ@@Z 1009bcd0 f i libucrtd:output.obj
 0002:00039ce0       ??$get_parameter_type@Uansi_string@?1??type_case_Z@?$output_processor@_WV?$string_output_adapter@_W@__crt_stdio_output@@V?$positional_parameter_base@_WV?$string_output_adapter@_W@__crt_stdio_output@@@2@@__crt_stdio_output@@AAE_NXZ@@?$positional_parameter_base@_WV?$string_output_adapter@_W@__crt_stdio_output@@@__crt_stdio_output@@CA?AW4parameter_type@01@PAUansi_string@?1??type_case_Z@?$output_processor@_WV?$string_output_adapter@_W@__crt_stdio_output@@V?$positional_parameter_base@_WV?$string_output_adapter@_W@__crt_stdio_output@@@2@@1@AAE_NXZ@@Z 1009bce0 f i libucrtd:output.obj
 0002:00039cf0       ??$get_parameter_type@X@?$positional_parameter_base@DV?$stream_output_adapter@D@__crt_stdio_output@@@__crt_stdio_output@@CA?AW4parameter_type@01@PAX@Z 1009bcf0 f i libucrtd:output.obj
 0002:00039d00       ??$get_parameter_type@X@?$positional_parameter_base@DV?$string_output_adapter@D@__crt_stdio_output@@@__crt_stdio_output@@CA?AW4parameter_type@01@PAX@Z 1009bd00 f i libucrtd:output.obj
 0002:00039d10       ??$get_parameter_type@X@?$positional_parameter_base@_WV?$stream_output_adapter@_W@__crt_stdio_output@@@__crt_stdio_output@@CA?AW4parameter_type@01@PAX@Z 1009bd10 f i libucrtd:output.obj
 0002:00039d20       ??$get_parameter_type@X@?$positional_parameter_base@_WV?$string_output_adapter@_W@__crt_stdio_output@@@__crt_stdio_output@@CA?AW4parameter_type@01@PAX@Z 1009bd20 f i libucrtd:output.obj
 0002:00039d30       ??$is_character_specifier@D@?$positional_parameter_base@DV?$stream_output_adapter@D@__crt_stdio_output@@@__crt_stdio_output@@CA_ND@Z 1009bd30 f i libucrtd:output.obj
 0002:00039d70       ??$is_character_specifier@D@?$positional_parameter_base@DV?$string_output_adapter@D@__crt_stdio_output@@@__crt_stdio_output@@CA_ND@Z 1009bd70 f i libucrtd:output.obj
 0002:00039db0       ??$is_character_specifier@_W@?$positional_parameter_base@_WV?$stream_output_adapter@_W@__crt_stdio_output@@@__crt_stdio_output@@CA_N_W@Z 1009bdb0 f i libucrtd:output.obj
 0002:00039df0       ??$is_character_specifier@_W@?$positional_parameter_base@_WV?$string_output_adapter@_W@__crt_stdio_output@@@__crt_stdio_output@@CA_N_W@Z 1009bdf0 f i libucrtd:output.obj
 0002:00039e30       ??$is_integral_specifier@D@?$positional_parameter_base@DV?$stream_output_adapter@D@__crt_stdio_output@@@__crt_stdio_output@@CA_ND@Z 1009be30 f i libucrtd:output.obj
 0002:00039eb0       ??$is_integral_specifier@D@?$positional_parameter_base@DV?$string_output_adapter@D@__crt_stdio_output@@@__crt_stdio_output@@CA_ND@Z 1009beb0 f i libucrtd:output.obj
 0002:00039f30       ??$is_integral_specifier@_W@?$positional_parameter_base@_WV?$stream_output_adapter@_W@__crt_stdio_output@@@__crt_stdio_output@@CA_N_W@Z 1009bf30 f i libucrtd:output.obj
 0002:00039fb0       ??$is_integral_specifier@_W@?$positional_parameter_base@_WV?$string_output_adapter@_W@__crt_stdio_output@@@__crt_stdio_output@@CA_N_W@Z 1009bfb0 f i libucrtd:output.obj
 0002:0003a030       ??$is_overflow_condition@K@__crt_strtox@@YA_NIK@Z 1009c030 f i libucrtd:output.obj
 0002:0003a0a0       ??$is_pointer_specifier@D@?$positional_parameter_base@DV?$stream_output_adapter@D@__crt_stdio_output@@@__crt_stdio_output@@CA_ND@Z 1009c0a0 f i libucrtd:output.obj
 0002:0003a0d0       ??$is_pointer_specifier@D@?$positional_parameter_base@DV?$string_output_adapter@D@__crt_stdio_output@@@__crt_stdio_output@@CA_ND@Z 1009c0d0 f i libucrtd:output.obj
 0002:0003a100       ??$is_pointer_specifier@_W@?$positional_parameter_base@_WV?$stream_output_adapter@_W@__crt_stdio_output@@@__crt_stdio_output@@CA_N_W@Z 1009c100 f i libucrtd:output.obj
 0002:0003a130       ??$is_pointer_specifier@_W@?$positional_parameter_base@_WV?$string_output_adapter@_W@__crt_stdio_output@@@__crt_stdio_output@@CA_N_W@Z 1009c130 f i libucrtd:output.obj
 0002:0003a160       ??$is_string_specifier@D@?$positional_parameter_base@DV?$stream_output_adapter@D@__crt_stdio_output@@@__crt_stdio_output@@CA_ND@Z 1009c160 f i libucrtd:output.obj
 0002:0003a1a0       ??$is_string_specifier@D@?$positional_parameter_base@DV?$string_output_adapter@D@__crt_stdio_output@@@__crt_stdio_output@@CA_ND@Z 1009c1a0 f i libucrtd:output.obj
 0002:0003a1e0       ??$is_string_specifier@_W@?$positional_parameter_base@_WV?$stream_output_adapter@_W@__crt_stdio_output@@@__crt_stdio_output@@CA_N_W@Z 1009c1e0 f i libucrtd:output.obj
 0002:0003a220       ??$is_string_specifier@_W@?$positional_parameter_base@_WV?$string_output_adapter@_W@__crt_stdio_output@@@__crt_stdio_output@@CA_N_W@Z 1009c220 f i libucrtd:output.obj
 0002:0003a260       ??$is_wide_character_specifier@D@__crt_stdio_output@@YA_N_KDW4length_modifier@0@@Z 1009c260 f i libucrtd:output.obj
 0002:0003a300       ??$is_wide_character_specifier@_W@__crt_stdio_output@@YA_N_K_WW4length_modifier@0@@Z 1009c300 f i libucrtd:output.obj
 0002:0003a3f0       ??$make_c_string_character_source@DPAPAD@__crt_strtox@@YA?AV?$c_string_character_source@D@0@QBDQAPAD@Z 1009c3f0 f i libucrtd:output.obj
 0002:0003a410       ??$make_c_string_character_source@_WPAPA_W@__crt_strtox@@YA?AV?$c_string_character_source@_W@0@QB_WQAPA_W@Z 1009c410 f i libucrtd:output.obj
 0002:0003a430       ??$parse_integer@KV?$c_string_character_source@D@__crt_strtox@@$0A@@__crt_strtox@@YAKAAV__crt_cached_ptd_host@@V?$c_string_character_source@D@0@H_N@Z 1009c430 f i libucrtd:output.obj
 0002:0003a830       ??$parse_integer@KV?$c_string_character_source@_W@__crt_strtox@@$0A@@__crt_strtox@@YAKAAV__crt_cached_ptd_host@@V?$c_string_character_source@_W@0@H_N@Z 1009c830 f i libucrtd:output.obj
 0002:0003ac30       ??$peek_va_arg@C@__crt_stdio_output@@YACPAD@Z 1009cc30 f i libucrtd:output.obj
 0002:0003ac50       ??$peek_va_arg@E@__crt_stdio_output@@YAEPAD@Z 1009cc50 f i libucrtd:output.obj
 0002:0003ac70       ??$peek_va_arg@F@__crt_stdio_output@@YAFPAD@Z 1009cc70 f i libucrtd:output.obj
 0002:0003ac90       ??$peek_va_arg@G@__crt_stdio_output@@YAGPAD@Z 1009cc90 f i libucrtd:output.obj
 0002:0003acb0       ??$peek_va_arg@H@__crt_stdio_output@@YAHPAD@Z 1009ccb0 f i libucrtd:output.obj
 0002:0003acd0       ??$peek_va_arg@I@__crt_stdio_output@@YAIPAD@Z 1009ccd0 f i libucrtd:output.obj
 0002:0003acf0       ??$peek_va_arg@PAD@__crt_stdio_output@@YAPADPAD@Z 1009ccf0 f i libucrtd:output.obj
 0002:0003ad10       ??$peek_va_arg@PAUansi_string@?1??type_case_Z@?$output_processor@DV?$stream_output_adapter@D@__crt_stdio_output@@V?$positional_parameter_base@DV?$stream_output_adapter@D@__crt_stdio_output@@@2@@__crt_stdio_output@@AAE_NXZ@@__crt_stdio_output@@YAPAUansi_string@?1??type_case_Z@?$output_processor@DV?$stream_output_adapter@D@__crt_stdio_output@@V?$positional_parameter_base@DV?$stream_output_adapter@D@__crt_stdio_output@@@2@@0@AAE_NXZ@PAD@Z 1009cd10 f i libucrtd:output.obj
 0002:0003ad30       ??$peek_va_arg@PAUansi_string@?1??type_case_Z@?$output_processor@DV?$string_output_adapter@D@__crt_stdio_output@@V?$positional_parameter_base@DV?$string_output_adapter@D@__crt_stdio_output@@@2@@__crt_stdio_output@@AAE_NXZ@@__crt_stdio_output@@YAPAUansi_string@?1??type_case_Z@?$output_processor@DV?$string_output_adapter@D@__crt_stdio_output@@V?$positional_parameter_base@DV?$string_output_adapter@D@__crt_stdio_output@@@2@@0@AAE_NXZ@PAD@Z 1009cd30 f i libucrtd:output.obj
 0002:0003ad50       ??$peek_va_arg@PAUansi_string@?1??type_case_Z@?$output_processor@_WV?$stream_output_adapter@_W@__crt_stdio_output@@V?$positional_parameter_base@_WV?$stream_output_adapter@_W@__crt_stdio_output@@@2@@__crt_stdio_output@@AAE_NXZ@@__crt_stdio_output@@YAPAUansi_string@?1??type_case_Z@?$output_processor@_WV?$stream_output_adapter@_W@__crt_stdio_output@@V?$positional_parameter_base@_WV?$stream_output_adapter@_W@__crt_stdio_output@@@2@@0@AAE_NXZ@PAD@Z 1009cd50 f i libucrtd:output.obj
 0002:0003ad70       ??$peek_va_arg@PAUansi_string@?1??type_case_Z@?$output_processor@_WV?$string_output_adapter@_W@__crt_stdio_output@@V?$positional_parameter_base@_WV?$string_output_adapter@_W@__crt_stdio_output@@@2@@__crt_stdio_output@@AAE_NXZ@@__crt_stdio_output@@YAPAUansi_string@?1??type_case_Z@?$output_processor@_WV?$string_output_adapter@_W@__crt_stdio_output@@V?$positional_parameter_base@_WV?$string_output_adapter@_W@__crt_stdio_output@@@2@@0@AAE_NXZ@PAD@Z 1009cd70 f i libucrtd:output.obj
 0002:0003ad90       ??$peek_va_arg@PAX@__crt_stdio_output@@YAPAXPAD@Z 1009cd90 f i libucrtd:output.obj
 0002:0003adb0       ??$peek_va_arg@U_CRT_DOUBLE@@@__crt_stdio_output@@YA?AU_CRT_DOUBLE@@PAD@Z 1009cdb0 f i libucrtd:output.obj
 0002:0003add0       ??$peek_va_arg@_J@__crt_stdio_output@@YA_JPAD@Z 1009cdd0 f i libucrtd:output.obj
 0002:0003adf0       ??$peek_va_arg@_K@__crt_stdio_output@@YA_KPAD@Z 1009cdf0 f i libucrtd:output.obj
 0002:0003ae10       ??$peek_va_arg@_W@__crt_stdio_output@@YA_WPAD@Z 1009ce10 f i libucrtd:output.obj
 0002:0003ae30       ??$puttc_nolock_internal@ABDPAU_iobuf@@AAV__crt_cached_ptd_host@@@?$__crt_char_traits@D@@SAHABD$$QAPAU_iobuf@@AAV__crt_cached_ptd_host@@@Z 1009ce30 f i libucrtd:output.obj
 0002:0003ae60       ??$puttc_nolock_internal@AB_WPAU_iobuf@@AAV__crt_cached_ptd_host@@@?$__crt_char_traits@_W@@SAGAB_W$$QAPAU_iobuf@@AAV__crt_cached_ptd_host@@@Z 1009ce60 f i libucrtd:output.obj
 0002:0003ae90       ??$read_va_arg@C@__crt_stdio_output@@YACAAPAD@Z 1009ce90 f i libucrtd:output.obj
 0002:0003aec0       ??$read_va_arg@E@__crt_stdio_output@@YAEAAPAD@Z 1009cec0 f i libucrtd:output.obj
 0002:0003aef0       ??$read_va_arg@F@__crt_stdio_output@@YAFAAPAD@Z 1009cef0 f i libucrtd:output.obj
 0002:0003af20       ??$read_va_arg@G@__crt_stdio_output@@YAGAAPAD@Z 1009cf20 f i libucrtd:output.obj
 0002:0003af50       ??$read_va_arg@H@__crt_stdio_output@@YAHAAPAD@Z 1009cf50 f i libucrtd:output.obj
 0002:0003af80       ??$read_va_arg@I@__crt_stdio_output@@YAIAAPAD@Z 1009cf80 f i libucrtd:output.obj
 0002:0003afb0       ??$read_va_arg@PAD@__crt_stdio_output@@YAPADAAPAD@Z 1009cfb0 f i libucrtd:output.obj
 0002:0003afe0       ??$read_va_arg@PAUansi_string@?1??type_case_Z@?$output_processor@DV?$stream_output_adapter@D@__crt_stdio_output@@V?$format_validation_base@DV?$stream_output_adapter@D@__crt_stdio_output@@@2@@__crt_stdio_output@@AAE_NXZ@@__crt_stdio_output@@YAPAUansi_string@?1??type_case_Z@?$output_processor@DV?$stream_output_adapter@D@__crt_stdio_output@@V?$format_validation_base@DV?$stream_output_adapter@D@__crt_stdio_output@@@2@@0@AAE_NXZ@AAPAD@Z 1009cfe0 f i libucrtd:output.obj
 0002:0003b010       ??$read_va_arg@PAUansi_string@?1??type_case_Z@?$output_processor@DV?$stream_output_adapter@D@__crt_stdio_output@@V?$positional_parameter_base@DV?$stream_output_adapter@D@__crt_stdio_output@@@2@@__crt_stdio_output@@AAE_NXZ@@__crt_stdio_output@@YAPAUansi_string@?1??type_case_Z@?$output_processor@DV?$stream_output_adapter@D@__crt_stdio_output@@V?$positional_parameter_base@DV?$stream_output_adapter@D@__crt_stdio_output@@@2@@0@AAE_NXZ@AAPAD@Z 1009d010 f i libucrtd:output.obj
 0002:0003b040       ??$read_va_arg@PAUansi_string@?1??type_case_Z@?$output_processor@DV?$stream_output_adapter@D@__crt_stdio_output@@V?$standard_base@DV?$stream_output_adapter@D@__crt_stdio_output@@@2@@__crt_stdio_output@@AAE_NXZ@@__crt_stdio_output@@YAPAUansi_string@?1??type_case_Z@?$output_processor@DV?$stream_output_adapter@D@__crt_stdio_output@@V?$standard_base@DV?$stream_output_adapter@D@__crt_stdio_output@@@2@@0@AAE_NXZ@AAPAD@Z 1009d040 f i libucrtd:output.obj
 0002:0003b070       ??$read_va_arg@PAUansi_string@?1??type_case_Z@?$output_processor@DV?$string_output_adapter@D@__crt_stdio_output@@V?$format_validation_base@DV?$string_output_adapter@D@__crt_stdio_output@@@2@@__crt_stdio_output@@AAE_NXZ@@__crt_stdio_output@@YAPAUansi_string@?1??type_case_Z@?$output_processor@DV?$string_output_adapter@D@__crt_stdio_output@@V?$format_validation_base@DV?$string_output_adapter@D@__crt_stdio_output@@@2@@0@AAE_NXZ@AAPAD@Z 1009d070 f i libucrtd:output.obj
 0002:0003b0a0       ??$read_va_arg@PAUansi_string@?1??type_case_Z@?$output_processor@DV?$string_output_adapter@D@__crt_stdio_output@@V?$positional_parameter_base@DV?$string_output_adapter@D@__crt_stdio_output@@@2@@__crt_stdio_output@@AAE_NXZ@@__crt_stdio_output@@YAPAUansi_string@?1??type_case_Z@?$output_processor@DV?$string_output_adapter@D@__crt_stdio_output@@V?$positional_parameter_base@DV?$string_output_adapter@D@__crt_stdio_output@@@2@@0@AAE_NXZ@AAPAD@Z 1009d0a0 f i libucrtd:output.obj
 0002:0003b0d0       ??$read_va_arg@PAUansi_string@?1??type_case_Z@?$output_processor@DV?$string_output_adapter@D@__crt_stdio_output@@V?$standard_base@DV?$string_output_adapter@D@__crt_stdio_output@@@2@@__crt_stdio_output@@AAE_NXZ@@__crt_stdio_output@@YAPAUansi_string@?1??type_case_Z@?$output_processor@DV?$string_output_adapter@D@__crt_stdio_output@@V?$standard_base@DV?$string_output_adapter@D@__crt_stdio_output@@@2@@0@AAE_NXZ@AAPAD@Z 1009d0d0 f i libucrtd:output.obj
 0002:0003b100       ??$read_va_arg@PAUansi_string@?1??type_case_Z@?$output_processor@_WV?$stream_output_adapter@_W@__crt_stdio_output@@V?$format_validation_base@_WV?$stream_output_adapter@_W@__crt_stdio_output@@@2@@__crt_stdio_output@@AAE_NXZ@@__crt_stdio_output@@YAPAUansi_string@?1??type_case_Z@?$output_processor@_WV?$stream_output_adapter@_W@__crt_stdio_output@@V?$format_validation_base@_WV?$stream_output_adapter@_W@__crt_stdio_output@@@2@@0@AAE_NXZ@AAPAD@Z 1009d100 f i libucrtd:output.obj
 0002:0003b130       ??$read_va_arg@PAUansi_string@?1??type_case_Z@?$output_processor@_WV?$stream_output_adapter@_W@__crt_stdio_output@@V?$positional_parameter_base@_WV?$stream_output_adapter@_W@__crt_stdio_output@@@2@@__crt_stdio_output@@AAE_NXZ@@__crt_stdio_output@@YAPAUansi_string@?1??type_case_Z@?$output_processor@_WV?$stream_output_adapter@_W@__crt_stdio_output@@V?$positional_parameter_base@_WV?$stream_output_adapter@_W@__crt_stdio_output@@@2@@0@AAE_NXZ@AAPAD@Z 1009d130 f i libucrtd:output.obj
 0002:0003b160       ??$read_va_arg@PAUansi_string@?1??type_case_Z@?$output_processor@_WV?$stream_output_adapter@_W@__crt_stdio_output@@V?$standard_base@_WV?$stream_output_adapter@_W@__crt_stdio_output@@@2@@__crt_stdio_output@@AAE_NXZ@@__crt_stdio_output@@YAPAUansi_string@?1??type_case_Z@?$output_processor@_WV?$stream_output_adapter@_W@__crt_stdio_output@@V?$standard_base@_WV?$stream_output_adapter@_W@__crt_stdio_output@@@2@@0@AAE_NXZ@AAPAD@Z 1009d160 f i libucrtd:output.obj
 0002:0003b190       ??$read_va_arg@PAUansi_string@?1??type_case_Z@?$output_processor@_WV?$string_output_adapter@_W@__crt_stdio_output@@V?$format_validation_base@_WV?$string_output_adapter@_W@__crt_stdio_output@@@2@@__crt_stdio_output@@AAE_NXZ@@__crt_stdio_output@@YAPAUansi_string@?1??type_case_Z@?$output_processor@_WV?$string_output_adapter@_W@__crt_stdio_output@@V?$format_validation_base@_WV?$string_output_adapter@_W@__crt_stdio_output@@@2@@0@AAE_NXZ@AAPAD@Z 1009d190 f i libucrtd:output.obj
 0002:0003b1c0       ??$read_va_arg@PAUansi_string@?1??type_case_Z@?$output_processor@_WV?$string_output_adapter@_W@__crt_stdio_output@@V?$positional_parameter_base@_WV?$string_output_adapter@_W@__crt_stdio_output@@@2@@__crt_stdio_output@@AAE_NXZ@@__crt_stdio_output@@YAPAUansi_string@?1??type_case_Z@?$output_processor@_WV?$string_output_adapter@_W@__crt_stdio_output@@V?$positional_parameter_base@_WV?$string_output_adapter@_W@__crt_stdio_output@@@2@@0@AAE_NXZ@AAPAD@Z 1009d1c0 f i libucrtd:output.obj
 0002:0003b1f0       ??$read_va_arg@PAUansi_string@?1??type_case_Z@?$output_processor@_WV?$string_output_adapter@_W@__crt_stdio_output@@V?$standard_base@_WV?$string_output_adapter@_W@__crt_stdio_output@@@2@@__crt_stdio_output@@AAE_NXZ@@__crt_stdio_output@@YAPAUansi_string@?1??type_case_Z@?$output_processor@_WV?$string_output_adapter@_W@__crt_stdio_output@@V?$standard_base@_WV?$string_output_adapter@_W@__crt_stdio_output@@@2@@0@AAE_NXZ@AAPAD@Z 1009d1f0 f i libucrtd:output.obj
 0002:0003b220       ??$read_va_arg@PAX@__crt_stdio_output@@YAPAXAAPAD@Z 1009d220 f i libucrtd:output.obj
 0002:0003b250       ??$read_va_arg@U_CRT_DOUBLE@@@__crt_stdio_output@@YA?AU_CRT_DOUBLE@@AAPAD@Z 1009d250 f i libucrtd:output.obj
 0002:0003b280       ??$read_va_arg@_J@__crt_stdio_output@@YA_JAAPAD@Z 1009d280 f i libucrtd:output.obj
 0002:0003b2b0       ??$read_va_arg@_K@__crt_stdio_output@@YA_KAAPAD@Z 1009d2b0 f i libucrtd:output.obj
 0002:0003b2e0       ??$read_va_arg@_W@__crt_stdio_output@@YA_WAAPAD@Z 1009d2e0 f i libucrtd:output.obj
 0002:0003b310       ??$scratch_count@D@formatting_buffer@__crt_stdio_output@@QBEIXZ 1009d310 f i libucrtd:output.obj
 0002:0003b330       ??$scratch_data@D@formatting_buffer@__crt_stdio_output@@QAEPADXZ 1009d330 f i libucrtd:output.obj
 0002:0003b390       ??$type_case_integer@$07@?$output_processor@DV?$stream_output_adapter@D@__crt_stdio_output@@V?$format_validation_base@DV?$stream_output_adapter@D@__crt_stdio_output@@@2@@__crt_stdio_output@@AAE_N_N@Z 1009d390 f i libucrtd:output.obj
 0002:0003b7d0       ??$type_case_integer@$07@?$output_processor@DV?$stream_output_adapter@D@__crt_stdio_output@@V?$positional_parameter_base@DV?$stream_output_adapter@D@__crt_stdio_output@@@2@@__crt_stdio_output@@AAE_N_N@Z 1009d7d0 f i libucrtd:output.obj
 0002:0003bc10       ??$type_case_integer@$07@?$output_processor@DV?$stream_output_adapter@D@__crt_stdio_output@@V?$standard_base@DV?$stream_output_adapter@D@__crt_stdio_output@@@2@@__crt_stdio_output@@AAE_N_N@Z 1009dc10 f i libucrtd:output.obj
 0002:0003c050       ??$type_case_integer@$07@?$output_processor@DV?$string_output_adapter@D@__crt_stdio_output@@V?$format_validation_base@DV?$string_output_adapter@D@__crt_stdio_output@@@2@@__crt_stdio_output@@AAE_N_N@Z 1009e050 f i libucrtd:output.obj
 0002:0003c490       ??$type_case_integer@$07@?$output_processor@DV?$string_output_adapter@D@__crt_stdio_output@@V?$positional_parameter_base@DV?$string_output_adapter@D@__crt_stdio_output@@@2@@__crt_stdio_output@@AAE_N_N@Z 1009e490 f i libucrtd:output.obj
 0002:0003c8d0       ??$type_case_integer@$07@?$output_processor@DV?$string_output_adapter@D@__crt_stdio_output@@V?$standard_base@DV?$string_output_adapter@D@__crt_stdio_output@@@2@@__crt_stdio_output@@AAE_N_N@Z 1009e8d0 f i libucrtd:output.obj
 0002:0003cd10       ??$type_case_integer@$07@?$output_processor@_WV?$stream_output_adapter@_W@__crt_stdio_output@@V?$format_validation_base@_WV?$stream_output_adapter@_W@__crt_stdio_output@@@2@@__crt_stdio_output@@AAE_N_N@Z 1009ed10 f i libucrtd:output.obj
 0002:0003d150       ??$type_case_integer@$07@?$output_processor@_WV?$stream_output_adapter@_W@__crt_stdio_output@@V?$positional_parameter_base@_WV?$stream_output_adapter@_W@__crt_stdio_output@@@2@@__crt_stdio_output@@AAE_N_N@Z 1009f150 f i libucrtd:output.obj
 0002:0003d590       ??$type_case_integer@$07@?$output_processor@_WV?$stream_output_adapter@_W@__crt_stdio_output@@V?$standard_base@_WV?$stream_output_adapter@_W@__crt_stdio_output@@@2@@__crt_stdio_output@@AAE_N_N@Z 1009f590 f i libucrtd:output.obj
 0002:0003d9d0       ??$type_case_integer@$07@?$output_processor@_WV?$string_output_adapter@_W@__crt_stdio_output@@V?$format_validation_base@_WV?$string_output_adapter@_W@__crt_stdio_output@@@2@@__crt_stdio_output@@AAE_N_N@Z 1009f9d0 f i libucrtd:output.obj
 0002:0003de10       ??$type_case_integer@$07@?$output_processor@_WV?$string_output_adapter@_W@__crt_stdio_output@@V?$positional_parameter_base@_WV?$string_output_adapter@_W@__crt_stdio_output@@@2@@__crt_stdio_output@@AAE_N_N@Z 1009fe10 f i libucrtd:output.obj
 0002:0003e250       ??$type_case_integer@$07@?$output_processor@_WV?$string_output_adapter@_W@__crt_stdio_output@@V?$standard_base@_WV?$string_output_adapter@_W@__crt_stdio_output@@@2@@__crt_stdio_output@@AAE_N_N@Z 100a0250 f i libucrtd:output.obj
 0002:0003e690       ??$type_case_integer@$09@?$output_processor@DV?$stream_output_adapter@D@__crt_stdio_output@@V?$format_validation_base@DV?$stream_output_adapter@D@__crt_stdio_output@@@2@@__crt_stdio_output@@AAE_N_N@Z 100a0690 f i libucrtd:output.obj
 0002:0003ead0       ??$type_case_integer@$09@?$output_processor@DV?$stream_output_adapter@D@__crt_stdio_output@@V?$positional_parameter_base@DV?$stream_output_adapter@D@__crt_stdio_output@@@2@@__crt_stdio_output@@AAE_N_N@Z 100a0ad0 f i libucrtd:output.obj
 0002:0003ef10       ??$type_case_integer@$09@?$output_processor@DV?$stream_output_adapter@D@__crt_stdio_output@@V?$standard_base@DV?$stream_output_adapter@D@__crt_stdio_output@@@2@@__crt_stdio_output@@AAE_N_N@Z 100a0f10 f i libucrtd:output.obj
 0002:0003f350       ??$type_case_integer@$09@?$output_processor@DV?$string_output_adapter@D@__crt_stdio_output@@V?$format_validation_base@DV?$string_output_adapter@D@__crt_stdio_output@@@2@@__crt_stdio_output@@AAE_N_N@Z 100a1350 f i libucrtd:output.obj
 0002:0003f790       ??$type_case_integer@$09@?$output_processor@DV?$string_output_adapter@D@__crt_stdio_output@@V?$positional_parameter_base@DV?$string_output_adapter@D@__crt_stdio_output@@@2@@__crt_stdio_output@@AAE_N_N@Z 100a1790 f i libucrtd:output.obj
 0002:0003fbd0       ??$type_case_integer@$09@?$output_processor@DV?$string_output_adapter@D@__crt_stdio_output@@V?$standard_base@DV?$string_output_adapter@D@__crt_stdio_output@@@2@@__crt_stdio_output@@AAE_N_N@Z 100a1bd0 f i libucrtd:output.obj
 0002:00040010       ??$type_case_integer@$09@?$output_processor@_WV?$stream_output_adapter@_W@__crt_stdio_output@@V?$format_validation_base@_WV?$stream_output_adapter@_W@__crt_stdio_output@@@2@@__crt_stdio_output@@AAE_N_N@Z 100a2010 f i libucrtd:output.obj
 0002:00040450       ??$type_case_integer@$09@?$output_processor@_WV?$stream_output_adapter@_W@__crt_stdio_output@@V?$positional_parameter_base@_WV?$stream_output_adapter@_W@__crt_stdio_output@@@2@@__crt_stdio_output@@AAE_N_N@Z 100a2450 f i libucrtd:output.obj
 0002:00040890       ??$type_case_integer@$09@?$output_processor@_WV?$stream_output_adapter@_W@__crt_stdio_output@@V?$standard_base@_WV?$stream_output_adapter@_W@__crt_stdio_output@@@2@@__crt_stdio_output@@AAE_N_N@Z 100a2890 f i libucrtd:output.obj
 0002:00040cd0       ??$type_case_integer@$09@?$output_processor@_WV?$string_output_adapter@_W@__crt_stdio_output@@V?$format_validation_base@_WV?$string_output_adapter@_W@__crt_stdio_output@@@2@@__crt_stdio_output@@AAE_N_N@Z 100a2cd0 f i libucrtd:output.obj
 0002:00041110       ??$type_case_integer@$09@?$output_processor@_WV?$string_output_adapter@_W@__crt_stdio_output@@V?$positional_parameter_base@_WV?$string_output_adapter@_W@__crt_stdio_output@@@2@@__crt_stdio_output@@AAE_N_N@Z 100a3110 f i libucrtd:output.obj
 0002:00041550       ??$type_case_integer@$09@?$output_processor@_WV?$string_output_adapter@_W@__crt_stdio_output@@V?$standard_base@_WV?$string_output_adapter@_W@__crt_stdio_output@@@2@@__crt_stdio_output@@AAE_N_N@Z 100a3550 f i libucrtd:output.obj
 0002:00041990       ??$type_case_integer@$0BA@@?$output_processor@DV?$stream_output_adapter@D@__crt_stdio_output@@V?$format_validation_base@DV?$stream_output_adapter@D@__crt_stdio_output@@@2@@__crt_stdio_output@@AAE_N_N@Z 100a3990 f i libucrtd:output.obj
 0002:00041dd0       ??$type_case_integer@$0BA@@?$output_processor@DV?$stream_output_adapter@D@__crt_stdio_output@@V?$positional_parameter_base@DV?$stream_output_adapter@D@__crt_stdio_output@@@2@@__crt_stdio_output@@AAE_N_N@Z 100a3dd0 f i libucrtd:output.obj
 0002:00042210       ??$type_case_integer@$0BA@@?$output_processor@DV?$stream_output_adapter@D@__crt_stdio_output@@V?$standard_base@DV?$stream_output_adapter@D@__crt_stdio_output@@@2@@__crt_stdio_output@@AAE_N_N@Z 100a4210 f i libucrtd:output.obj
 0002:00042650       ??$type_case_integer@$0BA@@?$output_processor@DV?$string_output_adapter@D@__crt_stdio_output@@V?$format_validation_base@DV?$string_output_adapter@D@__crt_stdio_output@@@2@@__crt_stdio_output@@AAE_N_N@Z 100a4650 f i libucrtd:output.obj
 0002:00042a90       ??$type_case_integer@$0BA@@?$output_processor@DV?$string_output_adapter@D@__crt_stdio_output@@V?$positional_parameter_base@DV?$string_output_adapter@D@__crt_stdio_output@@@2@@__crt_stdio_output@@AAE_N_N@Z 100a4a90 f i libucrtd:output.obj
 0002:00042ed0       ??$type_case_integer@$0BA@@?$output_processor@DV?$string_output_adapter@D@__crt_stdio_output@@V?$standard_base@DV?$string_output_adapter@D@__crt_stdio_output@@@2@@__crt_stdio_output@@AAE_N_N@Z 100a4ed0 f i libucrtd:output.obj
 0002:00043310       ??$type_case_integer@$0BA@@?$output_processor@_WV?$stream_output_adapter@_W@__crt_stdio_output@@V?$format_validation_base@_WV?$stream_output_adapter@_W@__crt_stdio_output@@@2@@__crt_stdio_output@@AAE_N_N@Z 100a5310 f i libucrtd:output.obj
 0002:00043750       ??$type_case_integer@$0BA@@?$output_processor@_WV?$stream_output_adapter@_W@__crt_stdio_output@@V?$positional_parameter_base@_WV?$stream_output_adapter@_W@__crt_stdio_output@@@2@@__crt_stdio_output@@AAE_N_N@Z 100a5750 f i libucrtd:output.obj
 0002:00043b90       ??$type_case_integer@$0BA@@?$output_processor@_WV?$stream_output_adapter@_W@__crt_stdio_output@@V?$standard_base@_WV?$stream_output_adapter@_W@__crt_stdio_output@@@2@@__crt_stdio_output@@AAE_N_N@Z 100a5b90 f i libucrtd:output.obj
 0002:00043fd0       ??$type_case_integer@$0BA@@?$output_processor@_WV?$string_output_adapter@_W@__crt_stdio_output@@V?$format_validation_base@_WV?$string_output_adapter@_W@__crt_stdio_output@@@2@@__crt_stdio_output@@AAE_N_N@Z 100a5fd0 f i libucrtd:output.obj
 0002:00044410       ??$type_case_integer@$0BA@@?$output_processor@_WV?$string_output_adapter@_W@__crt_stdio_output@@V?$positional_parameter_base@_WV?$string_output_adapter@_W@__crt_stdio_output@@@2@@__crt_stdio_output@@AAE_N_N@Z 100a6410 f i libucrtd:output.obj
 0002:00044850       ??$type_case_integer@$0BA@@?$output_processor@_WV?$string_output_adapter@_W@__crt_stdio_output@@V?$standard_base@_WV?$string_output_adapter@_W@__crt_stdio_output@@@2@@__crt_stdio_output@@AAE_N_N@Z 100a6850 f i libucrtd:output.obj
 0002:00044c90       ??$type_case_integer_parse_into_buffer@I$07@?$output_processor@DV?$stream_output_adapter@D@__crt_stdio_output@@V?$format_validation_base@DV?$stream_output_adapter@D@__crt_stdio_output@@@2@@__crt_stdio_output@@AAEXI_N@Z 100a6c90 f i libucrtd:output.obj
 0002:00044da0       ??$type_case_integer_parse_into_buffer@I$07@?$output_processor@DV?$stream_output_adapter@D@__crt_stdio_output@@V?$positional_parameter_base@DV?$stream_output_adapter@D@__crt_stdio_output@@@2@@__crt_stdio_output@@AAEXI_N@Z 100a6da0 f i libucrtd:output.obj
 0002:00044eb0       ??$type_case_integer_parse_into_buffer@I$07@?$output_processor@DV?$stream_output_adapter@D@__crt_stdio_output@@V?$standard_base@DV?$stream_output_adapter@D@__crt_stdio_output@@@2@@__crt_stdio_output@@AAEXI_N@Z 100a6eb0 f i libucrtd:output.obj
 0002:00044fc0       ??$type_case_integer_parse_into_buffer@I$07@?$output_processor@DV?$string_output_adapter@D@__crt_stdio_output@@V?$format_validation_base@DV?$string_output_adapter@D@__crt_stdio_output@@@2@@__crt_stdio_output@@AAEXI_N@Z 100a6fc0 f i libucrtd:output.obj
 0002:000450d0       ??$type_case_integer_parse_into_buffer@I$07@?$output_processor@DV?$string_output_adapter@D@__crt_stdio_output@@V?$positional_parameter_base@DV?$string_output_adapter@D@__crt_stdio_output@@@2@@__crt_stdio_output@@AAEXI_N@Z 100a70d0 f i libucrtd:output.obj
 0002:000451e0       ??$type_case_integer_parse_into_buffer@I$07@?$output_processor@DV?$string_output_adapter@D@__crt_stdio_output@@V?$standard_base@DV?$string_output_adapter@D@__crt_stdio_output@@@2@@__crt_stdio_output@@AAEXI_N@Z 100a71e0 f i libucrtd:output.obj
 0002:000452f0       ??$type_case_integer_parse_into_buffer@I$07@?$output_processor@_WV?$stream_output_adapter@_W@__crt_stdio_output@@V?$format_validation_base@_WV?$stream_output_adapter@_W@__crt_stdio_output@@@2@@__crt_stdio_output@@AAEXI_N@Z 100a72f0 f i libucrtd:output.obj
 0002:00045400       ??$type_case_integer_parse_into_buffer@I$07@?$output_processor@_WV?$stream_output_adapter@_W@__crt_stdio_output@@V?$positional_parameter_base@_WV?$stream_output_adapter@_W@__crt_stdio_output@@@2@@__crt_stdio_output@@AAEXI_N@Z 100a7400 f i libucrtd:output.obj
 0002:00045510       ??$type_case_integer_parse_into_buffer@I$07@?$output_processor@_WV?$stream_output_adapter@_W@__crt_stdio_output@@V?$standard_base@_WV?$stream_output_adapter@_W@__crt_stdio_output@@@2@@__crt_stdio_output@@AAEXI_N@Z 100a7510 f i libucrtd:output.obj
 0002:00045620       ??$type_case_integer_parse_into_buffer@I$07@?$output_processor@_WV?$string_output_adapter@_W@__crt_stdio_output@@V?$format_validation_base@_WV?$string_output_adapter@_W@__crt_stdio_output@@@2@@__crt_stdio_output@@AAEXI_N@Z 100a7620 f i libucrtd:output.obj
 0002:00045730       ??$type_case_integer_parse_into_buffer@I$07@?$output_processor@_WV?$string_output_adapter@_W@__crt_stdio_output@@V?$positional_parameter_base@_WV?$string_output_adapter@_W@__crt_stdio_output@@@2@@__crt_stdio_output@@AAEXI_N@Z 100a7730 f i libucrtd:output.obj
 0002:00045840       ??$type_case_integer_parse_into_buffer@I$07@?$output_processor@_WV?$string_output_adapter@_W@__crt_stdio_output@@V?$standard_base@_WV?$string_output_adapter@_W@__crt_stdio_output@@@2@@__crt_stdio_output@@AAEXI_N@Z 100a7840 f i libucrtd:output.obj
 0002:00045950       ??$type_case_integer_parse_into_buffer@I$09@?$output_processor@DV?$stream_output_adapter@D@__crt_stdio_output@@V?$format_validation_base@DV?$stream_output_adapter@D@__crt_stdio_output@@@2@@__crt_stdio_output@@AAEXI_N@Z 100a7950 f i libucrtd:output.obj
 0002:00045a60       ??$type_case_integer_parse_into_buffer@I$09@?$output_processor@DV?$stream_output_adapter@D@__crt_stdio_output@@V?$positional_parameter_base@DV?$stream_output_adapter@D@__crt_stdio_output@@@2@@__crt_stdio_output@@AAEXI_N@Z 100a7a60 f i libucrtd:output.obj
 0002:00045b70       ??$type_case_integer_parse_into_buffer@I$09@?$output_processor@DV?$stream_output_adapter@D@__crt_stdio_output@@V?$standard_base@DV?$stream_output_adapter@D@__crt_stdio_output@@@2@@__crt_stdio_output@@AAEXI_N@Z 100a7b70 f i libucrtd:output.obj
 0002:00045c80       ??$type_case_integer_parse_into_buffer@I$09@?$output_processor@DV?$string_output_adapter@D@__crt_stdio_output@@V?$format_validation_base@DV?$string_output_adapter@D@__crt_stdio_output@@@2@@__crt_stdio_output@@AAEXI_N@Z 100a7c80 f i libucrtd:output.obj
 0002:00045d90       ??$type_case_integer_parse_into_buffer@I$09@?$output_processor@DV?$string_output_adapter@D@__crt_stdio_output@@V?$positional_parameter_base@DV?$string_output_adapter@D@__crt_stdio_output@@@2@@__crt_stdio_output@@AAEXI_N@Z 100a7d90 f i libucrtd:output.obj
 0002:00045ea0       ??$type_case_integer_parse_into_buffer@I$09@?$output_processor@DV?$string_output_adapter@D@__crt_stdio_output@@V?$standard_base@DV?$string_output_adapter@D@__crt_stdio_output@@@2@@__crt_stdio_output@@AAEXI_N@Z 100a7ea0 f i libucrtd:output.obj
 0002:00045fb0       ??$type_case_integer_parse_into_buffer@I$09@?$output_processor@_WV?$stream_output_adapter@_W@__crt_stdio_output@@V?$format_validation_base@_WV?$stream_output_adapter@_W@__crt_stdio_output@@@2@@__crt_stdio_output@@AAEXI_N@Z 100a7fb0 f i libucrtd:output.obj
 0002:000460d0       ??$type_case_integer_parse_into_buffer@I$09@?$output_processor@_WV?$stream_output_adapter@_W@__crt_stdio_output@@V?$positional_parameter_base@_WV?$stream_output_adapter@_W@__crt_stdio_output@@@2@@__crt_stdio_output@@AAEXI_N@Z 100a80d0 f i libucrtd:output.obj
 0002:000461f0       ??$type_case_integer_parse_into_buffer@I$09@?$output_processor@_WV?$stream_output_adapter@_W@__crt_stdio_output@@V?$standard_base@_WV?$stream_output_adapter@_W@__crt_stdio_output@@@2@@__crt_stdio_output@@AAEXI_N@Z 100a81f0 f i libucrtd:output.obj
 0002:00046310       ??$type_case_integer_parse_into_buffer@I$09@?$output_processor@_WV?$string_output_adapter@_W@__crt_stdio_output@@V?$format_validation_base@_WV?$string_output_adapter@_W@__crt_stdio_output@@@2@@__crt_stdio_output@@AAEXI_N@Z 100a8310 f i libucrtd:output.obj
 0002:00046430       ??$type_case_integer_parse_into_buffer@I$09@?$output_processor@_WV?$string_output_adapter@_W@__crt_stdio_output@@V?$positional_parameter_base@_WV?$string_output_adapter@_W@__crt_stdio_output@@@2@@__crt_stdio_output@@AAEXI_N@Z 100a8430 f i libucrtd:output.obj
 0002:00046550       ??$type_case_integer_parse_into_buffer@I$09@?$output_processor@_WV?$string_output_adapter@_W@__crt_stdio_output@@V?$standard_base@_WV?$string_output_adapter@_W@__crt_stdio_output@@@2@@__crt_stdio_output@@AAEXI_N@Z 100a8550 f i libucrtd:output.obj
 0002:00046670       ??$type_case_integer_parse_into_buffer@I$0BA@@?$output_processor@DV?$stream_output_adapter@D@__crt_stdio_output@@V?$format_validation_base@DV?$stream_output_adapter@D@__crt_stdio_output@@@2@@__crt_stdio_output@@AAEXI_N@Z 100a8670 f i libucrtd:output.obj
 0002:00046780       ??$type_case_integer_parse_into_buffer@I$0BA@@?$output_processor@DV?$stream_output_adapter@D@__crt_stdio_output@@V?$positional_parameter_base@DV?$stream_output_adapter@D@__crt_stdio_output@@@2@@__crt_stdio_output@@AAEXI_N@Z 100a8780 f i libucrtd:output.obj
 0002:00046890       ??$type_case_integer_parse_into_buffer@I$0BA@@?$output_processor@DV?$stream_output_adapter@D@__crt_stdio_output@@V?$standard_base@DV?$stream_output_adapter@D@__crt_stdio_output@@@2@@__crt_stdio_output@@AAEXI_N@Z 100a8890 f i libucrtd:output.obj
 0002:000469a0       ??$type_case_integer_parse_into_buffer@I$0BA@@?$output_processor@DV?$string_output_adapter@D@__crt_stdio_output@@V?$format_validation_base@DV?$string_output_adapter@D@__crt_stdio_output@@@2@@__crt_stdio_output@@AAEXI_N@Z 100a89a0 f i libucrtd:output.obj
 0002:00046ab0       ??$type_case_integer_parse_into_buffer@I$0BA@@?$output_processor@DV?$string_output_adapter@D@__crt_stdio_output@@V?$positional_parameter_base@DV?$string_output_adapter@D@__crt_stdio_output@@@2@@__crt_stdio_output@@AAEXI_N@Z 100a8ab0 f i libucrtd:output.obj
 0002:00046bc0       ??$type_case_integer_parse_into_buffer@I$0BA@@?$output_processor@DV?$string_output_adapter@D@__crt_stdio_output@@V?$standard_base@DV?$string_output_adapter@D@__crt_stdio_output@@@2@@__crt_stdio_output@@AAEXI_N@Z 100a8bc0 f i libucrtd:output.obj
 0002:00046cd0       ??$type_case_integer_parse_into_buffer@I$0BA@@?$output_processor@_WV?$stream_output_adapter@_W@__crt_stdio_output@@V?$format_validation_base@_WV?$stream_output_adapter@_W@__crt_stdio_output@@@2@@__crt_stdio_output@@AAEXI_N@Z 100a8cd0 f i libucrtd:output.obj
 0002:00046de0       ??$type_case_integer_parse_into_buffer@I$0BA@@?$output_processor@_WV?$stream_output_adapter@_W@__crt_stdio_output@@V?$positional_parameter_base@_WV?$stream_output_adapter@_W@__crt_stdio_output@@@2@@__crt_stdio_output@@AAEXI_N@Z 100a8de0 f i libucrtd:output.obj
 0002:00046ef0       ??$type_case_integer_parse_into_buffer@I$0BA@@?$output_processor@_WV?$stream_output_adapter@_W@__crt_stdio_output@@V?$standard_base@_WV?$stream_output_adapter@_W@__crt_stdio_output@@@2@@__crt_stdio_output@@AAEXI_N@Z 100a8ef0 f i libucrtd:output.obj
 0002:00047000       ??$type_case_integer_parse_into_buffer@I$0BA@@?$output_processor@_WV?$string_output_adapter@_W@__crt_stdio_output@@V?$format_validation_base@_WV?$string_output_adapter@_W@__crt_stdio_output@@@2@@__crt_stdio_output@@AAEXI_N@Z 100a9000 f i libucrtd:output.obj
 0002:00047110       ??$type_case_integer_parse_into_buffer@I$0BA@@?$output_processor@_WV?$string_output_adapter@_W@__crt_stdio_output@@V?$positional_parameter_base@_WV?$string_output_adapter@_W@__crt_stdio_output@@@2@@__crt_stdio_output@@AAEXI_N@Z 100a9110 f i libucrtd:output.obj
 0002:00047220       ??$type_case_integer_parse_into_buffer@I$0BA@@?$output_processor@_WV?$string_output_adapter@_W@__crt_stdio_output@@V?$standard_base@_WV?$string_output_adapter@_W@__crt_stdio_output@@@2@@__crt_stdio_output@@AAEXI_N@Z 100a9220 f i libucrtd:output.obj
 0002:00047330       ??$type_case_integer_parse_into_buffer@_K$07@?$output_processor@DV?$stream_output_adapter@D@__crt_stdio_output@@V?$format_validation_base@DV?$stream_output_adapter@D@__crt_stdio_output@@@2@@__crt_stdio_output@@AAEX_K_N@Z 100a9330 f i libucrtd:output.obj
 0002:00047460       ??$type_case_integer_parse_into_buffer@_K$07@?$output_processor@DV?$stream_output_adapter@D@__crt_stdio_output@@V?$positional_parameter_base@DV?$stream_output_adapter@D@__crt_stdio_output@@@2@@__crt_stdio_output@@AAEX_K_N@Z 100a9460 f i libucrtd:output.obj
 0002:00047590       ??$type_case_integer_parse_into_buffer@_K$07@?$output_processor@DV?$stream_output_adapter@D@__crt_stdio_output@@V?$standard_base@DV?$stream_output_adapter@D@__crt_stdio_output@@@2@@__crt_stdio_output@@AAEX_K_N@Z 100a9590 f i libucrtd:output.obj
 0002:000476c0       ??$type_case_integer_parse_into_buffer@_K$07@?$output_processor@DV?$string_output_adapter@D@__crt_stdio_output@@V?$format_validation_base@DV?$string_output_adapter@D@__crt_stdio_output@@@2@@__crt_stdio_output@@AAEX_K_N@Z 100a96c0 f i libucrtd:output.obj
 0002:000477f0       ??$type_case_integer_parse_into_buffer@_K$07@?$output_processor@DV?$string_output_adapter@D@__crt_stdio_output@@V?$positional_parameter_base@DV?$string_output_adapter@D@__crt_stdio_output@@@2@@__crt_stdio_output@@AAEX_K_N@Z 100a97f0 f i libucrtd:output.obj
 0002:00047920       ??$type_case_integer_parse_into_buffer@_K$07@?$output_processor@DV?$string_output_adapter@D@__crt_stdio_output@@V?$standard_base@DV?$string_output_adapter@D@__crt_stdio_output@@@2@@__crt_stdio_output@@AAEX_K_N@Z 100a9920 f i libucrtd:output.obj
 0002:00047a50       ??$type_case_integer_parse_into_buffer@_K$07@?$output_processor@_WV?$stream_output_adapter@_W@__crt_stdio_output@@V?$format_validation_base@_WV?$stream_output_adapter@_W@__crt_stdio_output@@@2@@__crt_stdio_output@@AAEX_K_N@Z 100a9a50 f i libucrtd:output.obj
 0002:00047b80       ??$type_case_integer_parse_into_buffer@_K$07@?$output_processor@_WV?$stream_output_adapter@_W@__crt_stdio_output@@V?$positional_parameter_base@_WV?$stream_output_adapter@_W@__crt_stdio_output@@@2@@__crt_stdio_output@@AAEX_K_N@Z 100a9b80 f i libucrtd:output.obj
 0002:00047cb0       ??$type_case_integer_parse_into_buffer@_K$07@?$output_processor@_WV?$stream_output_adapter@_W@__crt_stdio_output@@V?$standard_base@_WV?$stream_output_adapter@_W@__crt_stdio_output@@@2@@__crt_stdio_output@@AAEX_K_N@Z 100a9cb0 f i libucrtd:output.obj
 0002:00047de0       ??$type_case_integer_parse_into_buffer@_K$07@?$output_processor@_WV?$string_output_adapter@_W@__crt_stdio_output@@V?$format_validation_base@_WV?$string_output_adapter@_W@__crt_stdio_output@@@2@@__crt_stdio_output@@AAEX_K_N@Z 100a9de0 f i libucrtd:output.obj
 0002:00047f10       ??$type_case_integer_parse_into_buffer@_K$07@?$output_processor@_WV?$string_output_adapter@_W@__crt_stdio_output@@V?$positional_parameter_base@_WV?$string_output_adapter@_W@__crt_stdio_output@@@2@@__crt_stdio_output@@AAEX_K_N@Z 100a9f10 f i libucrtd:output.obj
 0002:00048040       ??$type_case_integer_parse_into_buffer@_K$07@?$output_processor@_WV?$string_output_adapter@_W@__crt_stdio_output@@V?$standard_base@_WV?$string_output_adapter@_W@__crt_stdio_output@@@2@@__crt_stdio_output@@AAEX_K_N@Z 100aa040 f i libucrtd:output.obj
 0002:00048170       ??$type_case_integer_parse_into_buffer@_K$09@?$output_processor@DV?$stream_output_adapter@D@__crt_stdio_output@@V?$format_validation_base@DV?$stream_output_adapter@D@__crt_stdio_output@@@2@@__crt_stdio_output@@AAEX_K_N@Z 100aa170 f i libucrtd:output.obj
 0002:000482a0       ??$type_case_integer_parse_into_buffer@_K$09@?$output_processor@DV?$stream_output_adapter@D@__crt_stdio_output@@V?$positional_parameter_base@DV?$stream_output_adapter@D@__crt_stdio_output@@@2@@__crt_stdio_output@@AAEX_K_N@Z 100aa2a0 f i libucrtd:output.obj
 0002:000483d0       ??$type_case_integer_parse_into_buffer@_K$09@?$output_processor@DV?$stream_output_adapter@D@__crt_stdio_output@@V?$standard_base@DV?$stream_output_adapter@D@__crt_stdio_output@@@2@@__crt_stdio_output@@AAEX_K_N@Z 100aa3d0 f i libucrtd:output.obj
 0002:00048500       ??$type_case_integer_parse_into_buffer@_K$09@?$output_processor@DV?$string_output_adapter@D@__crt_stdio_output@@V?$format_validation_base@DV?$string_output_adapter@D@__crt_stdio_output@@@2@@__crt_stdio_output@@AAEX_K_N@Z 100aa500 f i libucrtd:output.obj
 0002:00048630       ??$type_case_integer_parse_into_buffer@_K$09@?$output_processor@DV?$string_output_adapter@D@__crt_stdio_output@@V?$positional_parameter_base@DV?$string_output_adapter@D@__crt_stdio_output@@@2@@__crt_stdio_output@@AAEX_K_N@Z 100aa630 f i libucrtd:output.obj
 0002:00048760       ??$type_case_integer_parse_into_buffer@_K$09@?$output_processor@DV?$string_output_adapter@D@__crt_stdio_output@@V?$standard_base@DV?$string_output_adapter@D@__crt_stdio_output@@@2@@__crt_stdio_output@@AAEX_K_N@Z 100aa760 f i libucrtd:output.obj
 0002:00048890       ??$type_case_integer_parse_into_buffer@_K$09@?$output_processor@_WV?$stream_output_adapter@_W@__crt_stdio_output@@V?$format_validation_base@_WV?$stream_output_adapter@_W@__crt_stdio_output@@@2@@__crt_stdio_output@@AAEX_K_N@Z 100aa890 f i libucrtd:output.obj
 0002:000489c0       ??$type_case_integer_parse_into_buffer@_K$09@?$output_processor@_WV?$stream_output_adapter@_W@__crt_stdio_output@@V?$positional_parameter_base@_WV?$stream_output_adapter@_W@__crt_stdio_output@@@2@@__crt_stdio_output@@AAEX_K_N@Z 100aa9c0 f i libucrtd:output.obj
 0002:00048af0       ??$type_case_integer_parse_into_buffer@_K$09@?$output_processor@_WV?$stream_output_adapter@_W@__crt_stdio_output@@V?$standard_base@_WV?$stream_output_adapter@_W@__crt_stdio_output@@@2@@__crt_stdio_output@@AAEX_K_N@Z 100aaaf0 f i libucrtd:output.obj
 0002:00048c20       ??$type_case_integer_parse_into_buffer@_K$09@?$output_processor@_WV?$string_output_adapter@_W@__crt_stdio_output@@V?$format_validation_base@_WV?$string_output_adapter@_W@__crt_stdio_output@@@2@@__crt_stdio_output@@AAEX_K_N@Z 100aac20 f i libucrtd:output.obj
 0002:00048d50       ??$type_case_integer_parse_into_buffer@_K$09@?$output_processor@_WV?$string_output_adapter@_W@__crt_stdio_output@@V?$positional_parameter_base@_WV?$string_output_adapter@_W@__crt_stdio_output@@@2@@__crt_stdio_output@@AAEX_K_N@Z 100aad50 f i libucrtd:output.obj
 0002:00048e80       ??$type_case_integer_parse_into_buffer@_K$09@?$output_processor@_WV?$string_output_adapter@_W@__crt_stdio_output@@V?$standard_base@_WV?$string_output_adapter@_W@__crt_stdio_output@@@2@@__crt_stdio_output@@AAEX_K_N@Z 100aae80 f i libucrtd:output.obj
 0002:00048fb0       ??$type_case_integer_parse_into_buffer@_K$0BA@@?$output_processor@DV?$stream_output_adapter@D@__crt_stdio_output@@V?$format_validation_base@DV?$stream_output_adapter@D@__crt_stdio_output@@@2@@__crt_stdio_output@@AAEX_K_N@Z 100aafb0 f i libucrtd:output.obj
 0002:000490e0       ??$type_case_integer_parse_into_buffer@_K$0BA@@?$output_processor@DV?$stream_output_adapter@D@__crt_stdio_output@@V?$positional_parameter_base@DV?$stream_output_adapter@D@__crt_stdio_output@@@2@@__crt_stdio_output@@AAEX_K_N@Z 100ab0e0 f i libucrtd:output.obj
 0002:00049210       ??$type_case_integer_parse_into_buffer@_K$0BA@@?$output_processor@DV?$stream_output_adapter@D@__crt_stdio_output@@V?$standard_base@DV?$stream_output_adapter@D@__crt_stdio_output@@@2@@__crt_stdio_output@@AAEX_K_N@Z 100ab210 f i libucrtd:output.obj
 0002:00049340       ??$type_case_integer_parse_into_buffer@_K$0BA@@?$output_processor@DV?$string_output_adapter@D@__crt_stdio_output@@V?$format_validation_base@DV?$string_output_adapter@D@__crt_stdio_output@@@2@@__crt_stdio_output@@AAEX_K_N@Z 100ab340 f i libucrtd:output.obj
 0002:00049470       ??$type_case_integer_parse_into_buffer@_K$0BA@@?$output_processor@DV?$string_output_adapter@D@__crt_stdio_output@@V?$positional_parameter_base@DV?$string_output_adapter@D@__crt_stdio_output@@@2@@__crt_stdio_output@@AAEX_K_N@Z 100ab470 f i libucrtd:output.obj
 0002:000495a0       ??$type_case_integer_parse_into_buffer@_K$0BA@@?$output_processor@DV?$string_output_adapter@D@__crt_stdio_output@@V?$standard_base@DV?$string_output_adapter@D@__crt_stdio_output@@@2@@__crt_stdio_output@@AAEX_K_N@Z 100ab5a0 f i libucrtd:output.obj
 0002:000496d0       ??$type_case_integer_parse_into_buffer@_K$0BA@@?$output_processor@_WV?$stream_output_adapter@_W@__crt_stdio_output@@V?$format_validation_base@_WV?$stream_output_adapter@_W@__crt_stdio_output@@@2@@__crt_stdio_output@@AAEX_K_N@Z 100ab6d0 f i libucrtd:output.obj
 0002:00049800       ??$type_case_integer_parse_into_buffer@_K$0BA@@?$output_processor@_WV?$stream_output_adapter@_W@__crt_stdio_output@@V?$positional_parameter_base@_WV?$stream_output_adapter@_W@__crt_stdio_output@@@2@@__crt_stdio_output@@AAEX_K_N@Z 100ab800 f i libucrtd:output.obj
 0002:00049930       ??$type_case_integer_parse_into_buffer@_K$0BA@@?$output_processor@_WV?$stream_output_adapter@_W@__crt_stdio_output@@V?$standard_base@_WV?$stream_output_adapter@_W@__crt_stdio_output@@@2@@__crt_stdio_output@@AAEX_K_N@Z 100ab930 f i libucrtd:output.obj
 0002:00049a60       ??$type_case_integer_parse_into_buffer@_K$0BA@@?$output_processor@_WV?$string_output_adapter@_W@__crt_stdio_output@@V?$format_validation_base@_WV?$string_output_adapter@_W@__crt_stdio_output@@@2@@__crt_stdio_output@@AAEX_K_N@Z 100aba60 f i libucrtd:output.obj
 0002:00049b90       ??$type_case_integer_parse_into_buffer@_K$0BA@@?$output_processor@_WV?$string_output_adapter@_W@__crt_stdio_output@@V?$positional_parameter_base@_WV?$string_output_adapter@_W@__crt_stdio_output@@@2@@__crt_stdio_output@@AAEX_K_N@Z 100abb90 f i libucrtd:output.obj
 0002:00049cc0       ??$type_case_integer_parse_into_buffer@_K$0BA@@?$output_processor@_WV?$string_output_adapter@_W@__crt_stdio_output@@V?$standard_base@_WV?$string_output_adapter@_W@__crt_stdio_output@@@2@@__crt_stdio_output@@AAEX_K_N@Z 100abcc0 f i libucrtd:output.obj
 0002:00049df0       ??$write_multiple_characters@V?$stream_output_adapter@D@__crt_stdio_output@@D@__crt_stdio_output@@YAXABV?$stream_output_adapter@D@0@DHQAHAAV__crt_cached_ptd_host@@@Z 100abdf0 f i libucrtd:output.obj
 0002:00049e50       ??$write_multiple_characters@V?$stream_output_adapter@_W@__crt_stdio_output@@D@__crt_stdio_output@@YAXABV?$stream_output_adapter@_W@0@DHQAHAAV__crt_cached_ptd_host@@@Z 100abe50 f i libucrtd:output.obj
 0002:00049eb0       ??$write_multiple_characters@V?$string_output_adapter@D@__crt_stdio_output@@D@__crt_stdio_output@@YAXABV?$string_output_adapter@D@0@DHQAHAAV__crt_cached_ptd_host@@@Z 100abeb0 f i libucrtd:output.obj
 0002:00049f10       ??$write_multiple_characters@V?$string_output_adapter@_W@__crt_stdio_output@@D@__crt_stdio_output@@YAXABV?$string_output_adapter@_W@0@DHQAHAAV__crt_cached_ptd_host@@@Z 100abf10 f i libucrtd:output.obj
 0002:0004a390       ??0?$c_string_character_source@D@__crt_strtox@@QAE@QBDQAPBD@Z 100ac390 f i libucrtd:output.obj
 0002:0004a3d0       ??0?$c_string_character_source@_W@__crt_strtox@@QAE@QB_WQAPB_W@Z 100ac3d0 f i libucrtd:output.obj
 0002:0004a410       ??0?$cached@H@__crt_cached_ptd_host@@QAE@XZ 100ac410 f i libucrtd:output.obj
 0002:0004a430       ??0?$cached@K@__crt_cached_ptd_host@@QAE@XZ 100ac430 f i libucrtd:output.obj
 0002:0004a450       ??0?$common_data@D@__crt_stdio_output@@IAE@AAV__crt_cached_ptd_host@@@Z 100ac450 f i libucrtd:output.obj
 0002:0004a510       ??0?$common_data@_W@__crt_stdio_output@@IAE@AAV__crt_cached_ptd_host@@@Z 100ac510 f i libucrtd:output.obj
 0002:0004a5d0       ??0?$output_adapter_data@DV?$stream_output_adapter@D@__crt_stdio_output@@@__crt_stdio_output@@IAE@ABV?$stream_output_adapter@D@1@_KQBDAAV__crt_cached_ptd_host@@QAD@Z 100ac5d0 f i libucrtd:output.obj
 0002:0004a670       ??0?$output_adapter_data@DV?$string_output_adapter@D@__crt_stdio_output@@@__crt_stdio_output@@IAE@ABV?$string_output_adapter@D@1@_KQBDAAV__crt_cached_ptd_host@@QAD@Z 100ac670 f i libucrtd:output.obj
 0002:0004a710       ??0?$output_adapter_data@_WV?$stream_output_adapter@_W@__crt_stdio_output@@@__crt_stdio_output@@IAE@ABV?$stream_output_adapter@_W@1@_KQB_WAAV__crt_cached_ptd_host@@QAD@Z 100ac710 f i libucrtd:output.obj
 0002:0004a7b0       ??0?$output_adapter_data@_WV?$string_output_adapter@_W@__crt_stdio_output@@@__crt_stdio_output@@IAE@ABV?$string_output_adapter@_W@1@_KQB_WAAV__crt_cached_ptd_host@@QAD@Z 100ac7b0 f i libucrtd:output.obj
 0002:0004a850       ??0?$output_processor@DV?$stream_output_adapter@D@__crt_stdio_output@@V?$format_validation_base@DV?$stream_output_adapter@D@__crt_stdio_output@@@2@@__crt_stdio_output@@QAE@ABV?$stream_output_adapter@D@1@_KQBDAAV__crt_cached_ptd_host@@QAD@Z 100ac850 f i libucrtd:output.obj
 0002:0004a890       ??0?$output_processor@DV?$stream_output_adapter@D@__crt_stdio_output@@V?$positional_parameter_base@DV?$stream_output_adapter@D@__crt_stdio_output@@@2@@__crt_stdio_output@@QAE@ABV?$stream_output_adapter@D@1@_KQBDAAV__crt_cached_ptd_host@@QAD@Z 100ac890 f i libucrtd:output.obj
 0002:0004a8d0       ??0?$output_processor@DV?$stream_output_adapter@D@__crt_stdio_output@@V?$standard_base@DV?$stream_output_adapter@D@__crt_stdio_output@@@2@@__crt_stdio_output@@QAE@ABV?$stream_output_adapter@D@1@_KQBDAAV__crt_cached_ptd_host@@QAD@Z 100ac8d0 f i libucrtd:output.obj
 0002:0004a910       ??0?$output_processor@DV?$string_output_adapter@D@__crt_stdio_output@@V?$format_validation_base@DV?$string_output_adapter@D@__crt_stdio_output@@@2@@__crt_stdio_output@@QAE@ABV?$string_output_adapter@D@1@_KQBDAAV__crt_cached_ptd_host@@QAD@Z 100ac910 f i libucrtd:output.obj
 0002:0004a950       ??0?$output_processor@DV?$string_output_adapter@D@__crt_stdio_output@@V?$positional_parameter_base@DV?$string_output_adapter@D@__crt_stdio_output@@@2@@__crt_stdio_output@@QAE@ABV?$string_output_adapter@D@1@_KQBDAAV__crt_cached_ptd_host@@QAD@Z 100ac950 f i libucrtd:output.obj
 0002:0004a990       ??0?$output_processor@DV?$string_output_adapter@D@__crt_stdio_output@@V?$standard_base@DV?$string_output_adapter@D@__crt_stdio_output@@@2@@__crt_stdio_output@@QAE@ABV?$string_output_adapter@D@1@_KQBDAAV__crt_cached_ptd_host@@QAD@Z 100ac990 f i libucrtd:output.obj
 0002:0004a9d0       ??0?$output_processor@_WV?$stream_output_adapter@_W@__crt_stdio_output@@V?$format_validation_base@_WV?$stream_output_adapter@_W@__crt_stdio_output@@@2@@__crt_stdio_output@@QAE@ABV?$stream_output_adapter@_W@1@_KQB_WAAV__crt_cached_ptd_host@@QAD@Z 100ac9d0 f i libucrtd:output.obj
 0002:0004aa10       ??0?$output_processor@_WV?$stream_output_adapter@_W@__crt_stdio_output@@V?$positional_parameter_base@_WV?$stream_output_adapter@_W@__crt_stdio_output@@@2@@__crt_stdio_output@@QAE@ABV?$stream_output_adapter@_W@1@_KQB_WAAV__crt_cached_ptd_host@@QAD@Z 100aca10 f i libucrtd:output.obj
 0002:0004aa50       ??0?$output_processor@_WV?$stream_output_adapter@_W@__crt_stdio_output@@V?$standard_base@_WV?$stream_output_adapter@_W@__crt_stdio_output@@@2@@__crt_stdio_output@@QAE@ABV?$stream_output_adapter@_W@1@_KQB_WAAV__crt_cached_ptd_host@@QAD@Z 100aca50 f i libucrtd:output.obj
 0002:0004aa90       ??0?$output_processor@_WV?$string_output_adapter@_W@__crt_stdio_output@@V?$format_validation_base@_WV?$string_output_adapter@_W@__crt_stdio_output@@@2@@__crt_stdio_output@@QAE@ABV?$string_output_adapter@_W@1@_KQB_WAAV__crt_cached_ptd_host@@QAD@Z 100aca90 f i libucrtd:output.obj
 0002:0004aad0       ??0?$output_processor@_WV?$string_output_adapter@_W@__crt_stdio_output@@V?$positional_parameter_base@_WV?$string_output_adapter@_W@__crt_stdio_output@@@2@@__crt_stdio_output@@QAE@ABV?$string_output_adapter@_W@1@_KQB_WAAV__crt_cached_ptd_host@@QAD@Z 100acad0 f i libucrtd:output.obj
 0002:0004ab10       ??0?$output_processor@_WV?$string_output_adapter@_W@__crt_stdio_output@@V?$standard_base@_WV?$string_output_adapter@_W@__crt_stdio_output@@@2@@__crt_stdio_output@@QAE@ABV?$string_output_adapter@_W@1@_KQB_WAAV__crt_cached_ptd_host@@QAD@Z 100acb10 f i libucrtd:output.obj
 0002:0004ab50       ??0?$stream_output_adapter@D@__crt_stdio_output@@QAE@QAU_iobuf@@@Z 100acb50 f i libucrtd:output.obj
 0002:0004ab80       ??0?$stream_output_adapter@_W@__crt_stdio_output@@QAE@QAU_iobuf@@@Z 100acb80 f i libucrtd:output.obj
 0002:0004abb0       ??0?$string_output_adapter@D@__crt_stdio_output@@QAE@QAU?$string_output_adapter_context@D@1@@Z 100acbb0 f i libucrtd:output.obj
 0002:0004abd0       ??0?$string_output_adapter@_W@__crt_stdio_output@@QAE@QAU?$string_output_adapter_context@_W@1@@Z 100acbd0 f i libucrtd:output.obj
 0002:0004abf0       ??0__acrt_stdio_temporary_buffering_guard@@QAE@QAU_iobuf@@AAV__crt_cached_ptd_host@@@Z 100acbf0 f i libucrtd:output.obj
 0002:0004ac40       ??0__crt_cached_ptd_host@@QAE@QAU__crt_locale_pointers@@@Z 100acc40 f i libucrtd:output.obj
 0002:0004acf0       ??0__crt_scoped_get_last_error_reset@@QAE@XZ 100accf0 f i libucrtd:output.obj
 0002:0004ad20       ??0formatting_buffer@__crt_stdio_output@@QAE@XZ 100acd20 f i libucrtd:output.obj
 0002:0004ad70       ??0guard@?$cached@H@__crt_cached_ptd_host@@QAE@AAU12@@Z 100acd70 f i libucrtd:output.obj
 0002:0004adb0       ??1?$c_string_character_source@D@__crt_strtox@@QAE@XZ 100acdb0 f i libucrtd:output.obj
 0002:0004ade0       ??1?$c_string_character_source@_W@__crt_strtox@@QAE@XZ 100acde0 f i libucrtd:output.obj
 0002:0004ae10       ??1?$common_data@D@__crt_stdio_output@@QAE@XZ 100ace10 f i libucrtd:output.obj
 0002:0004ae30       ??1?$common_data@_W@__crt_stdio_output@@QAE@XZ 100ace30 f i libucrtd:output.obj
 0002:0004ae50       ??1?$format_validation_base@DV?$stream_output_adapter@D@__crt_stdio_output@@@__crt_stdio_output@@QAE@XZ 100ace50 f i libucrtd:output.obj
 0002:0004ae70       ??1?$format_validation_base@DV?$string_output_adapter@D@__crt_stdio_output@@@__crt_stdio_output@@QAE@XZ 100ace70 f i libucrtd:output.obj
 0002:0004ae90       ??1?$format_validation_base@_WV?$stream_output_adapter@_W@__crt_stdio_output@@@__crt_stdio_output@@QAE@XZ 100ace90 f i libucrtd:output.obj
 0002:0004aeb0       ??1?$format_validation_base@_WV?$string_output_adapter@_W@__crt_stdio_output@@@__crt_stdio_output@@QAE@XZ 100aceb0 f i libucrtd:output.obj
 0002:0004aed0       ??1?$output_adapter_data@DV?$stream_output_adapter@D@__crt_stdio_output@@@__crt_stdio_output@@QAE@XZ 100aced0 f i libucrtd:output.obj
 0002:0004aef0       ??1?$output_adapter_data@DV?$string_output_adapter@D@__crt_stdio_output@@@__crt_stdio_output@@QAE@XZ 100acef0 f i libucrtd:output.obj
 0002:0004af10       ??1?$output_adapter_data@_WV?$stream_output_adapter@_W@__crt_stdio_output@@@__crt_stdio_output@@QAE@XZ 100acf10 f i libucrtd:output.obj
 0002:0004af30       ??1?$output_adapter_data@_WV?$string_output_adapter@_W@__crt_stdio_output@@@__crt_stdio_output@@QAE@XZ 100acf30 f i libucrtd:output.obj
 0002:0004af50       ??1?$output_processor@DV?$stream_output_adapter@D@__crt_stdio_output@@V?$format_validation_base@DV?$stream_output_adapter@D@__crt_stdio_output@@@2@@__crt_stdio_output@@QAE@XZ 100acf50 f i libucrtd:output.obj
 0002:0004af70       ??1?$output_processor@DV?$stream_output_adapter@D@__crt_stdio_output@@V?$positional_parameter_base@DV?$stream_output_adapter@D@__crt_stdio_output@@@2@@__crt_stdio_output@@QAE@XZ 100acf70 f i libucrtd:output.obj
 0002:0004af90       ??1?$output_processor@DV?$stream_output_adapter@D@__crt_stdio_output@@V?$standard_base@DV?$stream_output_adapter@D@__crt_stdio_output@@@2@@__crt_stdio_output@@QAE@XZ 100acf90 f i libucrtd:output.obj
 0002:0004afb0       ??1?$output_processor@DV?$string_output_adapter@D@__crt_stdio_output@@V?$format_validation_base@DV?$string_output_adapter@D@__crt_stdio_output@@@2@@__crt_stdio_output@@QAE@XZ 100acfb0 f i libucrtd:output.obj
 0002:0004afd0       ??1?$output_processor@DV?$string_output_adapter@D@__crt_stdio_output@@V?$positional_parameter_base@DV?$string_output_adapter@D@__crt_stdio_output@@@2@@__crt_stdio_output@@QAE@XZ 100acfd0 f i libucrtd:output.obj
 0002:0004aff0       ??1?$output_processor@DV?$string_output_adapter@D@__crt_stdio_output@@V?$standard_base@DV?$string_output_adapter@D@__crt_stdio_output@@@2@@__crt_stdio_output@@QAE@XZ 100acff0 f i libucrtd:output.obj
 0002:0004b010       ??1?$output_processor@_WV?$stream_output_adapter@_W@__crt_stdio_output@@V?$format_validation_base@_WV?$stream_output_adapter@_W@__crt_stdio_output@@@2@@__crt_stdio_output@@QAE@XZ 100ad010 f i libucrtd:output.obj
 0002:0004b030       ??1?$output_processor@_WV?$stream_output_adapter@_W@__crt_stdio_output@@V?$positional_parameter_base@_WV?$stream_output_adapter@_W@__crt_stdio_output@@@2@@__crt_stdio_output@@QAE@XZ 100ad030 f i libucrtd:output.obj
 0002:0004b050       ??1?$output_processor@_WV?$stream_output_adapter@_W@__crt_stdio_output@@V?$standard_base@_WV?$stream_output_adapter@_W@__crt_stdio_output@@@2@@__crt_stdio_output@@QAE@XZ 100ad050 f i libucrtd:output.obj
 0002:0004b070       ??1?$output_processor@_WV?$string_output_adapter@_W@__crt_stdio_output@@V?$format_validation_base@_WV?$string_output_adapter@_W@__crt_stdio_output@@@2@@__crt_stdio_output@@QAE@XZ 100ad070 f i libucrtd:output.obj
 0002:0004b090       ??1?$output_processor@_WV?$string_output_adapter@_W@__crt_stdio_output@@V?$positional_parameter_base@_WV?$string_output_adapter@_W@__crt_stdio_output@@@2@@__crt_stdio_output@@QAE@XZ 100ad090 f i libucrtd:output.obj
 0002:0004b0b0       ??1?$output_processor@_WV?$string_output_adapter@_W@__crt_stdio_output@@V?$standard_base@_WV?$string_output_adapter@_W@__crt_stdio_output@@@2@@__crt_stdio_output@@QAE@XZ 100ad0b0 f i libucrtd:output.obj
 0002:0004b0d0       ??1?$positional_parameter_base@DV?$stream_output_adapter@D@__crt_stdio_output@@@__crt_stdio_output@@QAE@XZ 100ad0d0 f i libucrtd:output.obj
 0002:0004b0f0       ??1?$positional_parameter_base@DV?$string_output_adapter@D@__crt_stdio_output@@@__crt_stdio_output@@QAE@XZ 100ad0f0 f i libucrtd:output.obj
 0002:0004b110       ??1?$positional_parameter_base@_WV?$stream_output_adapter@_W@__crt_stdio_output@@@__crt_stdio_output@@QAE@XZ 100ad110 f i libucrtd:output.obj
 0002:0004b130       ??1?$positional_parameter_base@_WV?$string_output_adapter@_W@__crt_stdio_output@@@__crt_stdio_output@@QAE@XZ 100ad130 f i libucrtd:output.obj
 0002:0004b150       ??1?$standard_base@DV?$stream_output_adapter@D@__crt_stdio_output@@@__crt_stdio_output@@QAE@XZ 100ad150 f i libucrtd:output.obj
 0002:0004b170       ??1?$standard_base@DV?$string_output_adapter@D@__crt_stdio_output@@@__crt_stdio_output@@QAE@XZ 100ad170 f i libucrtd:output.obj
 0002:0004b190       ??1?$standard_base@_WV?$stream_output_adapter@_W@__crt_stdio_output@@@__crt_stdio_output@@QAE@XZ 100ad190 f i libucrtd:output.obj
 0002:0004b1b0       ??1?$standard_base@_WV?$string_output_adapter@_W@__crt_stdio_output@@@__crt_stdio_output@@QAE@XZ 100ad1b0 f i libucrtd:output.obj
 0002:0004b1d0       ??1__acrt_stdio_temporary_buffering_guard@@QAE@XZ 100ad1d0 f i libucrtd:output.obj
 0002:0004b210       ??1__crt_cached_ptd_host@@QAE@XZ 100ad210 f i libucrtd:output.obj
 0002:0004b2c0       ??1__crt_scoped_get_last_error_reset@@QAE@XZ 100ad2c0 f i libucrtd:output.obj
 0002:0004b2e0       ??1formatting_buffer@__crt_stdio_output@@QAE@XZ 100ad2e0 f i libucrtd:output.obj
 0002:0004b310       ??1guard@?$cached@H@__crt_cached_ptd_host@@QAE@XZ 100ad310 f i libucrtd:output.obj
 0002:0004b350       ??4?$__crt_unique_heap_ptr@DU__crt_internal_free_policy@@@@QAEAAV0@$$QAV0@@Z 100ad350 f i libucrtd:output.obj
 0002:0004b390       ??A?$spectre_mitigated_lookup_table@Ustate_transition_pair@__crt_stdio_output@@$0IA@@__crt_stdio_output@@QBEABUstate_transition_pair@1@I@Z 100ad390 f i libucrtd:output.obj
 0002:0004be40       ?adjust_hexit@?$output_processor@DV?$stream_output_adapter@D@__crt_stdio_output@@V?$format_validation_base@DV?$stream_output_adapter@D@__crt_stdio_output@@@2@@__crt_stdio_output@@CADH_N@Z 100ade40 f i libucrtd:output.obj
 0002:0004be90       ?adjust_hexit@?$output_processor@DV?$stream_output_adapter@D@__crt_stdio_output@@V?$positional_parameter_base@DV?$stream_output_adapter@D@__crt_stdio_output@@@2@@__crt_stdio_output@@CADH_N@Z 100ade90 f i libucrtd:output.obj
 0002:0004bee0       ?adjust_hexit@?$output_processor@DV?$stream_output_adapter@D@__crt_stdio_output@@V?$standard_base@DV?$stream_output_adapter@D@__crt_stdio_output@@@2@@__crt_stdio_output@@CADH_N@Z 100adee0 f i libucrtd:output.obj
 0002:0004bf30       ?adjust_hexit@?$output_processor@DV?$string_output_adapter@D@__crt_stdio_output@@V?$format_validation_base@DV?$string_output_adapter@D@__crt_stdio_output@@@2@@__crt_stdio_output@@CADH_N@Z 100adf30 f i libucrtd:output.obj
 0002:0004bf80       ?adjust_hexit@?$output_processor@DV?$string_output_adapter@D@__crt_stdio_output@@V?$positional_parameter_base@DV?$string_output_adapter@D@__crt_stdio_output@@@2@@__crt_stdio_output@@CADH_N@Z 100adf80 f i libucrtd:output.obj
 0002:0004bfd0       ?adjust_hexit@?$output_processor@DV?$string_output_adapter@D@__crt_stdio_output@@V?$standard_base@DV?$string_output_adapter@D@__crt_stdio_output@@@2@@__crt_stdio_output@@CADH_N@Z 100adfd0 f i libucrtd:output.obj
 0002:0004c020       ?adjust_hexit@?$output_processor@_WV?$stream_output_adapter@_W@__crt_stdio_output@@V?$format_validation_base@_WV?$stream_output_adapter@_W@__crt_stdio_output@@@2@@__crt_stdio_output@@CADH_N@Z 100ae020 f i libucrtd:output.obj
 0002:0004c070       ?adjust_hexit@?$output_processor@_WV?$stream_output_adapter@_W@__crt_stdio_output@@V?$positional_parameter_base@_WV?$stream_output_adapter@_W@__crt_stdio_output@@@2@@__crt_stdio_output@@CADH_N@Z 100ae070 f i libucrtd:output.obj
 0002:0004c0c0       ?adjust_hexit@?$output_processor@_WV?$stream_output_adapter@_W@__crt_stdio_output@@V?$standard_base@_WV?$stream_output_adapter@_W@__crt_stdio_output@@@2@@__crt_stdio_output@@CADH_N@Z 100ae0c0 f i libucrtd:output.obj
 0002:0004c110       ?adjust_hexit@?$output_processor@_WV?$string_output_adapter@_W@__crt_stdio_output@@V?$format_validation_base@_WV?$string_output_adapter@_W@__crt_stdio_output@@@2@@__crt_stdio_output@@CADH_N@Z 100ae110 f i libucrtd:output.obj
 0002:0004c160       ?adjust_hexit@?$output_processor@_WV?$string_output_adapter@_W@__crt_stdio_output@@V?$positional_parameter_base@_WV?$string_output_adapter@_W@__crt_stdio_output@@@2@@__crt_stdio_output@@CADH_N@Z 100ae160 f i libucrtd:output.obj
 0002:0004c1b0       ?adjust_hexit@?$output_processor@_WV?$string_output_adapter@_W@__crt_stdio_output@@V?$standard_base@_WV?$string_output_adapter@_W@__crt_stdio_output@@@2@@__crt_stdio_output@@CADH_N@Z 100ae1b0 f i libucrtd:output.obj
 0002:0004c200       ?advance_to_next_pass@?$positional_parameter_base@DV?$stream_output_adapter@D@__crt_stdio_output@@@__crt_stdio_output@@IAE_NXZ 100ae200 f i libucrtd:output.obj
 0002:0004c2c0       ?advance_to_next_pass@?$positional_parameter_base@DV?$string_output_adapter@D@__crt_stdio_output@@@__crt_stdio_output@@IAE_NXZ 100ae2c0 f i libucrtd:output.obj
 0002:0004c380       ?advance_to_next_pass@?$positional_parameter_base@_WV?$stream_output_adapter@_W@__crt_stdio_output@@@__crt_stdio_output@@IAE_NXZ 100ae380 f i libucrtd:output.obj
 0002:0004c440       ?advance_to_next_pass@?$positional_parameter_base@_WV?$string_output_adapter@_W@__crt_stdio_output@@@__crt_stdio_output@@IAE_NXZ 100ae440 f i libucrtd:output.obj
 0002:0004c500       ?advance_to_next_pass@?$standard_base@DV?$stream_output_adapter@D@__crt_stdio_output@@@__crt_stdio_output@@IAE_NXZ 100ae500 f i libucrtd:output.obj
 0002:0004c560       ?advance_to_next_pass@?$standard_base@DV?$string_output_adapter@D@__crt_stdio_output@@@__crt_stdio_output@@IAE_NXZ 100ae560 f i libucrtd:output.obj
 0002:0004c5c0       ?advance_to_next_pass@?$standard_base@_WV?$stream_output_adapter@_W@__crt_stdio_output@@@__crt_stdio_output@@IAE_NXZ 100ae5c0 f i libucrtd:output.obj
 0002:0004c620       ?advance_to_next_pass@?$standard_base@_WV?$string_output_adapter@_W@__crt_stdio_output@@@__crt_stdio_output@@IAE_NXZ 100ae620 f i libucrtd:output.obj
 0002:0004c680       ?check@?$cached@H@__crt_cached_ptd_host@@QBE_NH@Z 100ae680 f i libucrtd:output.obj
 0002:0004c6d0       ?check_synchronize_global_state_index@__crt_cached_ptd_host@@AAEIABV__crt_scoped_get_last_error_reset@@@Z 100ae6d0 f i libucrtd:output.obj
 0002:0004c710       ?check_synchronize_per_thread_data@__crt_cached_ptd_host@@AAEPAU__acrt_ptd@@XZ 100ae710 f i libucrtd:output.obj
 0002:0004c750       ?create_guard@?$cached@H@__crt_cached_ptd_host@@QAE?AVguard@12@XZ 100ae750 f i libucrtd:output.obj
 0002:0004c780       ?crop_zeroes@__crt_stdio_output@@YAXPADQAU__crt_locale_pointers@@@Z 100ae780 f i libucrtd:output.obj
 0002:0004c8c0       ?disable@guard@?$cached@H@__crt_cached_ptd_host@@QAEXXZ 100ae8c0 f i libucrtd:output.obj
 0002:0004c8e0       ?enable@guard@?$cached@H@__crt_cached_ptd_host@@QAEXXZ 100ae8e0 f i libucrtd:output.obj
 0002:0004c900       ?find_next_state@?$output_processor@DV?$stream_output_adapter@D@__crt_stdio_output@@V?$format_validation_base@DV?$stream_output_adapter@D@__crt_stdio_output@@@2@@__crt_stdio_output@@ABE?AW4state@2@DW432@@Z 100ae900 f i libucrtd:output.obj
 0002:0004c9d0       ?find_next_state@?$output_processor@DV?$stream_output_adapter@D@__crt_stdio_output@@V?$positional_parameter_base@DV?$stream_output_adapter@D@__crt_stdio_output@@@2@@__crt_stdio_output@@ABE?AW4state@2@DW432@@Z 100ae9d0 f i libucrtd:output.obj
 0002:0004caa0       ?find_next_state@?$output_processor@DV?$stream_output_adapter@D@__crt_stdio_output@@V?$standard_base@DV?$stream_output_adapter@D@__crt_stdio_output@@@2@@__crt_stdio_output@@ABE?AW4state@2@DW432@@Z 100aeaa0 f i libucrtd:output.obj
 0002:0004cb70       ?find_next_state@?$output_processor@DV?$string_output_adapter@D@__crt_stdio_output@@V?$format_validation_base@DV?$string_output_adapter@D@__crt_stdio_output@@@2@@__crt_stdio_output@@ABE?AW4state@2@DW432@@Z 100aeb70 f i libucrtd:output.obj
 0002:0004cc40       ?find_next_state@?$output_processor@DV?$string_output_adapter@D@__crt_stdio_output@@V?$positional_parameter_base@DV?$string_output_adapter@D@__crt_stdio_output@@@2@@__crt_stdio_output@@ABE?AW4state@2@DW432@@Z 100aec40 f i libucrtd:output.obj
 0002:0004cd10       ?find_next_state@?$output_processor@DV?$string_output_adapter@D@__crt_stdio_output@@V?$standard_base@DV?$string_output_adapter@D@__crt_stdio_output@@@2@@__crt_stdio_output@@ABE?AW4state@2@DW432@@Z 100aed10 f i libucrtd:output.obj
 0002:0004cde0       ?find_next_state@?$output_processor@_WV?$stream_output_adapter@_W@__crt_stdio_output@@V?$format_validation_base@_WV?$stream_output_adapter@_W@__crt_stdio_output@@@2@@__crt_stdio_output@@ABE?AW4state@2@_WW432@@Z 100aede0 f i libucrtd:output.obj
 0002:0004ceb0       ?find_next_state@?$output_processor@_WV?$stream_output_adapter@_W@__crt_stdio_output@@V?$positional_parameter_base@_WV?$stream_output_adapter@_W@__crt_stdio_output@@@2@@__crt_stdio_output@@ABE?AW4state@2@_WW432@@Z 100aeeb0 f i libucrtd:output.obj
 0002:0004cf80       ?find_next_state@?$output_processor@_WV?$stream_output_adapter@_W@__crt_stdio_output@@V?$standard_base@_WV?$stream_output_adapter@_W@__crt_stdio_output@@@2@@__crt_stdio_output@@ABE?AW4state@2@_WW432@@Z 100aef80 f i libucrtd:output.obj
 0002:0004d050       ?find_next_state@?$output_processor@_WV?$string_output_adapter@_W@__crt_stdio_output@@V?$format_validation_base@_WV?$string_output_adapter@_W@__crt_stdio_output@@@2@@__crt_stdio_output@@ABE?AW4state@2@_WW432@@Z 100af050 f i libucrtd:output.obj
 0002:0004d120       ?find_next_state@?$output_processor@_WV?$string_output_adapter@_W@__crt_stdio_output@@V?$positional_parameter_base@_WV?$string_output_adapter@_W@__crt_stdio_output@@@2@@__crt_stdio_output@@ABE?AW4state@2@_WW432@@Z 100af120 f i libucrtd:output.obj
 0002:0004d1f0       ?find_next_state@?$output_processor@_WV?$string_output_adapter@_W@__crt_stdio_output@@V?$standard_base@_WV?$string_output_adapter@_W@__crt_stdio_output@@@2@@__crt_stdio_output@@ABE?AW4state@2@_WW432@@Z 100af1f0 f i libucrtd:output.obj
 0002:0004d2c0       ?force_decimal_point@__crt_stdio_output@@YAXPADQAU__crt_locale_pointers@@@Z 100af2c0 f i libucrtd:output.obj
 0002:0004d3c0       ?force_synchronize_global_state_index@__crt_cached_ptd_host@@AAEIABV__crt_scoped_get_last_error_reset@@@Z 100af3c0 f i libucrtd:output.obj
 0002:0004d400       ?force_synchronize_per_thread_data@__crt_cached_ptd_host@@AAEPAU__acrt_ptd@@XZ 100af400 f i libucrtd:output.obj
 0002:0004d460       ?get@?$c_string_character_source@D@__crt_strtox@@QAEDXZ 100af460 f i libucrtd:output.obj
 0002:0004d4a0       ?get@?$c_string_character_source@_W@__crt_strtox@@QAE_WXZ 100af4a0 f i libucrtd:output.obj
 0002:0004d4e0       ?get_current_state_index@__crt_state_management@@YAIABV__crt_scoped_get_last_error_reset@@@Z 100af4e0 f i libucrtd:output.obj
 0002:0004d4f0       ?get_errno@__crt_cached_ptd_host@@QAEAAU?$cached@H@1@XZ 100af4f0 f i libucrtd:output.obj
 0002:0004d510       ?get_flags@__crt_stdio_stream@@QBEJXZ 100af510 f i libucrtd:output.obj
 0002:0004d540       ?get_locale@__crt_cached_ptd_host@@QAEPAU__crt_locale_pointers@@XZ 100af540 f i libucrtd:output.obj
 0002:0004d570       ?get_parameter_type@?$positional_parameter_base@DV?$stream_output_adapter@D@__crt_stdio_output@@@__crt_stdio_output@@CA?AW4parameter_type@12@F@Z 100af570 f i libucrtd:output.obj
 0002:0004d580       ?get_parameter_type@?$positional_parameter_base@DV?$stream_output_adapter@D@__crt_stdio_output@@@__crt_stdio_output@@CA?AW4parameter_type@12@G@Z 100af580 f i libucrtd:output.obj
 0002:0004d590       ?get_parameter_type@?$positional_parameter_base@DV?$stream_output_adapter@D@__crt_stdio_output@@@__crt_stdio_output@@CA?AW4parameter_type@12@H@Z 100af590 f i libucrtd:output.obj
 0002:0004d5a0       ?get_parameter_type@?$positional_parameter_base@DV?$stream_output_adapter@D@__crt_stdio_output@@@__crt_stdio_output@@CA?AW4parameter_type@12@I@Z 100af5a0 f i libucrtd:output.obj
 0002:0004d5b0       ?get_parameter_type@?$positional_parameter_base@DV?$stream_output_adapter@D@__crt_stdio_output@@@__crt_stdio_output@@CA?AW4parameter_type@12@U_CRT_DOUBLE@@@Z 100af5b0 f i libucrtd:output.obj
 0002:0004d5c0       ?get_parameter_type@?$positional_parameter_base@DV?$stream_output_adapter@D@__crt_stdio_output@@@__crt_stdio_output@@CA?AW4parameter_type@12@_J@Z 100af5c0 f i libucrtd:output.obj
 0002:0004d5d0       ?get_parameter_type@?$positional_parameter_base@DV?$stream_output_adapter@D@__crt_stdio_output@@@__crt_stdio_output@@CA?AW4parameter_type@12@_K@Z 100af5d0 f i libucrtd:output.obj
 0002:0004d5e0       ?get_parameter_type@?$positional_parameter_base@DV?$stream_output_adapter@D@__crt_stdio_output@@@__crt_stdio_output@@CA?AW4parameter_type@12@_W@Z 100af5e0 f i libucrtd:output.obj
 0002:0004d5f0       ?get_parameter_type@?$positional_parameter_base@DV?$string_output_adapter@D@__crt_stdio_output@@@__crt_stdio_output@@CA?AW4parameter_type@12@F@Z 100af5f0 f i libucrtd:output.obj
 0002:0004d600       ?get_parameter_type@?$positional_parameter_base@DV?$string_output_adapter@D@__crt_stdio_output@@@__crt_stdio_output@@CA?AW4parameter_type@12@G@Z 100af600 f i libucrtd:output.obj
 0002:0004d610       ?get_parameter_type@?$positional_parameter_base@DV?$string_output_adapter@D@__crt_stdio_output@@@__crt_stdio_output@@CA?AW4parameter_type@12@H@Z 100af610 f i libucrtd:output.obj
 0002:0004d620       ?get_parameter_type@?$positional_parameter_base@DV?$string_output_adapter@D@__crt_stdio_output@@@__crt_stdio_output@@CA?AW4parameter_type@12@I@Z 100af620 f i libucrtd:output.obj
 0002:0004d630       ?get_parameter_type@?$positional_parameter_base@DV?$string_output_adapter@D@__crt_stdio_output@@@__crt_stdio_output@@CA?AW4parameter_type@12@U_CRT_DOUBLE@@@Z 100af630 f i libucrtd:output.obj
 0002:0004d640       ?get_parameter_type@?$positional_parameter_base@DV?$string_output_adapter@D@__crt_stdio_output@@@__crt_stdio_output@@CA?AW4parameter_type@12@_J@Z 100af640 f i libucrtd:output.obj
 0002:0004d650       ?get_parameter_type@?$positional_parameter_base@DV?$string_output_adapter@D@__crt_stdio_output@@@__crt_stdio_output@@CA?AW4parameter_type@12@_K@Z 100af650 f i libucrtd:output.obj
 0002:0004d660       ?get_parameter_type@?$positional_parameter_base@DV?$string_output_adapter@D@__crt_stdio_output@@@__crt_stdio_output@@CA?AW4parameter_type@12@_W@Z 100af660 f i libucrtd:output.obj
 0002:0004d670       ?get_parameter_type@?$positional_parameter_base@_WV?$stream_output_adapter@_W@__crt_stdio_output@@@__crt_stdio_output@@CA?AW4parameter_type@12@F@Z 100af670 f i libucrtd:output.obj
 0002:0004d680       ?get_parameter_type@?$positional_parameter_base@_WV?$stream_output_adapter@_W@__crt_stdio_output@@@__crt_stdio_output@@CA?AW4parameter_type@12@G@Z 100af680 f i libucrtd:output.obj
 0002:0004d690       ?get_parameter_type@?$positional_parameter_base@_WV?$stream_output_adapter@_W@__crt_stdio_output@@@__crt_stdio_output@@CA?AW4parameter_type@12@H@Z 100af690 f i libucrtd:output.obj
 0002:0004d6a0       ?get_parameter_type@?$positional_parameter_base@_WV?$stream_output_adapter@_W@__crt_stdio_output@@@__crt_stdio_output@@CA?AW4parameter_type@12@I@Z 100af6a0 f i libucrtd:output.obj
 0002:0004d6b0       ?get_parameter_type@?$positional_parameter_base@_WV?$stream_output_adapter@_W@__crt_stdio_output@@@__crt_stdio_output@@CA?AW4parameter_type@12@U_CRT_DOUBLE@@@Z 100af6b0 f i libucrtd:output.obj
 0002:0004d6c0       ?get_parameter_type@?$positional_parameter_base@_WV?$stream_output_adapter@_W@__crt_stdio_output@@@__crt_stdio_output@@CA?AW4parameter_type@12@_J@Z 100af6c0 f i libucrtd:output.obj
 0002:0004d6d0       ?get_parameter_type@?$positional_parameter_base@_WV?$stream_output_adapter@_W@__crt_stdio_output@@@__crt_stdio_output@@CA?AW4parameter_type@12@_K@Z 100af6d0 f i libucrtd:output.obj
 0002:0004d6e0       ?get_parameter_type@?$positional_parameter_base@_WV?$stream_output_adapter@_W@__crt_stdio_output@@@__crt_stdio_output@@CA?AW4parameter_type@12@_W@Z 100af6e0 f i libucrtd:output.obj
 0002:0004d6f0       ?get_parameter_type@?$positional_parameter_base@_WV?$string_output_adapter@_W@__crt_stdio_output@@@__crt_stdio_output@@CA?AW4parameter_type@12@F@Z 100af6f0 f i libucrtd:output.obj
 0002:0004d700       ?get_parameter_type@?$positional_parameter_base@_WV?$string_output_adapter@_W@__crt_stdio_output@@@__crt_stdio_output@@CA?AW4parameter_type@12@G@Z 100af700 f i libucrtd:output.obj
 0002:0004d710       ?get_parameter_type@?$positional_parameter_base@_WV?$string_output_adapter@_W@__crt_stdio_output@@@__crt_stdio_output@@CA?AW4parameter_type@12@H@Z 100af710 f i libucrtd:output.obj
 0002:0004d720       ?get_parameter_type@?$positional_parameter_base@_WV?$string_output_adapter@_W@__crt_stdio_output@@@__crt_stdio_output@@CA?AW4parameter_type@12@I@Z 100af720 f i libucrtd:output.obj
 0002:0004d730       ?get_parameter_type@?$positional_parameter_base@_WV?$string_output_adapter@_W@__crt_stdio_output@@@__crt_stdio_output@@CA?AW4parameter_type@12@U_CRT_DOUBLE@@@Z 100af730 f i libucrtd:output.obj
 0002:0004d740       ?get_parameter_type@?$positional_parameter_base@_WV?$string_output_adapter@_W@__crt_stdio_output@@@__crt_stdio_output@@CA?AW4parameter_type@12@_J@Z 100af740 f i libucrtd:output.obj
 0002:0004d750       ?get_parameter_type@?$positional_parameter_base@_WV?$string_output_adapter@_W@__crt_stdio_output@@@__crt_stdio_output@@CA?AW4parameter_type@12@_K@Z 100af750 f i libucrtd:output.obj
 0002:0004d760       ?get_parameter_type@?$positional_parameter_base@_WV?$string_output_adapter@_W@__crt_stdio_output@@@__crt_stdio_output@@CA?AW4parameter_type@12@_W@Z 100af760 f i libucrtd:output.obj
 0002:0004d770       ?get_raw_ptd@__crt_cached_ptd_host@@QAEPAU__acrt_ptd@@XZ 100af770 f i libucrtd:output.obj
 0002:0004d790       ?has_flag@?$output_processor@DV?$stream_output_adapter@D@__crt_stdio_output@@V?$format_validation_base@DV?$stream_output_adapter@D@__crt_stdio_output@@@2@@__crt_stdio_output@@ABE_NI@Z 100af790 f i libucrtd:output.obj
 0002:0004d7d0       ?has_flag@?$output_processor@DV?$stream_output_adapter@D@__crt_stdio_output@@V?$positional_parameter_base@DV?$stream_output_adapter@D@__crt_stdio_output@@@2@@__crt_stdio_output@@ABE_NI@Z 100af7d0 f i libucrtd:output.obj
 0002:0004d810       ?has_flag@?$output_processor@DV?$stream_output_adapter@D@__crt_stdio_output@@V?$standard_base@DV?$stream_output_adapter@D@__crt_stdio_output@@@2@@__crt_stdio_output@@ABE_NI@Z 100af810 f i libucrtd:output.obj
 0002:0004d850       ?has_flag@?$output_processor@DV?$string_output_adapter@D@__crt_stdio_output@@V?$format_validation_base@DV?$string_output_adapter@D@__crt_stdio_output@@@2@@__crt_stdio_output@@ABE_NI@Z 100af850 f i libucrtd:output.obj
 0002:0004d890       ?has_flag@?$output_processor@DV?$string_output_adapter@D@__crt_stdio_output@@V?$positional_parameter_base@DV?$string_output_adapter@D@__crt_stdio_output@@@2@@__crt_stdio_output@@ABE_NI@Z 100af890 f i libucrtd:output.obj
 0002:0004d8d0       ?has_flag@?$output_processor@DV?$string_output_adapter@D@__crt_stdio_output@@V?$standard_base@DV?$string_output_adapter@D@__crt_stdio_output@@@2@@__crt_stdio_output@@ABE_NI@Z 100af8d0 f i libucrtd:output.obj
 0002:0004d910       ?has_flag@?$output_processor@_WV?$stream_output_adapter@_W@__crt_stdio_output@@V?$format_validation_base@_WV?$stream_output_adapter@_W@__crt_stdio_output@@@2@@__crt_stdio_output@@ABE_NI@Z 100af910 f i libucrtd:output.obj
 0002:0004d950       ?has_flag@?$output_processor@_WV?$stream_output_adapter@_W@__crt_stdio_output@@V?$positional_parameter_base@_WV?$stream_output_adapter@_W@__crt_stdio_output@@@2@@__crt_stdio_output@@ABE_NI@Z 100af950 f i libucrtd:output.obj
 0002:0004d990       ?has_flag@?$output_processor@_WV?$stream_output_adapter@_W@__crt_stdio_output@@V?$standard_base@_WV?$stream_output_adapter@_W@__crt_stdio_output@@@2@@__crt_stdio_output@@ABE_NI@Z 100af990 f i libucrtd:output.obj
 0002:0004d9d0       ?has_flag@?$output_processor@_WV?$string_output_adapter@_W@__crt_stdio_output@@V?$format_validation_base@_WV?$string_output_adapter@_W@__crt_stdio_output@@@2@@__crt_stdio_output@@ABE_NI@Z 100af9d0 f i libucrtd:output.obj
 0002:0004da10       ?has_flag@?$output_processor@_WV?$string_output_adapter@_W@__crt_stdio_output@@V?$positional_parameter_base@_WV?$string_output_adapter@_W@__crt_stdio_output@@@2@@__crt_stdio_output@@ABE_NI@Z 100afa10 f i libucrtd:output.obj
 0002:0004da50       ?has_flag@?$output_processor@_WV?$string_output_adapter@_W@__crt_stdio_output@@V?$standard_base@_WV?$string_output_adapter@_W@__crt_stdio_output@@@2@@__crt_stdio_output@@ABE_NI@Z 100afa50 f i libucrtd:output.obj
 0002:0004da90       ?is_positional_parameter_reappearance_consistent@?$positional_parameter_base@DV?$stream_output_adapter@D@__crt_stdio_output@@@__crt_stdio_output@@AAE_NABUparameter_data@12@W4parameter_type@12@DW4length_modifier@2@@Z 100afa90 f i libucrtd:output.obj
 0002:0004dd40       ?is_positional_parameter_reappearance_consistent@?$positional_parameter_base@DV?$string_output_adapter@D@__crt_stdio_output@@@__crt_stdio_output@@AAE_NABUparameter_data@12@W4parameter_type@12@DW4length_modifier@2@@Z 100afd40 f i libucrtd:output.obj
 0002:0004dff0       ?is_positional_parameter_reappearance_consistent@?$positional_parameter_base@_WV?$stream_output_adapter@_W@__crt_stdio_output@@@__crt_stdio_output@@AAE_NABUparameter_data@12@W4parameter_type@12@_WW4length_modifier@2@@Z 100afff0 f i libucrtd:output.obj
 0002:0004e2a0       ?is_positional_parameter_reappearance_consistent@?$positional_parameter_base@_WV?$string_output_adapter@_W@__crt_stdio_output@@@__crt_stdio_output@@AAE_NABUparameter_data@12@W4parameter_type@12@_WW4length_modifier@2@@Z 100b02a0 f i libucrtd:output.obj
 0002:0004e550       ?is_string_backed@__crt_stdio_stream@@QBE_NXZ 100b0550 f i libucrtd:output.obj
 0002:0004e590       ?maximum_signed_value@__crt_strtox@@YAJK@Z 100b0590 f i libucrtd:output.obj
 0002:0004e5a0       ?minimum_signed_value@__crt_strtox@@YAJK@Z 100b05a0 f i libucrtd:output.obj
 0002:0004e5b0       ?narrow_null_string@?$output_processor@DV?$stream_output_adapter@D@__crt_stdio_output@@V?$format_validation_base@DV?$stream_output_adapter@D@__crt_stdio_output@@@2@@__crt_stdio_output@@CAPADXZ 100b05b0 f i libucrtd:output.obj
 0002:0004e5c0       ?narrow_null_string@?$output_processor@DV?$stream_output_adapter@D@__crt_stdio_output@@V?$positional_parameter_base@DV?$stream_output_adapter@D@__crt_stdio_output@@@2@@__crt_stdio_output@@CAPADXZ 100b05c0 f i libucrtd:output.obj
 0002:0004e5d0       ?narrow_null_string@?$output_processor@DV?$stream_output_adapter@D@__crt_stdio_output@@V?$standard_base@DV?$stream_output_adapter@D@__crt_stdio_output@@@2@@__crt_stdio_output@@CAPADXZ 100b05d0 f i libucrtd:output.obj
 0002:0004e5e0       ?narrow_null_string@?$output_processor@DV?$string_output_adapter@D@__crt_stdio_output@@V?$format_validation_base@DV?$string_output_adapter@D@__crt_stdio_output@@@2@@__crt_stdio_output@@CAPADXZ 100b05e0 f i libucrtd:output.obj
 0002:0004e5f0       ?narrow_null_string@?$output_processor@DV?$string_output_adapter@D@__crt_stdio_output@@V?$positional_parameter_base@DV?$string_output_adapter@D@__crt_stdio_output@@@2@@__crt_stdio_output@@CAPADXZ 100b05f0 f i libucrtd:output.obj
 0002:0004e600       ?narrow_null_string@?$output_processor@DV?$string_output_adapter@D@__crt_stdio_output@@V?$standard_base@DV?$string_output_adapter@D@__crt_stdio_output@@@2@@__crt_stdio_output@@CAPADXZ 100b0600 f i libucrtd:output.obj
 0002:0004e610       ?narrow_null_string@?$output_processor@_WV?$stream_output_adapter@_W@__crt_stdio_output@@V?$format_validation_base@_WV?$stream_output_adapter@_W@__crt_stdio_output@@@2@@__crt_stdio_output@@CAPADXZ 100b0610 f i libucrtd:output.obj
 0002:0004e620       ?narrow_null_string@?$output_processor@_WV?$stream_output_adapter@_W@__crt_stdio_output@@V?$positional_parameter_base@_WV?$stream_output_adapter@_W@__crt_stdio_output@@@2@@__crt_stdio_output@@CAPADXZ 100b0620 f i libucrtd:output.obj
 0002:0004e630       ?narrow_null_string@?$output_processor@_WV?$stream_output_adapter@_W@__crt_stdio_output@@V?$standard_base@_WV?$stream_output_adapter@_W@__crt_stdio_output@@@2@@__crt_stdio_output@@CAPADXZ 100b0630 f i libucrtd:output.obj
 0002:0004e640       ?narrow_null_string@?$output_processor@_WV?$string_output_adapter@_W@__crt_stdio_output@@V?$format_validation_base@_WV?$string_output_adapter@_W@__crt_stdio_output@@@2@@__crt_stdio_output@@CAPADXZ 100b0640 f i libucrtd:output.obj
 0002:0004e650       ?narrow_null_string@?$output_processor@_WV?$string_output_adapter@_W@__crt_stdio_output@@V?$positional_parameter_base@_WV?$string_output_adapter@_W@__crt_stdio_output@@@2@@__crt_stdio_output@@CAPADXZ 100b0650 f i libucrtd:output.obj
 0002:0004e660       ?narrow_null_string@?$output_processor@_WV?$string_output_adapter@_W@__crt_stdio_output@@V?$standard_base@_WV?$string_output_adapter@_W@__crt_stdio_output@@@2@@__crt_stdio_output@@CAPADXZ 100b0660 f i libucrtd:output.obj
 0002:0004e670       ?parse_digit@__crt_strtox@@YAID@Z 100b0670 f i libucrtd:output.obj
 0002:0004e6f0       ?parse_digit@__crt_strtox@@YAI_W@Z 100b06f0 f i libucrtd:output.obj
 0002:0004e750       ?parse_int_from_format_string@?$output_processor@DV?$stream_output_adapter@D@__crt_stdio_output@@V?$format_validation_base@DV?$stream_output_adapter@D@__crt_stdio_output@@@2@@__crt_stdio_output@@AAE_NQAH@Z 100b0750 f i libucrtd:output.obj
 0002:0004e840       ?parse_int_from_format_string@?$output_processor@DV?$stream_output_adapter@D@__crt_stdio_output@@V?$positional_parameter_base@DV?$stream_output_adapter@D@__crt_stdio_output@@@2@@__crt_stdio_output@@AAE_NQAH@Z 100b0840 f i libucrtd:output.obj
 0002:0004e930       ?parse_int_from_format_string@?$output_processor@DV?$stream_output_adapter@D@__crt_stdio_output@@V?$standard_base@DV?$stream_output_adapter@D@__crt_stdio_output@@@2@@__crt_stdio_output@@AAE_NQAH@Z 100b0930 f i libucrtd:output.obj
 0002:0004ea20       ?parse_int_from_format_string@?$output_processor@DV?$string_output_adapter@D@__crt_stdio_output@@V?$format_validation_base@DV?$string_output_adapter@D@__crt_stdio_output@@@2@@__crt_stdio_output@@AAE_NQAH@Z 100b0a20 f i libucrtd:output.obj
 0002:0004eb10       ?parse_int_from_format_string@?$output_processor@DV?$string_output_adapter@D@__crt_stdio_output@@V?$positional_parameter_base@DV?$string_output_adapter@D@__crt_stdio_output@@@2@@__crt_stdio_output@@AAE_NQAH@Z 100b0b10 f i libucrtd:output.obj
 0002:0004ec00       ?parse_int_from_format_string@?$output_processor@DV?$string_output_adapter@D@__crt_stdio_output@@V?$standard_base@DV?$string_output_adapter@D@__crt_stdio_output@@@2@@__crt_stdio_output@@AAE_NQAH@Z 100b0c00 f i libucrtd:output.obj
 0002:0004ecf0       ?parse_int_from_format_string@?$output_processor@_WV?$stream_output_adapter@_W@__crt_stdio_output@@V?$format_validation_base@_WV?$stream_output_adapter@_W@__crt_stdio_output@@@2@@__crt_stdio_output@@AAE_NQAH@Z 100b0cf0 f i libucrtd:output.obj
 0002:0004ede0       ?parse_int_from_format_string@?$output_processor@_WV?$stream_output_adapter@_W@__crt_stdio_output@@V?$positional_parameter_base@_WV?$stream_output_adapter@_W@__crt_stdio_output@@@2@@__crt_stdio_output@@AAE_NQAH@Z 100b0de0 f i libucrtd:output.obj
 0002:0004eed0       ?parse_int_from_format_string@?$output_processor@_WV?$stream_output_adapter@_W@__crt_stdio_output@@V?$standard_base@_WV?$stream_output_adapter@_W@__crt_stdio_output@@@2@@__crt_stdio_output@@AAE_NQAH@Z 100b0ed0 f i libucrtd:output.obj
 0002:0004efc0       ?parse_int_from_format_string@?$output_processor@_WV?$string_output_adapter@_W@__crt_stdio_output@@V?$format_validation_base@_WV?$string_output_adapter@_W@__crt_stdio_output@@@2@@__crt_stdio_output@@AAE_NQAH@Z 100b0fc0 f i libucrtd:output.obj
 0002:0004f0b0       ?parse_int_from_format_string@?$output_processor@_WV?$string_output_adapter@_W@__crt_stdio_output@@V?$positional_parameter_base@_WV?$string_output_adapter@_W@__crt_stdio_output@@@2@@__crt_stdio_output@@AAE_NQAH@Z 100b10b0 f i libucrtd:output.obj
 0002:0004f1a0       ?parse_int_from_format_string@?$output_processor@_WV?$string_output_adapter@_W@__crt_stdio_output@@V?$standard_base@_WV?$string_output_adapter@_W@__crt_stdio_output@@@2@@__crt_stdio_output@@AAE_NQAH@Z 100b11a0 f i libucrtd:output.obj
 0002:0004f290       ?process@?$output_processor@DV?$stream_output_adapter@D@__crt_stdio_output@@V?$format_validation_base@DV?$stream_output_adapter@D@__crt_stdio_output@@@2@@__crt_stdio_output@@QAEHXZ 100b1290 f i libucrtd:output.obj
 0002:0004f620       ?process@?$output_processor@DV?$stream_output_adapter@D@__crt_stdio_output@@V?$positional_parameter_base@DV?$stream_output_adapter@D@__crt_stdio_output@@@2@@__crt_stdio_output@@QAEHXZ 100b1620 f i libucrtd:output.obj
 0002:0004f9b0       ?process@?$output_processor@DV?$stream_output_adapter@D@__crt_stdio_output@@V?$standard_base@DV?$stream_output_adapter@D@__crt_stdio_output@@@2@@__crt_stdio_output@@QAEHXZ 100b19b0 f i libucrtd:output.obj
 0002:0004fd40       ?process@?$output_processor@DV?$string_output_adapter@D@__crt_stdio_output@@V?$format_validation_base@DV?$string_output_adapter@D@__crt_stdio_output@@@2@@__crt_stdio_output@@QAEHXZ 100b1d40 f i libucrtd:output.obj
 0002:000500d0       ?process@?$output_processor@DV?$string_output_adapter@D@__crt_stdio_output@@V?$positional_parameter_base@DV?$string_output_adapter@D@__crt_stdio_output@@@2@@__crt_stdio_output@@QAEHXZ 100b20d0 f i libucrtd:output.obj
 0002:00050460       ?process@?$output_processor@DV?$string_output_adapter@D@__crt_stdio_output@@V?$standard_base@DV?$string_output_adapter@D@__crt_stdio_output@@@2@@__crt_stdio_output@@QAEHXZ 100b2460 f i libucrtd:output.obj
 0002:000507f0       ?process@?$output_processor@_WV?$stream_output_adapter@_W@__crt_stdio_output@@V?$format_validation_base@_WV?$stream_output_adapter@_W@__crt_stdio_output@@@2@@__crt_stdio_output@@QAEHXZ 100b27f0 f i libucrtd:output.obj
 0002:00050b90       ?process@?$output_processor@_WV?$stream_output_adapter@_W@__crt_stdio_output@@V?$positional_parameter_base@_WV?$stream_output_adapter@_W@__crt_stdio_output@@@2@@__crt_stdio_output@@QAEHXZ 100b2b90 f i libucrtd:output.obj
 0002:00050f30       ?process@?$output_processor@_WV?$stream_output_adapter@_W@__crt_stdio_output@@V?$standard_base@_WV?$stream_output_adapter@_W@__crt_stdio_output@@@2@@__crt_stdio_output@@QAEHXZ 100b2f30 f i libucrtd:output.obj
 0002:000512d0       ?process@?$output_processor@_WV?$string_output_adapter@_W@__crt_stdio_output@@V?$format_validation_base@_WV?$string_output_adapter@_W@__crt_stdio_output@@@2@@__crt_stdio_output@@QAEHXZ 100b32d0 f i libucrtd:output.obj
 0002:00051670       ?process@?$output_processor@_WV?$string_output_adapter@_W@__crt_stdio_output@@V?$positional_parameter_base@_WV?$string_output_adapter@_W@__crt_stdio_output@@@2@@__crt_stdio_output@@QAEHXZ 100b3670 f i libucrtd:output.obj
 0002:00051a10       ?process@?$output_processor@_WV?$string_output_adapter@_W@__crt_stdio_output@@V?$standard_base@_WV?$string_output_adapter@_W@__crt_stdio_output@@@2@@__crt_stdio_output@@QAEHXZ 100b3a10 f i libucrtd:output.obj
 0002:00051db0       ?public_stream@__crt_stdio_stream@@QBEPAU_iobuf@@XZ 100b3db0 f i libucrtd:output.obj
 0002:00051dd0       ?restore_state@?$c_string_character_source@D@__crt_strtox@@QAE_NQBD@Z 100b3dd0 f i libucrtd:output.obj
 0002:00051df0       ?restore_state@?$c_string_character_source@_W@__crt_strtox@@QAE_NQB_W@Z 100b3df0 f i libucrtd:output.obj
 0002:00051e10       ?save_state@?$c_string_character_source@D@__crt_strtox@@QBEPBDXZ 100b3e10 f i libucrtd:output.obj
 0002:00051e30       ?save_state@?$c_string_character_source@_W@__crt_strtox@@QBEPB_WXZ 100b3e30 f i libucrtd:output.obj
 0002:00051e50       ?set@?$cached@H@__crt_cached_ptd_host@@QAEHH@Z 100b3e50 f i libucrtd:output.obj
 0002:00051e80       ?set_flag@?$output_processor@DV?$stream_output_adapter@D@__crt_stdio_output@@V?$format_validation_base@DV?$stream_output_adapter@D@__crt_stdio_output@@@2@@__crt_stdio_output@@AAEXI@Z 100b3e80 f i libucrtd:output.obj
 0002:00051eb0       ?set_flag@?$output_processor@DV?$stream_output_adapter@D@__crt_stdio_output@@V?$positional_parameter_base@DV?$stream_output_adapter@D@__crt_stdio_output@@@2@@__crt_stdio_output@@AAEXI@Z 100b3eb0 f i libucrtd:output.obj
 0002:00051ee0       ?set_flag@?$output_processor@DV?$stream_output_adapter@D@__crt_stdio_output@@V?$standard_base@DV?$stream_output_adapter@D@__crt_stdio_output@@@2@@__crt_stdio_output@@AAEXI@Z 100b3ee0 f i libucrtd:output.obj
 0002:00051f10       ?set_flag@?$output_processor@DV?$string_output_adapter@D@__crt_stdio_output@@V?$format_validation_base@DV?$string_output_adapter@D@__crt_stdio_output@@@2@@__crt_stdio_output@@AAEXI@Z 100b3f10 f i libucrtd:output.obj
 0002:00051f40       ?set_flag@?$output_processor@DV?$string_output_adapter@D@__crt_stdio_output@@V?$positional_parameter_base@DV?$string_output_adapter@D@__crt_stdio_output@@@2@@__crt_stdio_output@@AAEXI@Z 100b3f40 f i libucrtd:output.obj
 0002:00051f70       ?set_flag@?$output_processor@DV?$string_output_adapter@D@__crt_stdio_output@@V?$standard_base@DV?$string_output_adapter@D@__crt_stdio_output@@@2@@__crt_stdio_output@@AAEXI@Z 100b3f70 f i libucrtd:output.obj
 0002:00051fa0       ?set_flag@?$output_processor@_WV?$stream_output_adapter@_W@__crt_stdio_output@@V?$format_validation_base@_WV?$stream_output_adapter@_W@__crt_stdio_output@@@2@@__crt_stdio_output@@AAEXI@Z 100b3fa0 f i libucrtd:output.obj
 0002:00051fd0       ?set_flag@?$output_processor@_WV?$stream_output_adapter@_W@__crt_stdio_output@@V?$positional_parameter_base@_WV?$stream_output_adapter@_W@__crt_stdio_output@@@2@@__crt_stdio_output@@AAEXI@Z 100b3fd0 f i libucrtd:output.obj
 0002:00052000       ?set_flag@?$output_processor@_WV?$stream_output_adapter@_W@__crt_stdio_output@@V?$standard_base@_WV?$stream_output_adapter@_W@__crt_stdio_output@@@2@@__crt_stdio_output@@AAEXI@Z 100b4000 f i libucrtd:output.obj
 0002:00052030       ?set_flag@?$output_processor@_WV?$string_output_adapter@_W@__crt_stdio_output@@V?$format_validation_base@_WV?$string_output_adapter@_W@__crt_stdio_output@@@2@@__crt_stdio_output@@AAEXI@Z 100b4030 f i libucrtd:output.obj
 0002:00052060       ?set_flag@?$output_processor@_WV?$string_output_adapter@_W@__crt_stdio_output@@V?$positional_parameter_base@_WV?$string_output_adapter@_W@__crt_stdio_output@@@2@@__crt_stdio_output@@AAEXI@Z 100b4060 f i libucrtd:output.obj
 0002:00052090       ?set_flag@?$output_processor@_WV?$string_output_adapter@_W@__crt_stdio_output@@V?$standard_base@_WV?$string_output_adapter@_W@__crt_stdio_output@@@2@@__crt_stdio_output@@AAEXI@Z 100b4090 f i libucrtd:output.obj
 0002:000520c0       ?should_format@?$positional_parameter_base@DV?$stream_output_adapter@D@__crt_stdio_output@@@__crt_stdio_output@@IAE_NXZ 100b40c0 f i libucrtd:output.obj
 0002:00052110       ?should_format@?$positional_parameter_base@DV?$string_output_adapter@D@__crt_stdio_output@@@__crt_stdio_output@@IAE_NXZ 100b4110 f i libucrtd:output.obj
 0002:00052160       ?should_format@?$positional_parameter_base@_WV?$stream_output_adapter@_W@__crt_stdio_output@@@__crt_stdio_output@@IAE_NXZ 100b4160 f i libucrtd:output.obj
 0002:000521b0       ?should_format@?$positional_parameter_base@_WV?$string_output_adapter@_W@__crt_stdio_output@@@__crt_stdio_output@@IAE_NXZ 100b41b0 f i libucrtd:output.obj
 0002:00052200       ?should_format@?$standard_base@DV?$stream_output_adapter@D@__crt_stdio_output@@@__crt_stdio_output@@IAE_NXZ 100b4200 f i libucrtd:output.obj
 0002:00052220       ?should_format@?$standard_base@DV?$string_output_adapter@D@__crt_stdio_output@@@__crt_stdio_output@@IAE_NXZ 100b4220 f i libucrtd:output.obj
 0002:00052240       ?should_format@?$standard_base@_WV?$stream_output_adapter@_W@__crt_stdio_output@@@__crt_stdio_output@@IAE_NXZ 100b4240 f i libucrtd:output.obj
 0002:00052260       ?should_format@?$standard_base@_WV?$string_output_adapter@_W@__crt_stdio_output@@@__crt_stdio_output@@IAE_NXZ 100b4260 f i libucrtd:output.obj
 0002:00052280       ?should_skip_normal_state_processing@?$positional_parameter_base@DV?$stream_output_adapter@D@__crt_stdio_output@@@__crt_stdio_output@@IAE_NXZ 100b4280 f i libucrtd:output.obj
 0002:000522e0       ?should_skip_normal_state_processing@?$positional_parameter_base@DV?$string_output_adapter@D@__crt_stdio_output@@@__crt_stdio_output@@IAE_NXZ 100b42e0 f i libucrtd:output.obj
 0002:00052340       ?should_skip_normal_state_processing@?$positional_parameter_base@_WV?$stream_output_adapter@_W@__crt_stdio_output@@@__crt_stdio_output@@IAE_NXZ 100b4340 f i libucrtd:output.obj
 0002:000523a0       ?should_skip_normal_state_processing@?$positional_parameter_base@_WV?$string_output_adapter@_W@__crt_stdio_output@@@__crt_stdio_output@@IAE_NXZ 100b43a0 f i libucrtd:output.obj
 0002:00052400       ?should_skip_normal_state_processing@?$standard_base@DV?$stream_output_adapter@D@__crt_stdio_output@@@__crt_stdio_output@@IAE_NXZ 100b4400 f i libucrtd:output.obj
 0002:00052420       ?should_skip_normal_state_processing@?$standard_base@DV?$string_output_adapter@D@__crt_stdio_output@@@__crt_stdio_output@@IAE_NXZ 100b4420 f i libucrtd:output.obj
 0002:00052440       ?should_skip_normal_state_processing@?$standard_base@_WV?$stream_output_adapter@_W@__crt_stdio_output@@@__crt_stdio_output@@IAE_NXZ 100b4440 f i libucrtd:output.obj
 0002:00052460       ?should_skip_normal_state_processing@?$standard_base@_WV?$string_output_adapter@_W@__crt_stdio_output@@@__crt_stdio_output@@IAE_NXZ 100b4460 f i libucrtd:output.obj
 0002:00052480       ?should_skip_type_state_output@?$positional_parameter_base@DV?$stream_output_adapter@D@__crt_stdio_output@@@__crt_stdio_output@@IBE_NXZ 100b4480 f i libucrtd:output.obj
 0002:000524d0       ?should_skip_type_state_output@?$positional_parameter_base@DV?$string_output_adapter@D@__crt_stdio_output@@@__crt_stdio_output@@IBE_NXZ 100b44d0 f i libucrtd:output.obj
 0002:00052520       ?should_skip_type_state_output@?$positional_parameter_base@_WV?$stream_output_adapter@_W@__crt_stdio_output@@@__crt_stdio_output@@IBE_NXZ 100b4520 f i libucrtd:output.obj
 0002:00052570       ?should_skip_type_state_output@?$positional_parameter_base@_WV?$string_output_adapter@_W@__crt_stdio_output@@@__crt_stdio_output@@IBE_NXZ 100b4570 f i libucrtd:output.obj
 0002:000525c0       ?should_skip_type_state_output@?$standard_base@DV?$stream_output_adapter@D@__crt_stdio_output@@@__crt_stdio_output@@IBE_NXZ 100b45c0 f i libucrtd:output.obj
 0002:000525e0       ?should_skip_type_state_output@?$standard_base@DV?$string_output_adapter@D@__crt_stdio_output@@@__crt_stdio_output@@IBE_NXZ 100b45e0 f i libucrtd:output.obj
 0002:00052600       ?should_skip_type_state_output@?$standard_base@_WV?$stream_output_adapter@_W@__crt_stdio_output@@@__crt_stdio_output@@IBE_NXZ 100b4600 f i libucrtd:output.obj
 0002:00052620       ?should_skip_type_state_output@?$standard_base@_WV?$string_output_adapter@_W@__crt_stdio_output@@@__crt_stdio_output@@IBE_NXZ 100b4620 f i libucrtd:output.obj
 0002:00052640       ?state_case_dot@?$output_processor@DV?$stream_output_adapter@D@__crt_stdio_output@@V?$format_validation_base@DV?$stream_output_adapter@D@__crt_stdio_output@@@2@@__crt_stdio_output@@AAE_NXZ 100b4640 f i libucrtd:output.obj
 0002:00052660       ?state_case_dot@?$output_processor@DV?$stream_output_adapter@D@__crt_stdio_output@@V?$positional_parameter_base@DV?$stream_output_adapter@D@__crt_stdio_output@@@2@@__crt_stdio_output@@AAE_NXZ 100b4660 f i libucrtd:output.obj
 0002:00052680       ?state_case_dot@?$output_processor@DV?$stream_output_adapter@D@__crt_stdio_output@@V?$standard_base@DV?$stream_output_adapter@D@__crt_stdio_output@@@2@@__crt_stdio_output@@AAE_NXZ 100b4680 f i libucrtd:output.obj
 0002:000526a0       ?state_case_dot@?$output_processor@DV?$string_output_adapter@D@__crt_stdio_output@@V?$format_validation_base@DV?$string_output_adapter@D@__crt_stdio_output@@@2@@__crt_stdio_output@@AAE_NXZ 100b46a0 f i libucrtd:output.obj
 0002:000526c0       ?state_case_dot@?$output_processor@DV?$string_output_adapter@D@__crt_stdio_output@@V?$positional_parameter_base@DV?$string_output_adapter@D@__crt_stdio_output@@@2@@__crt_stdio_output@@AAE_NXZ 100b46c0 f i libucrtd:output.obj
 0002:000526e0       ?state_case_dot@?$output_processor@DV?$string_output_adapter@D@__crt_stdio_output@@V?$standard_base@DV?$string_output_adapter@D@__crt_stdio_output@@@2@@__crt_stdio_output@@AAE_NXZ 100b46e0 f i libucrtd:output.obj
 0002:00052700       ?state_case_dot@?$output_processor@_WV?$stream_output_adapter@_W@__crt_stdio_output@@V?$format_validation_base@_WV?$stream_output_adapter@_W@__crt_stdio_output@@@2@@__crt_stdio_output@@AAE_NXZ 100b4700 f i libucrtd:output.obj
 0002:00052720       ?state_case_dot@?$output_processor@_WV?$stream_output_adapter@_W@__crt_stdio_output@@V?$positional_parameter_base@_WV?$stream_output_adapter@_W@__crt_stdio_output@@@2@@__crt_stdio_output@@AAE_NXZ 100b4720 f i libucrtd:output.obj
 0002:00052740       ?state_case_dot@?$output_processor@_WV?$stream_output_adapter@_W@__crt_stdio_output@@V?$standard_base@_WV?$stream_output_adapter@_W@__crt_stdio_output@@@2@@__crt_stdio_output@@AAE_NXZ 100b4740 f i libucrtd:output.obj
 0002:00052760       ?state_case_dot@?$output_processor@_WV?$string_output_adapter@_W@__crt_stdio_output@@V?$format_validation_base@_WV?$string_output_adapter@_W@__crt_stdio_output@@@2@@__crt_stdio_output@@AAE_NXZ 100b4760 f i libucrtd:output.obj
 0002:00052780       ?state_case_dot@?$output_processor@_WV?$string_output_adapter@_W@__crt_stdio_output@@V?$positional_parameter_base@_WV?$string_output_adapter@_W@__crt_stdio_output@@@2@@__crt_stdio_output@@AAE_NXZ 100b4780 f i libucrtd:output.obj
 0002:000527a0       ?state_case_dot@?$output_processor@_WV?$string_output_adapter@_W@__crt_stdio_output@@V?$standard_base@_WV?$string_output_adapter@_W@__crt_stdio_output@@@2@@__crt_stdio_output@@AAE_NXZ 100b47a0 f i libucrtd:output.obj
 0002:000527c0       ?state_case_flag@?$output_processor@DV?$stream_output_adapter@D@__crt_stdio_output@@V?$format_validation_base@DV?$stream_output_adapter@D@__crt_stdio_output@@@2@@__crt_stdio_output@@AAE_NXZ 100b47c0 f i libucrtd:output.obj
 0002:00052890       ?state_case_flag@?$output_processor@DV?$stream_output_adapter@D@__crt_stdio_output@@V?$positional_parameter_base@DV?$stream_output_adapter@D@__crt_stdio_output@@@2@@__crt_stdio_output@@AAE_NXZ 100b4890 f i libucrtd:output.obj
 0002:00052960       ?state_case_flag@?$output_processor@DV?$stream_output_adapter@D@__crt_stdio_output@@V?$standard_base@DV?$stream_output_adapter@D@__crt_stdio_output@@@2@@__crt_stdio_output@@AAE_NXZ 100b4960 f i libucrtd:output.obj
 0002:00052a30       ?state_case_flag@?$output_processor@DV?$string_output_adapter@D@__crt_stdio_output@@V?$format_validation_base@DV?$string_output_adapter@D@__crt_stdio_output@@@2@@__crt_stdio_output@@AAE_NXZ 100b4a30 f i libucrtd:output.obj
 0002:00052b00       ?state_case_flag@?$output_processor@DV?$string_output_adapter@D@__crt_stdio_output@@V?$positional_parameter_base@DV?$string_output_adapter@D@__crt_stdio_output@@@2@@__crt_stdio_output@@AAE_NXZ 100b4b00 f i libucrtd:output.obj
 0002:00052bd0       ?state_case_flag@?$output_processor@DV?$string_output_adapter@D@__crt_stdio_output@@V?$standard_base@DV?$string_output_adapter@D@__crt_stdio_output@@@2@@__crt_stdio_output@@AAE_NXZ 100b4bd0 f i libucrtd:output.obj
 0002:00052ca0       ?state_case_flag@?$output_processor@_WV?$stream_output_adapter@_W@__crt_stdio_output@@V?$format_validation_base@_WV?$stream_output_adapter@_W@__crt_stdio_output@@@2@@__crt_stdio_output@@AAE_NXZ 100b4ca0 f i libucrtd:output.obj
 0002:00052d70       ?state_case_flag@?$output_processor@_WV?$stream_output_adapter@_W@__crt_stdio_output@@V?$positional_parameter_base@_WV?$stream_output_adapter@_W@__crt_stdio_output@@@2@@__crt_stdio_output@@AAE_NXZ 100b4d70 f i libucrtd:output.obj
 0002:00052e40       ?state_case_flag@?$output_processor@_WV?$stream_output_adapter@_W@__crt_stdio_output@@V?$standard_base@_WV?$stream_output_adapter@_W@__crt_stdio_output@@@2@@__crt_stdio_output@@AAE_NXZ 100b4e40 f i libucrtd:output.obj
 0002:00052f10       ?state_case_flag@?$output_processor@_WV?$string_output_adapter@_W@__crt_stdio_output@@V?$format_validation_base@_WV?$string_output_adapter@_W@__crt_stdio_output@@@2@@__crt_stdio_output@@AAE_NXZ 100b4f10 f i libucrtd:output.obj
 0002:00052fe0       ?state_case_flag@?$output_processor@_WV?$string_output_adapter@_W@__crt_stdio_output@@V?$positional_parameter_base@_WV?$string_output_adapter@_W@__crt_stdio_output@@@2@@__crt_stdio_output@@AAE_NXZ 100b4fe0 f i libucrtd:output.obj
 0002:000530b0       ?state_case_flag@?$output_processor@_WV?$string_output_adapter@_W@__crt_stdio_output@@V?$standard_base@_WV?$string_output_adapter@_W@__crt_stdio_output@@@2@@__crt_stdio_output@@AAE_NXZ 100b50b0 f i libucrtd:output.obj
 0002:00053180       ?state_case_normal@?$output_processor@DV?$stream_output_adapter@D@__crt_stdio_output@@V?$format_validation_base@DV?$stream_output_adapter@D@__crt_stdio_output@@@2@@__crt_stdio_output@@AAE_NXZ 100b5180 f i libucrtd:output.obj
 0002:00053270       ?state_case_normal@?$output_processor@DV?$stream_output_adapter@D@__crt_stdio_output@@V?$positional_parameter_base@DV?$stream_output_adapter@D@__crt_stdio_output@@@2@@__crt_stdio_output@@AAE_NXZ 100b5270 f i libucrtd:output.obj
 0002:00053360       ?state_case_normal@?$output_processor@DV?$stream_output_adapter@D@__crt_stdio_output@@V?$standard_base@DV?$stream_output_adapter@D@__crt_stdio_output@@@2@@__crt_stdio_output@@AAE_NXZ 100b5360 f i libucrtd:output.obj
 0002:00053450       ?state_case_normal@?$output_processor@DV?$string_output_adapter@D@__crt_stdio_output@@V?$format_validation_base@DV?$string_output_adapter@D@__crt_stdio_output@@@2@@__crt_stdio_output@@AAE_NXZ 100b5450 f i libucrtd:output.obj
 0002:00053540       ?state_case_normal@?$output_processor@DV?$string_output_adapter@D@__crt_stdio_output@@V?$positional_parameter_base@DV?$string_output_adapter@D@__crt_stdio_output@@@2@@__crt_stdio_output@@AAE_NXZ 100b5540 f i libucrtd:output.obj
 0002:00053630       ?state_case_normal@?$output_processor@DV?$string_output_adapter@D@__crt_stdio_output@@V?$standard_base@DV?$string_output_adapter@D@__crt_stdio_output@@@2@@__crt_stdio_output@@AAE_NXZ 100b5630 f i libucrtd:output.obj
 0002:00053720       ?state_case_normal@?$output_processor@_WV?$stream_output_adapter@_W@__crt_stdio_output@@V?$format_validation_base@_WV?$stream_output_adapter@_W@__crt_stdio_output@@@2@@__crt_stdio_output@@AAE_NXZ 100b5720 f i libucrtd:output.obj
 0002:00053810       ?state_case_normal@?$output_processor@_WV?$stream_output_adapter@_W@__crt_stdio_output@@V?$positional_parameter_base@_WV?$stream_output_adapter@_W@__crt_stdio_output@@@2@@__crt_stdio_output@@AAE_NXZ 100b5810 f i libucrtd:output.obj
 0002:00053900       ?state_case_normal@?$output_processor@_WV?$stream_output_adapter@_W@__crt_stdio_output@@V?$standard_base@_WV?$stream_output_adapter@_W@__crt_stdio_output@@@2@@__crt_stdio_output@@AAE_NXZ 100b5900 f i libucrtd:output.obj
 0002:000539f0       ?state_case_normal@?$output_processor@_WV?$string_output_adapter@_W@__crt_stdio_output@@V?$format_validation_base@_WV?$string_output_adapter@_W@__crt_stdio_output@@@2@@__crt_stdio_output@@AAE_NXZ 100b59f0 f i libucrtd:output.obj
 0002:00053ae0       ?state_case_normal@?$output_processor@_WV?$string_output_adapter@_W@__crt_stdio_output@@V?$positional_parameter_base@_WV?$string_output_adapter@_W@__crt_stdio_output@@@2@@__crt_stdio_output@@AAE_NXZ 100b5ae0 f i libucrtd:output.obj
 0002:00053bd0       ?state_case_normal@?$output_processor@_WV?$string_output_adapter@_W@__crt_stdio_output@@V?$standard_base@_WV?$string_output_adapter@_W@__crt_stdio_output@@@2@@__crt_stdio_output@@AAE_NXZ 100b5bd0 f i libucrtd:output.obj
 0002:00053cc0       ?state_case_normal_common@?$output_processor@DV?$stream_output_adapter@D@__crt_stdio_output@@V?$format_validation_base@DV?$stream_output_adapter@D@__crt_stdio_output@@@2@@__crt_stdio_output@@AAE_NXZ 100b5cc0 f i libucrtd:output.obj
 0002:00053d30       ?state_case_normal_common@?$output_processor@DV?$stream_output_adapter@D@__crt_stdio_output@@V?$positional_parameter_base@DV?$stream_output_adapter@D@__crt_stdio_output@@@2@@__crt_stdio_output@@AAE_NXZ 100b5d30 f i libucrtd:output.obj
 0002:00053da0       ?state_case_normal_common@?$output_processor@DV?$stream_output_adapter@D@__crt_stdio_output@@V?$standard_base@DV?$stream_output_adapter@D@__crt_stdio_output@@@2@@__crt_stdio_output@@AAE_NXZ 100b5da0 f i libucrtd:output.obj
 0002:00053e10       ?state_case_normal_common@?$output_processor@DV?$string_output_adapter@D@__crt_stdio_output@@V?$format_validation_base@DV?$string_output_adapter@D@__crt_stdio_output@@@2@@__crt_stdio_output@@AAE_NXZ 100b5e10 f i libucrtd:output.obj
 0002:00053e80       ?state_case_normal_common@?$output_processor@DV?$string_output_adapter@D@__crt_stdio_output@@V?$positional_parameter_base@DV?$string_output_adapter@D@__crt_stdio_output@@@2@@__crt_stdio_output@@AAE_NXZ 100b5e80 f i libucrtd:output.obj
 0002:00053ef0       ?state_case_normal_common@?$output_processor@DV?$string_output_adapter@D@__crt_stdio_output@@V?$standard_base@DV?$string_output_adapter@D@__crt_stdio_output@@@2@@__crt_stdio_output@@AAE_NXZ 100b5ef0 f i libucrtd:output.obj
 0002:00053f60       ?state_case_normal_common@?$output_processor@_WV?$stream_output_adapter@_W@__crt_stdio_output@@V?$format_validation_base@_WV?$stream_output_adapter@_W@__crt_stdio_output@@@2@@__crt_stdio_output@@AAE_NXZ 100b5f60 f i libucrtd:output.obj
 0002:00053fd0       ?state_case_normal_common@?$output_processor@_WV?$stream_output_adapter@_W@__crt_stdio_output@@V?$positional_parameter_base@_WV?$stream_output_adapter@_W@__crt_stdio_output@@@2@@__crt_stdio_output@@AAE_NXZ 100b5fd0 f i libucrtd:output.obj
 0002:00054040       ?state_case_normal_common@?$output_processor@_WV?$stream_output_adapter@_W@__crt_stdio_output@@V?$standard_base@_WV?$stream_output_adapter@_W@__crt_stdio_output@@@2@@__crt_stdio_output@@AAE_NXZ 100b6040 f i libucrtd:output.obj
 0002:000540b0       ?state_case_normal_common@?$output_processor@_WV?$string_output_adapter@_W@__crt_stdio_output@@V?$format_validation_base@_WV?$string_output_adapter@_W@__crt_stdio_output@@@2@@__crt_stdio_output@@AAE_NXZ 100b60b0 f i libucrtd:output.obj
 0002:00054120       ?state_case_normal_common@?$output_processor@_WV?$string_output_adapter@_W@__crt_stdio_output@@V?$positional_parameter_base@_WV?$string_output_adapter@_W@__crt_stdio_output@@@2@@__crt_stdio_output@@AAE_NXZ 100b6120 f i libucrtd:output.obj
 0002:00054190       ?state_case_normal_common@?$output_processor@_WV?$string_output_adapter@_W@__crt_stdio_output@@V?$standard_base@_WV?$string_output_adapter@_W@__crt_stdio_output@@@2@@__crt_stdio_output@@AAE_NXZ 100b6190 f i libucrtd:output.obj
 0002:00054200       ?state_case_normal_tchar@?$output_processor@DV?$stream_output_adapter@D@__crt_stdio_output@@V?$format_validation_base@DV?$stream_output_adapter@D@__crt_stdio_output@@@2@@__crt_stdio_output@@AAE_ND@Z 100b6200 f i libucrtd:output.obj
 0002:00054380       ?state_case_normal_tchar@?$output_processor@DV?$stream_output_adapter@D@__crt_stdio_output@@V?$positional_parameter_base@DV?$stream_output_adapter@D@__crt_stdio_output@@@2@@__crt_stdio_output@@AAE_ND@Z 100b6380 f i libucrtd:output.obj
 0002:00054500       ?state_case_normal_tchar@?$output_processor@DV?$stream_output_adapter@D@__crt_stdio_output@@V?$standard_base@DV?$stream_output_adapter@D@__crt_stdio_output@@@2@@__crt_stdio_output@@AAE_ND@Z 100b6500 f i libucrtd:output.obj
 0002:00054680       ?state_case_normal_tchar@?$output_processor@DV?$string_output_adapter@D@__crt_stdio_output@@V?$format_validation_base@DV?$string_output_adapter@D@__crt_stdio_output@@@2@@__crt_stdio_output@@AAE_ND@Z 100b6680 f i libucrtd:output.obj
 0002:00054800       ?state_case_normal_tchar@?$output_processor@DV?$string_output_adapter@D@__crt_stdio_output@@V?$positional_parameter_base@DV?$string_output_adapter@D@__crt_stdio_output@@@2@@__crt_stdio_output@@AAE_ND@Z 100b6800 f i libucrtd:output.obj
 0002:00054980       ?state_case_normal_tchar@?$output_processor@DV?$string_output_adapter@D@__crt_stdio_output@@V?$standard_base@DV?$string_output_adapter@D@__crt_stdio_output@@@2@@__crt_stdio_output@@AAE_ND@Z 100b6980 f i libucrtd:output.obj
 0002:00054b00       ?state_case_normal_tchar@?$output_processor@_WV?$stream_output_adapter@_W@__crt_stdio_output@@V?$format_validation_base@_WV?$stream_output_adapter@_W@__crt_stdio_output@@@2@@__crt_stdio_output@@AAE_N_W@Z 100b6b00 f i libucrtd:output.obj
 0002:00054b20       ?state_case_normal_tchar@?$output_processor@_WV?$stream_output_adapter@_W@__crt_stdio_output@@V?$positional_parameter_base@_WV?$stream_output_adapter@_W@__crt_stdio_output@@@2@@__crt_stdio_output@@AAE_N_W@Z 100b6b20 f i libucrtd:output.obj
 0002:00054b40       ?state_case_normal_tchar@?$output_processor@_WV?$stream_output_adapter@_W@__crt_stdio_output@@V?$standard_base@_WV?$stream_output_adapter@_W@__crt_stdio_output@@@2@@__crt_stdio_output@@AAE_N_W@Z 100b6b40 f i libucrtd:output.obj
 0002:00054b60       ?state_case_normal_tchar@?$output_processor@_WV?$string_output_adapter@_W@__crt_stdio_output@@V?$format_validation_base@_WV?$string_output_adapter@_W@__crt_stdio_output@@@2@@__crt_stdio_output@@AAE_N_W@Z 100b6b60 f i libucrtd:output.obj
 0002:00054b80       ?state_case_normal_tchar@?$output_processor@_WV?$string_output_adapter@_W@__crt_stdio_output@@V?$positional_parameter_base@_WV?$string_output_adapter@_W@__crt_stdio_output@@@2@@__crt_stdio_output@@AAE_N_W@Z 100b6b80 f i libucrtd:output.obj
 0002:00054ba0       ?state_case_normal_tchar@?$output_processor@_WV?$string_output_adapter@_W@__crt_stdio_output@@V?$standard_base@_WV?$string_output_adapter@_W@__crt_stdio_output@@@2@@__crt_stdio_output@@AAE_N_W@Z 100b6ba0 f i libucrtd:output.obj
 0002:00054bc0       ?state_case_percent@?$output_processor@DV?$stream_output_adapter@D@__crt_stdio_output@@V?$format_validation_base@DV?$stream_output_adapter@D@__crt_stdio_output@@@2@@__crt_stdio_output@@AAE_NXZ 100b6bc0 f i libucrtd:output.obj
 0002:00054c20       ?state_case_percent@?$output_processor@DV?$stream_output_adapter@D@__crt_stdio_output@@V?$positional_parameter_base@DV?$stream_output_adapter@D@__crt_stdio_output@@@2@@__crt_stdio_output@@AAE_NXZ 100b6c20 f i libucrtd:output.obj
 0002:00054c80       ?state_case_percent@?$output_processor@DV?$stream_output_adapter@D@__crt_stdio_output@@V?$standard_base@DV?$stream_output_adapter@D@__crt_stdio_output@@@2@@__crt_stdio_output@@AAE_NXZ 100b6c80 f i libucrtd:output.obj
 0002:00054ce0       ?state_case_percent@?$output_processor@DV?$string_output_adapter@D@__crt_stdio_output@@V?$format_validation_base@DV?$string_output_adapter@D@__crt_stdio_output@@@2@@__crt_stdio_output@@AAE_NXZ 100b6ce0 f i libucrtd:output.obj
 0002:00054d40       ?state_case_percent@?$output_processor@DV?$string_output_adapter@D@__crt_stdio_output@@V?$positional_parameter_base@DV?$string_output_adapter@D@__crt_stdio_output@@@2@@__crt_stdio_output@@AAE_NXZ 100b6d40 f i libucrtd:output.obj
 0002:00054da0       ?state_case_percent@?$output_processor@DV?$string_output_adapter@D@__crt_stdio_output@@V?$standard_base@DV?$string_output_adapter@D@__crt_stdio_output@@@2@@__crt_stdio_output@@AAE_NXZ 100b6da0 f i libucrtd:output.obj
 0002:00054e00       ?state_case_percent@?$output_processor@_WV?$stream_output_adapter@_W@__crt_stdio_output@@V?$format_validation_base@_WV?$stream_output_adapter@_W@__crt_stdio_output@@@2@@__crt_stdio_output@@AAE_NXZ 100b6e00 f i libucrtd:output.obj
 0002:00054e60       ?state_case_percent@?$output_processor@_WV?$stream_output_adapter@_W@__crt_stdio_output@@V?$positional_parameter_base@_WV?$stream_output_adapter@_W@__crt_stdio_output@@@2@@__crt_stdio_output@@AAE_NXZ 100b6e60 f i libucrtd:output.obj
 0002:00054ec0       ?state_case_percent@?$output_processor@_WV?$stream_output_adapter@_W@__crt_stdio_output@@V?$standard_base@_WV?$stream_output_adapter@_W@__crt_stdio_output@@@2@@__crt_stdio_output@@AAE_NXZ 100b6ec0 f i libucrtd:output.obj
 0002:00054f20       ?state_case_percent@?$output_processor@_WV?$string_output_adapter@_W@__crt_stdio_output@@V?$format_validation_base@_WV?$string_output_adapter@_W@__crt_stdio_output@@@2@@__crt_stdio_output@@AAE_NXZ 100b6f20 f i libucrtd:output.obj
 0002:00054f80       ?state_case_percent@?$output_processor@_WV?$string_output_adapter@_W@__crt_stdio_output@@V?$positional_parameter_base@_WV?$string_output_adapter@_W@__crt_stdio_output@@@2@@__crt_stdio_output@@AAE_NXZ 100b6f80 f i libucrtd:output.obj
 0002:00054fe0       ?state_case_percent@?$output_processor@_WV?$string_output_adapter@_W@__crt_stdio_output@@V?$standard_base@_WV?$string_output_adapter@_W@__crt_stdio_output@@@2@@__crt_stdio_output@@AAE_NXZ 100b6fe0 f i libucrtd:output.obj
 0002:00055040       ?state_case_precision@?$output_processor@DV?$stream_output_adapter@D@__crt_stdio_output@@V?$format_validation_base@DV?$stream_output_adapter@D@__crt_stdio_output@@@2@@__crt_stdio_output@@AAE_NXZ 100b7040 f i libucrtd:output.obj
 0002:000550c0       ?state_case_precision@?$output_processor@DV?$stream_output_adapter@D@__crt_stdio_output@@V?$positional_parameter_base@DV?$stream_output_adapter@D@__crt_stdio_output@@@2@@__crt_stdio_output@@AAE_NXZ 100b70c0 f i libucrtd:output.obj
 0002:00055140       ?state_case_precision@?$output_processor@DV?$stream_output_adapter@D@__crt_stdio_output@@V?$standard_base@DV?$stream_output_adapter@D@__crt_stdio_output@@@2@@__crt_stdio_output@@AAE_NXZ 100b7140 f i libucrtd:output.obj
 0002:000551c0       ?state_case_precision@?$output_processor@DV?$string_output_adapter@D@__crt_stdio_output@@V?$format_validation_base@DV?$string_output_adapter@D@__crt_stdio_output@@@2@@__crt_stdio_output@@AAE_NXZ 100b71c0 f i libucrtd:output.obj
 0002:00055240       ?state_case_precision@?$output_processor@DV?$string_output_adapter@D@__crt_stdio_output@@V?$positional_parameter_base@DV?$string_output_adapter@D@__crt_stdio_output@@@2@@__crt_stdio_output@@AAE_NXZ 100b7240 f i libucrtd:output.obj
 0002:000552c0       ?state_case_precision@?$output_processor@DV?$string_output_adapter@D@__crt_stdio_output@@V?$standard_base@DV?$string_output_adapter@D@__crt_stdio_output@@@2@@__crt_stdio_output@@AAE_NXZ 100b72c0 f i libucrtd:output.obj
 0002:00055340       ?state_case_precision@?$output_processor@_WV?$stream_output_adapter@_W@__crt_stdio_output@@V?$format_validation_base@_WV?$stream_output_adapter@_W@__crt_stdio_output@@@2@@__crt_stdio_output@@AAE_NXZ 100b7340 f i libucrtd:output.obj
 0002:000553c0       ?state_case_precision@?$output_processor@_WV?$stream_output_adapter@_W@__crt_stdio_output@@V?$positional_parameter_base@_WV?$stream_output_adapter@_W@__crt_stdio_output@@@2@@__crt_stdio_output@@AAE_NXZ 100b73c0 f i libucrtd:output.obj
 0002:00055440       ?state_case_precision@?$output_processor@_WV?$stream_output_adapter@_W@__crt_stdio_output@@V?$standard_base@_WV?$stream_output_adapter@_W@__crt_stdio_output@@@2@@__crt_stdio_output@@AAE_NXZ 100b7440 f i libucrtd:output.obj
 0002:000554c0       ?state_case_precision@?$output_processor@_WV?$string_output_adapter@_W@__crt_stdio_output@@V?$format_validation_base@_WV?$string_output_adapter@_W@__crt_stdio_output@@@2@@__crt_stdio_output@@AAE_NXZ 100b74c0 f i libucrtd:output.obj
 0002:00055540       ?state_case_precision@?$output_processor@_WV?$string_output_adapter@_W@__crt_stdio_output@@V?$positional_parameter_base@_WV?$string_output_adapter@_W@__crt_stdio_output@@@2@@__crt_stdio_output@@AAE_NXZ 100b7540 f i libucrtd:output.obj
 0002:000555c0       ?state_case_precision@?$output_processor@_WV?$string_output_adapter@_W@__crt_stdio_output@@V?$standard_base@_WV?$string_output_adapter@_W@__crt_stdio_output@@@2@@__crt_stdio_output@@AAE_NXZ 100b75c0 f i libucrtd:output.obj
 0002:00055640       ?state_case_size@?$output_processor@DV?$stream_output_adapter@D@__crt_stdio_output@@V?$format_validation_base@DV?$stream_output_adapter@D@__crt_stdio_output@@@2@@__crt_stdio_output@@AAE_NXZ 100b7640 f i libucrtd:output.obj
 0002:00055b20       ?state_case_size@?$output_processor@DV?$stream_output_adapter@D@__crt_stdio_output@@V?$positional_parameter_base@DV?$stream_output_adapter@D@__crt_stdio_output@@@2@@__crt_stdio_output@@AAE_NXZ 100b7b20 f i libucrtd:output.obj
 0002:00056000       ?state_case_size@?$output_processor@DV?$stream_output_adapter@D@__crt_stdio_output@@V?$standard_base@DV?$stream_output_adapter@D@__crt_stdio_output@@@2@@__crt_stdio_output@@AAE_NXZ 100b8000 f i libucrtd:output.obj
 0002:000564e0       ?state_case_size@?$output_processor@DV?$string_output_adapter@D@__crt_stdio_output@@V?$format_validation_base@DV?$string_output_adapter@D@__crt_stdio_output@@@2@@__crt_stdio_output@@AAE_NXZ 100b84e0 f i libucrtd:output.obj
 0002:000569c0       ?state_case_size@?$output_processor@DV?$string_output_adapter@D@__crt_stdio_output@@V?$positional_parameter_base@DV?$string_output_adapter@D@__crt_stdio_output@@@2@@__crt_stdio_output@@AAE_NXZ 100b89c0 f i libucrtd:output.obj
 0002:00056ea0       ?state_case_size@?$output_processor@DV?$string_output_adapter@D@__crt_stdio_output@@V?$standard_base@DV?$string_output_adapter@D@__crt_stdio_output@@@2@@__crt_stdio_output@@AAE_NXZ 100b8ea0 f i libucrtd:output.obj
 0002:00057380       ?state_case_size@?$output_processor@_WV?$stream_output_adapter@_W@__crt_stdio_output@@V?$format_validation_base@_WV?$stream_output_adapter@_W@__crt_stdio_output@@@2@@__crt_stdio_output@@AAE_NXZ 100b9380 f i libucrtd:output.obj
 0002:00057860       ?state_case_size@?$output_processor@_WV?$stream_output_adapter@_W@__crt_stdio_output@@V?$positional_parameter_base@_WV?$stream_output_adapter@_W@__crt_stdio_output@@@2@@__crt_stdio_output@@AAE_NXZ 100b9860 f i libucrtd:output.obj
 0002:00057d40       ?state_case_size@?$output_processor@_WV?$stream_output_adapter@_W@__crt_stdio_output@@V?$standard_base@_WV?$stream_output_adapter@_W@__crt_stdio_output@@@2@@__crt_stdio_output@@AAE_NXZ 100b9d40 f i libucrtd:output.obj
 0002:00058220       ?state_case_size@?$output_processor@_WV?$string_output_adapter@_W@__crt_stdio_output@@V?$format_validation_base@_WV?$string_output_adapter@_W@__crt_stdio_output@@@2@@__crt_stdio_output@@AAE_NXZ 100ba220 f i libucrtd:output.obj
 0002:00058700       ?state_case_size@?$output_processor@_WV?$string_output_adapter@_W@__crt_stdio_output@@V?$positional_parameter_base@_WV?$string_output_adapter@_W@__crt_stdio_output@@@2@@__crt_stdio_output@@AAE_NXZ 100ba700 f i libucrtd:output.obj
 0002:00058be0       ?state_case_size@?$output_processor@_WV?$string_output_adapter@_W@__crt_stdio_output@@V?$standard_base@_WV?$string_output_adapter@_W@__crt_stdio_output@@@2@@__crt_stdio_output@@AAE_NXZ 100babe0 f i libucrtd:output.obj
 0002:000590c0       ?state_case_type@?$output_processor@DV?$stream_output_adapter@D@__crt_stdio_output@@V?$format_validation_base@DV?$stream_output_adapter@D@__crt_stdio_output@@@2@@__crt_stdio_output@@AAE_NXZ 100bb0c0 f i libucrtd:output.obj
 0002:00059580       ?state_case_type@?$output_processor@DV?$stream_output_adapter@D@__crt_stdio_output@@V?$positional_parameter_base@DV?$stream_output_adapter@D@__crt_stdio_output@@@2@@__crt_stdio_output@@AAE_NXZ 100bb580 f i libucrtd:output.obj
 0002:00059a40       ?state_case_type@?$output_processor@DV?$stream_output_adapter@D@__crt_stdio_output@@V?$standard_base@DV?$stream_output_adapter@D@__crt_stdio_output@@@2@@__crt_stdio_output@@AAE_NXZ 100bba40 f i libucrtd:output.obj
 0002:00059f00       ?state_case_type@?$output_processor@DV?$string_output_adapter@D@__crt_stdio_output@@V?$format_validation_base@DV?$string_output_adapter@D@__crt_stdio_output@@@2@@__crt_stdio_output@@AAE_NXZ 100bbf00 f i libucrtd:output.obj
 0002:0005a3c0       ?state_case_type@?$output_processor@DV?$string_output_adapter@D@__crt_stdio_output@@V?$positional_parameter_base@DV?$string_output_adapter@D@__crt_stdio_output@@@2@@__crt_stdio_output@@AAE_NXZ 100bc3c0 f i libucrtd:output.obj
 0002:0005a880       ?state_case_type@?$output_processor@DV?$string_output_adapter@D@__crt_stdio_output@@V?$standard_base@DV?$string_output_adapter@D@__crt_stdio_output@@@2@@__crt_stdio_output@@AAE_NXZ 100bc880 f i libucrtd:output.obj
 0002:0005ad40       ?state_case_type@?$output_processor@_WV?$stream_output_adapter@_W@__crt_stdio_output@@V?$format_validation_base@_WV?$stream_output_adapter@_W@__crt_stdio_output@@@2@@__crt_stdio_output@@AAE_NXZ 100bcd40 f i libucrtd:output.obj
 0002:0005b240       ?state_case_type@?$output_processor@_WV?$stream_output_adapter@_W@__crt_stdio_output@@V?$positional_parameter_base@_WV?$stream_output_adapter@_W@__crt_stdio_output@@@2@@__crt_stdio_output@@AAE_NXZ 100bd240 f i libucrtd:output.obj
 0002:0005b740       ?state_case_type@?$output_processor@_WV?$stream_output_adapter@_W@__crt_stdio_output@@V?$standard_base@_WV?$stream_output_adapter@_W@__crt_stdio_output@@@2@@__crt_stdio_output@@AAE_NXZ 100bd740 f i libucrtd:output.obj
 0002:0005bc40       ?state_case_type@?$output_processor@_WV?$string_output_adapter@_W@__crt_stdio_output@@V?$format_validation_base@_WV?$string_output_adapter@_W@__crt_stdio_output@@@2@@__crt_stdio_output@@AAE_NXZ 100bdc40 f i libucrtd:output.obj
 0002:0005c140       ?state_case_type@?$output_processor@_WV?$string_output_adapter@_W@__crt_stdio_output@@V?$positional_parameter_base@_WV?$string_output_adapter@_W@__crt_stdio_output@@@2@@__crt_stdio_output@@AAE_NXZ 100be140 f i libucrtd:output.obj
 0002:0005c640       ?state_case_type@?$output_processor@_WV?$string_output_adapter@_W@__crt_stdio_output@@V?$standard_base@_WV?$string_output_adapter@_W@__crt_stdio_output@@@2@@__crt_stdio_output@@AAE_NXZ 100be640 f i libucrtd:output.obj
 0002:0005cb40       ?state_case_width@?$output_processor@DV?$stream_output_adapter@D@__crt_stdio_output@@V?$format_validation_base@DV?$stream_output_adapter@D@__crt_stdio_output@@@2@@__crt_stdio_output@@AAE_NXZ 100beb40 f i libucrtd:output.obj
 0002:0005cbd0       ?state_case_width@?$output_processor@DV?$stream_output_adapter@D@__crt_stdio_output@@V?$positional_parameter_base@DV?$stream_output_adapter@D@__crt_stdio_output@@@2@@__crt_stdio_output@@AAE_NXZ 100bebd0 f i libucrtd:output.obj
 0002:0005cc60       ?state_case_width@?$output_processor@DV?$stream_output_adapter@D@__crt_stdio_output@@V?$standard_base@DV?$stream_output_adapter@D@__crt_stdio_output@@@2@@__crt_stdio_output@@AAE_NXZ 100bec60 f i libucrtd:output.obj
 0002:0005ccf0       ?state_case_width@?$output_processor@DV?$string_output_adapter@D@__crt_stdio_output@@V?$format_validation_base@DV?$string_output_adapter@D@__crt_stdio_output@@@2@@__crt_stdio_output@@AAE_NXZ 100becf0 f i libucrtd:output.obj
 0002:0005cd80       ?state_case_width@?$output_processor@DV?$string_output_adapter@D@__crt_stdio_output@@V?$positional_parameter_base@DV?$string_output_adapter@D@__crt_stdio_output@@@2@@__crt_stdio_output@@AAE_NXZ 100bed80 f i libucrtd:output.obj
 0002:0005ce10       ?state_case_width@?$output_processor@DV?$string_output_adapter@D@__crt_stdio_output@@V?$standard_base@DV?$string_output_adapter@D@__crt_stdio_output@@@2@@__crt_stdio_output@@AAE_NXZ 100bee10 f i libucrtd:output.obj
 0002:0005cea0       ?state_case_width@?$output_processor@_WV?$stream_output_adapter@_W@__crt_stdio_output@@V?$format_validation_base@_WV?$stream_output_adapter@_W@__crt_stdio_output@@@2@@__crt_stdio_output@@AAE_NXZ 100beea0 f i libucrtd:output.obj
 0002:0005cf30       ?state_case_width@?$output_processor@_WV?$stream_output_adapter@_W@__crt_stdio_output@@V?$positional_parameter_base@_WV?$stream_output_adapter@_W@__crt_stdio_output@@@2@@__crt_stdio_output@@AAE_NXZ 100bef30 f i libucrtd:output.obj
 0002:0005cfc0       ?state_case_width@?$output_processor@_WV?$stream_output_adapter@_W@__crt_stdio_output@@V?$standard_base@_WV?$stream_output_adapter@_W@__crt_stdio_output@@@2@@__crt_stdio_output@@AAE_NXZ 100befc0 f i libucrtd:output.obj
 0002:0005d050       ?state_case_width@?$output_processor@_WV?$string_output_adapter@_W@__crt_stdio_output@@V?$format_validation_base@_WV?$string_output_adapter@_W@__crt_stdio_output@@@2@@__crt_stdio_output@@AAE_NXZ 100bf050 f i libucrtd:output.obj
 0002:0005d0e0       ?state_case_width@?$output_processor@_WV?$string_output_adapter@_W@__crt_stdio_output@@V?$positional_parameter_base@_WV?$string_output_adapter@_W@__crt_stdio_output@@@2@@__crt_stdio_output@@AAE_NXZ 100bf0e0 f i libucrtd:output.obj
 0002:0005d170       ?state_case_width@?$output_processor@_WV?$string_output_adapter@_W@__crt_stdio_output@@V?$standard_base@_WV?$string_output_adapter@_W@__crt_stdio_output@@@2@@__crt_stdio_output@@AAE_NXZ 100bf170 f i libucrtd:output.obj
 0002:0005d200       ?state_count@?$format_validation_base@DV?$stream_output_adapter@D@__crt_stdio_output@@@__crt_stdio_output@@KAIXZ 100bf200 f i libucrtd:output.obj
 0002:0005d210       ?state_count@?$format_validation_base@DV?$string_output_adapter@D@__crt_stdio_output@@@__crt_stdio_output@@KAIXZ 100bf210 f i libucrtd:output.obj
 0002:0005d220       ?state_count@?$format_validation_base@_WV?$stream_output_adapter@_W@__crt_stdio_output@@@__crt_stdio_output@@KAIXZ 100bf220 f i libucrtd:output.obj
 0002:0005d230       ?state_count@?$format_validation_base@_WV?$string_output_adapter@_W@__crt_stdio_output@@@__crt_stdio_output@@KAIXZ 100bf230 f i libucrtd:output.obj
 0002:0005d240       ?state_count@?$standard_base@DV?$stream_output_adapter@D@__crt_stdio_output@@@__crt_stdio_output@@KAIXZ 100bf240 f i libucrtd:output.obj
 0002:0005d250       ?state_count@?$standard_base@DV?$string_output_adapter@D@__crt_stdio_output@@@__crt_stdio_output@@KAIXZ 100bf250 f i libucrtd:output.obj
 0002:0005d260       ?state_count@?$standard_base@_WV?$stream_output_adapter@_W@__crt_stdio_output@@@__crt_stdio_output@@KAIXZ 100bf260 f i libucrtd:output.obj
 0002:0005d270       ?state_count@?$standard_base@_WV?$string_output_adapter@_W@__crt_stdio_output@@@__crt_stdio_output@@KAIXZ 100bf270 f i libucrtd:output.obj
 0002:0005d280       ?state_transition_table@?$format_validation_base@DV?$stream_output_adapter@D@__crt_stdio_output@@@__crt_stdio_output@@KAABV?$spectre_mitigated_lookup_table@Ustate_transition_pair@__crt_stdio_output@@$0IA@@2@XZ 100bf280 f i libucrtd:output.obj
 0002:0005d290       ?state_transition_table@?$format_validation_base@DV?$string_output_adapter@D@__crt_stdio_output@@@__crt_stdio_output@@KAABV?$spectre_mitigated_lookup_table@Ustate_transition_pair@__crt_stdio_output@@$0IA@@2@XZ 100bf290 f i libucrtd:output.obj
 0002:0005d2a0       ?state_transition_table@?$format_validation_base@_WV?$stream_output_adapter@_W@__crt_stdio_output@@@__crt_stdio_output@@KAABV?$spectre_mitigated_lookup_table@Ustate_transition_pair@__crt_stdio_output@@$0IA@@2@XZ 100bf2a0 f i libucrtd:output.obj
 0002:0005d2b0       ?state_transition_table@?$format_validation_base@_WV?$string_output_adapter@_W@__crt_stdio_output@@@__crt_stdio_output@@KAABV?$spectre_mitigated_lookup_table@Ustate_transition_pair@__crt_stdio_output@@$0IA@@2@XZ 100bf2b0 f i libucrtd:output.obj
 0002:0005d2c0       ?state_transition_table@?$standard_base@DV?$stream_output_adapter@D@__crt_stdio_output@@@__crt_stdio_output@@KAABV?$spectre_mitigated_lookup_table@Ustate_transition_pair@__crt_stdio_output@@$0IA@@2@XZ 100bf2c0 f i libucrtd:output.obj
 0002:0005d2d0       ?state_transition_table@?$standard_base@DV?$string_output_adapter@D@__crt_stdio_output@@@__crt_stdio_output@@KAABV?$spectre_mitigated_lookup_table@Ustate_transition_pair@__crt_stdio_output@@$0IA@@2@XZ 100bf2d0 f i libucrtd:output.obj
 0002:0005d2e0       ?state_transition_table@?$standard_base@_WV?$stream_output_adapter@_W@__crt_stdio_output@@@__crt_stdio_output@@KAABV?$spectre_mitigated_lookup_table@Ustate_transition_pair@__crt_stdio_output@@$0IA@@2@XZ 100bf2e0 f i libucrtd:output.obj
 0002:0005d2f0       ?state_transition_table@?$standard_base@_WV?$string_output_adapter@_W@__crt_stdio_output@@@__crt_stdio_output@@KAABV?$spectre_mitigated_lookup_table@Ustate_transition_pair@__crt_stdio_output@@$0IA@@2@XZ 100bf2f0 f i libucrtd:output.obj
 0002:0005d300       ?tchar_string@?$common_data@D@__crt_stdio_output@@IAEAAPADD@Z 100bf300 f i libucrtd:output.obj
 0002:0005d320       ?tchar_string@?$common_data@D@__crt_stdio_output@@IAEAAPADXZ 100bf320 f i libucrtd:output.obj
 0002:0005d340       ?tchar_string@?$common_data@_W@__crt_stdio_output@@IAEAAPA_WXZ 100bf340 f i libucrtd:output.obj
 0002:0005d360       ?tchar_string@?$common_data@_W@__crt_stdio_output@@IAEAAPA_W_W@Z 100bf360 f i libucrtd:output.obj
 0002:0005d380       ?to_integer_size@__crt_stdio_output@@YAIW4length_modifier@1@@Z 100bf380 f i libucrtd:output.obj
 0002:0005d450       ?type_case_X@?$output_processor@DV?$stream_output_adapter@D@__crt_stdio_output@@V?$format_validation_base@DV?$stream_output_adapter@D@__crt_stdio_output@@@2@@__crt_stdio_output@@AAE_NXZ 100bf450 f i libucrtd:output.obj
 0002:0005d470       ?type_case_X@?$output_processor@DV?$stream_output_adapter@D@__crt_stdio_output@@V?$positional_parameter_base@DV?$stream_output_adapter@D@__crt_stdio_output@@@2@@__crt_stdio_output@@AAE_NXZ 100bf470 f i libucrtd:output.obj
 0002:0005d490       ?type_case_X@?$output_processor@DV?$stream_output_adapter@D@__crt_stdio_output@@V?$standard_base@DV?$stream_output_adapter@D@__crt_stdio_output@@@2@@__crt_stdio_output@@AAE_NXZ 100bf490 f i libucrtd:output.obj
 0002:0005d4b0       ?type_case_X@?$output_processor@DV?$string_output_adapter@D@__crt_stdio_output@@V?$format_validation_base@DV?$string_output_adapter@D@__crt_stdio_output@@@2@@__crt_stdio_output@@AAE_NXZ 100bf4b0 f i libucrtd:output.obj
 0002:0005d4d0       ?type_case_X@?$output_processor@DV?$string_output_adapter@D@__crt_stdio_output@@V?$positional_parameter_base@DV?$string_output_adapter@D@__crt_stdio_output@@@2@@__crt_stdio_output@@AAE_NXZ 100bf4d0 f i libucrtd:output.obj
 0002:0005d4f0       ?type_case_X@?$output_processor@DV?$string_output_adapter@D@__crt_stdio_output@@V?$standard_base@DV?$string_output_adapter@D@__crt_stdio_output@@@2@@__crt_stdio_output@@AAE_NXZ 100bf4f0 f i libucrtd:output.obj
 0002:0005d510       ?type_case_X@?$output_processor@_WV?$stream_output_adapter@_W@__crt_stdio_output@@V?$format_validation_base@_WV?$stream_output_adapter@_W@__crt_stdio_output@@@2@@__crt_stdio_output@@AAE_NXZ 100bf510 f i libucrtd:output.obj
 0002:0005d530       ?type_case_X@?$output_processor@_WV?$stream_output_adapter@_W@__crt_stdio_output@@V?$positional_parameter_base@_WV?$stream_output_adapter@_W@__crt_stdio_output@@@2@@__crt_stdio_output@@AAE_NXZ 100bf530 f i libucrtd:output.obj
 0002:0005d550       ?type_case_X@?$output_processor@_WV?$stream_output_adapter@_W@__crt_stdio_output@@V?$standard_base@_WV?$stream_output_adapter@_W@__crt_stdio_output@@@2@@__crt_stdio_output@@AAE_NXZ 100bf550 f i libucrtd:output.obj
 0002:0005d570       ?type_case_X@?$output_processor@_WV?$string_output_adapter@_W@__crt_stdio_output@@V?$format_validation_base@_WV?$string_output_adapter@_W@__crt_stdio_output@@@2@@__crt_stdio_output@@AAE_NXZ 100bf570 f i libucrtd:output.obj
 0002:0005d590       ?type_case_X@?$output_processor@_WV?$string_output_adapter@_W@__crt_stdio_output@@V?$positional_parameter_base@_WV?$string_output_adapter@_W@__crt_stdio_output@@@2@@__crt_stdio_output@@AAE_NXZ 100bf590 f i libucrtd:output.obj
 0002:0005d5b0       ?type_case_X@?$output_processor@_WV?$string_output_adapter@_W@__crt_stdio_output@@V?$standard_base@_WV?$string_output_adapter@_W@__crt_stdio_output@@@2@@__crt_stdio_output@@AAE_NXZ 100bf5b0 f i libucrtd:output.obj
 0002:0005d5d0       ?type_case_Z@?$output_processor@DV?$stream_output_adapter@D@__crt_stdio_output@@V?$format_validation_base@DV?$stream_output_adapter@D@__crt_stdio_output@@@2@@__crt_stdio_output@@AAE_NXZ 100bf5d0 f i libucrtd:output.obj
 0002:0005d700       ?type_case_Z@?$output_processor@DV?$stream_output_adapter@D@__crt_stdio_output@@V?$positional_parameter_base@DV?$stream_output_adapter@D@__crt_stdio_output@@@2@@__crt_stdio_output@@AAE_NXZ 100bf700 f i libucrtd:output.obj
 0002:0005d830       ?type_case_Z@?$output_processor@DV?$stream_output_adapter@D@__crt_stdio_output@@V?$standard_base@DV?$stream_output_adapter@D@__crt_stdio_output@@@2@@__crt_stdio_output@@AAE_NXZ 100bf830 f i libucrtd:output.obj
 0002:0005d960       ?type_case_Z@?$output_processor@DV?$string_output_adapter@D@__crt_stdio_output@@V?$format_validation_base@DV?$string_output_adapter@D@__crt_stdio_output@@@2@@__crt_stdio_output@@AAE_NXZ 100bf960 f i libucrtd:output.obj
 0002:0005da90       ?type_case_Z@?$output_processor@DV?$string_output_adapter@D@__crt_stdio_output@@V?$positional_parameter_base@DV?$string_output_adapter@D@__crt_stdio_output@@@2@@__crt_stdio_output@@AAE_NXZ 100bfa90 f i libucrtd:output.obj
 0002:0005dbc0       ?type_case_Z@?$output_processor@DV?$string_output_adapter@D@__crt_stdio_output@@V?$standard_base@DV?$string_output_adapter@D@__crt_stdio_output@@@2@@__crt_stdio_output@@AAE_NXZ 100bfbc0 f i libucrtd:output.obj
 0002:0005dcf0       ?type_case_Z@?$output_processor@_WV?$stream_output_adapter@_W@__crt_stdio_output@@V?$format_validation_base@_WV?$stream_output_adapter@_W@__crt_stdio_output@@@2@@__crt_stdio_output@@AAE_NXZ 100bfcf0 f i libucrtd:output.obj
 0002:0005de20       ?type_case_Z@?$output_processor@_WV?$stream_output_adapter@_W@__crt_stdio_output@@V?$positional_parameter_base@_WV?$stream_output_adapter@_W@__crt_stdio_output@@@2@@__crt_stdio_output@@AAE_NXZ 100bfe20 f i libucrtd:output.obj
 0002:0005df50       ?type_case_Z@?$output_processor@_WV?$stream_output_adapter@_W@__crt_stdio_output@@V?$standard_base@_WV?$stream_output_adapter@_W@__crt_stdio_output@@@2@@__crt_stdio_output@@AAE_NXZ 100bff50 f i libucrtd:output.obj
 0002:0005e080       ?type_case_Z@?$output_processor@_WV?$string_output_adapter@_W@__crt_stdio_output@@V?$format_validation_base@_WV?$string_output_adapter@_W@__crt_stdio_output@@@2@@__crt_stdio_output@@AAE_NXZ 100c0080 f i libucrtd:output.obj
 0002:0005e1b0       ?type_case_Z@?$output_processor@_WV?$string_output_adapter@_W@__crt_stdio_output@@V?$positional_parameter_base@_WV?$string_output_adapter@_W@__crt_stdio_output@@@2@@__crt_stdio_output@@AAE_NXZ 100c01b0 f i libucrtd:output.obj
 0002:0005e2e0       ?type_case_Z@?$output_processor@_WV?$string_output_adapter@_W@__crt_stdio_output@@V?$standard_base@_WV?$string_output_adapter@_W@__crt_stdio_output@@@2@@__crt_stdio_output@@AAE_NXZ 100c02e0 f i libucrtd:output.obj
 0002:0005e410       ?type_case_a@?$output_processor@DV?$stream_output_adapter@D@__crt_stdio_output@@V?$format_validation_base@DV?$stream_output_adapter@D@__crt_stdio_output@@@2@@__crt_stdio_output@@AAE_NXZ 100c0410 f i libucrtd:output.obj
 0002:0005e790       ?type_case_a@?$output_processor@DV?$stream_output_adapter@D@__crt_stdio_output@@V?$positional_parameter_base@DV?$stream_output_adapter@D@__crt_stdio_output@@@2@@__crt_stdio_output@@AAE_NXZ 100c0790 f i libucrtd:output.obj
 0002:0005eb10       ?type_case_a@?$output_processor@DV?$stream_output_adapter@D@__crt_stdio_output@@V?$standard_base@DV?$stream_output_adapter@D@__crt_stdio_output@@@2@@__crt_stdio_output@@AAE_NXZ 100c0b10 f i libucrtd:output.obj
 0002:0005ee90       ?type_case_a@?$output_processor@DV?$string_output_adapter@D@__crt_stdio_output@@V?$format_validation_base@DV?$string_output_adapter@D@__crt_stdio_output@@@2@@__crt_stdio_output@@AAE_NXZ 100c0e90 f i libucrtd:output.obj
 0002:0005f210       ?type_case_a@?$output_processor@DV?$string_output_adapter@D@__crt_stdio_output@@V?$positional_parameter_base@DV?$string_output_adapter@D@__crt_stdio_output@@@2@@__crt_stdio_output@@AAE_NXZ 100c1210 f i libucrtd:output.obj
 0002:0005f590       ?type_case_a@?$output_processor@DV?$string_output_adapter@D@__crt_stdio_output@@V?$standard_base@DV?$string_output_adapter@D@__crt_stdio_output@@@2@@__crt_stdio_output@@AAE_NXZ 100c1590 f i libucrtd:output.obj
 0002:0005f910       ?type_case_a@?$output_processor@_WV?$stream_output_adapter@_W@__crt_stdio_output@@V?$format_validation_base@_WV?$stream_output_adapter@_W@__crt_stdio_output@@@2@@__crt_stdio_output@@AAE_NXZ 100c1910 f i libucrtd:output.obj
 0002:0005fca0       ?type_case_a@?$output_processor@_WV?$stream_output_adapter@_W@__crt_stdio_output@@V?$positional_parameter_base@_WV?$stream_output_adapter@_W@__crt_stdio_output@@@2@@__crt_stdio_output@@AAE_NXZ 100c1ca0 f i libucrtd:output.obj
 0002:00060030       ?type_case_a@?$output_processor@_WV?$stream_output_adapter@_W@__crt_stdio_output@@V?$standard_base@_WV?$stream_output_adapter@_W@__crt_stdio_output@@@2@@__crt_stdio_output@@AAE_NXZ 100c2030 f i libucrtd:output.obj
 0002:000603c0       ?type_case_a@?$output_processor@_WV?$string_output_adapter@_W@__crt_stdio_output@@V?$format_validation_base@_WV?$string_output_adapter@_W@__crt_stdio_output@@@2@@__crt_stdio_output@@AAE_NXZ 100c23c0 f i libucrtd:output.obj
 0002:00060750       ?type_case_a@?$output_processor@_WV?$string_output_adapter@_W@__crt_stdio_output@@V?$positional_parameter_base@_WV?$string_output_adapter@_W@__crt_stdio_output@@@2@@__crt_stdio_output@@AAE_NXZ 100c2750 f i libucrtd:output.obj
 0002:00060ae0       ?type_case_a@?$output_processor@_WV?$string_output_adapter@_W@__crt_stdio_output@@V?$standard_base@_WV?$string_output_adapter@_W@__crt_stdio_output@@@2@@__crt_stdio_output@@AAE_NXZ 100c2ae0 f i libucrtd:output.obj
 0002:00060e70       ?type_case_c@?$output_processor@DV?$stream_output_adapter@D@__crt_stdio_output@@V?$format_validation_base@DV?$stream_output_adapter@D@__crt_stdio_output@@@2@@__crt_stdio_output@@AAE_NXZ 100c2e70 f i libucrtd:output.obj
 0002:00060e90       ?type_case_c@?$output_processor@DV?$stream_output_adapter@D@__crt_stdio_output@@V?$positional_parameter_base@DV?$stream_output_adapter@D@__crt_stdio_output@@@2@@__crt_stdio_output@@AAE_NXZ 100c2e90 f i libucrtd:output.obj
 0002:00060eb0       ?type_case_c@?$output_processor@DV?$stream_output_adapter@D@__crt_stdio_output@@V?$standard_base@DV?$stream_output_adapter@D@__crt_stdio_output@@@2@@__crt_stdio_output@@AAE_NXZ 100c2eb0 f i libucrtd:output.obj
 0002:00060ed0       ?type_case_c@?$output_processor@DV?$string_output_adapter@D@__crt_stdio_output@@V?$format_validation_base@DV?$string_output_adapter@D@__crt_stdio_output@@@2@@__crt_stdio_output@@AAE_NXZ 100c2ed0 f i libucrtd:output.obj
 0002:00060ef0       ?type_case_c@?$output_processor@DV?$string_output_adapter@D@__crt_stdio_output@@V?$positional_parameter_base@DV?$string_output_adapter@D@__crt_stdio_output@@@2@@__crt_stdio_output@@AAE_NXZ 100c2ef0 f i libucrtd:output.obj
 0002:00060f10       ?type_case_c@?$output_processor@DV?$string_output_adapter@D@__crt_stdio_output@@V?$standard_base@DV?$string_output_adapter@D@__crt_stdio_output@@@2@@__crt_stdio_output@@AAE_NXZ 100c2f10 f i libucrtd:output.obj
 0002:00060f30       ?type_case_c@?$output_processor@_WV?$stream_output_adapter@_W@__crt_stdio_output@@V?$format_validation_base@_WV?$stream_output_adapter@_W@__crt_stdio_output@@@2@@__crt_stdio_output@@AAE_NXZ 100c2f30 f i libucrtd:output.obj
 0002:00060f50       ?type_case_c@?$output_processor@_WV?$stream_output_adapter@_W@__crt_stdio_output@@V?$positional_parameter_base@_WV?$stream_output_adapter@_W@__crt_stdio_output@@@2@@__crt_stdio_output@@AAE_NXZ 100c2f50 f i libucrtd:output.obj
 0002:00060f70       ?type_case_c@?$output_processor@_WV?$stream_output_adapter@_W@__crt_stdio_output@@V?$standard_base@_WV?$stream_output_adapter@_W@__crt_stdio_output@@@2@@__crt_stdio_output@@AAE_NXZ 100c2f70 f i libucrtd:output.obj
 0002:00060f90       ?type_case_c@?$output_processor@_WV?$string_output_adapter@_W@__crt_stdio_output@@V?$format_validation_base@_WV?$string_output_adapter@_W@__crt_stdio_output@@@2@@__crt_stdio_output@@AAE_NXZ 100c2f90 f i libucrtd:output.obj
 0002:00060fb0       ?type_case_c@?$output_processor@_WV?$string_output_adapter@_W@__crt_stdio_output@@V?$positional_parameter_base@_WV?$string_output_adapter@_W@__crt_stdio_output@@@2@@__crt_stdio_output@@AAE_NXZ 100c2fb0 f i libucrtd:output.obj
 0002:00060fd0       ?type_case_c@?$output_processor@_WV?$string_output_adapter@_W@__crt_stdio_output@@V?$standard_base@_WV?$string_output_adapter@_W@__crt_stdio_output@@@2@@__crt_stdio_output@@AAE_NXZ 100c2fd0 f i libucrtd:output.obj
 0002:00060ff0       ?type_case_c_tchar@?$output_processor@DV?$stream_output_adapter@D@__crt_stdio_output@@V?$format_validation_base@DV?$stream_output_adapter@D@__crt_stdio_output@@@2@@__crt_stdio_output@@AAE_ND@Z 100c2ff0 f i libucrtd:output.obj
 0002:00061170       ?type_case_c_tchar@?$output_processor@DV?$stream_output_adapter@D@__crt_stdio_output@@V?$positional_parameter_base@DV?$stream_output_adapter@D@__crt_stdio_output@@@2@@__crt_stdio_output@@AAE_ND@Z 100c3170 f i libucrtd:output.obj
 0002:000612f0       ?type_case_c_tchar@?$output_processor@DV?$stream_output_adapter@D@__crt_stdio_output@@V?$standard_base@DV?$stream_output_adapter@D@__crt_stdio_output@@@2@@__crt_stdio_output@@AAE_ND@Z 100c32f0 f i libucrtd:output.obj
 0002:00061470       ?type_case_c_tchar@?$output_processor@DV?$string_output_adapter@D@__crt_stdio_output@@V?$format_validation_base@DV?$string_output_adapter@D@__crt_stdio_output@@@2@@__crt_stdio_output@@AAE_ND@Z 100c3470 f i libucrtd:output.obj
 0002:000615f0       ?type_case_c_tchar@?$output_processor@DV?$string_output_adapter@D@__crt_stdio_output@@V?$positional_parameter_base@DV?$string_output_adapter@D@__crt_stdio_output@@@2@@__crt_stdio_output@@AAE_ND@Z 100c35f0 f i libucrtd:output.obj
 0002:00061770       ?type_case_c_tchar@?$output_processor@DV?$string_output_adapter@D@__crt_stdio_output@@V?$standard_base@DV?$string_output_adapter@D@__crt_stdio_output@@@2@@__crt_stdio_output@@AAE_ND@Z 100c3770 f i libucrtd:output.obj
 0002:000618f0       ?type_case_c_tchar@?$output_processor@_WV?$stream_output_adapter@_W@__crt_stdio_output@@V?$format_validation_base@_WV?$stream_output_adapter@_W@__crt_stdio_output@@@2@@__crt_stdio_output@@AAE_N_W@Z 100c38f0 f i libucrtd:output.obj
 0002:00061a60       ?type_case_c_tchar@?$output_processor@_WV?$stream_output_adapter@_W@__crt_stdio_output@@V?$positional_parameter_base@_WV?$stream_output_adapter@_W@__crt_stdio_output@@@2@@__crt_stdio_output@@AAE_N_W@Z 100c3a60 f i libucrtd:output.obj
 0002:00061bd0       ?type_case_c_tchar@?$output_processor@_WV?$stream_output_adapter@_W@__crt_stdio_output@@V?$standard_base@_WV?$stream_output_adapter@_W@__crt_stdio_output@@@2@@__crt_stdio_output@@AAE_N_W@Z 100c3bd0 f i libucrtd:output.obj
 0002:00061d40       ?type_case_c_tchar@?$output_processor@_WV?$string_output_adapter@_W@__crt_stdio_output@@V?$format_validation_base@_WV?$string_output_adapter@_W@__crt_stdio_output@@@2@@__crt_stdio_output@@AAE_N_W@Z 100c3d40 f i libucrtd:output.obj
 0002:00061eb0       ?type_case_c_tchar@?$output_processor@_WV?$string_output_adapter@_W@__crt_stdio_output@@V?$positional_parameter_base@_WV?$string_output_adapter@_W@__crt_stdio_output@@@2@@__crt_stdio_output@@AAE_N_W@Z 100c3eb0 f i libucrtd:output.obj
 0002:00062020       ?type_case_c_tchar@?$output_processor@_WV?$string_output_adapter@_W@__crt_stdio_output@@V?$standard_base@_WV?$string_output_adapter@_W@__crt_stdio_output@@@2@@__crt_stdio_output@@AAE_N_W@Z 100c4020 f i libucrtd:output.obj
 0002:00062190       ?type_case_d@?$output_processor@DV?$stream_output_adapter@D@__crt_stdio_output@@V?$format_validation_base@DV?$stream_output_adapter@D@__crt_stdio_output@@@2@@__crt_stdio_output@@AAE_NXZ 100c4190 f i libucrtd:output.obj
 0002:000621c0       ?type_case_d@?$output_processor@DV?$stream_output_adapter@D@__crt_stdio_output@@V?$positional_parameter_base@DV?$stream_output_adapter@D@__crt_stdio_output@@@2@@__crt_stdio_output@@AAE_NXZ 100c41c0 f i libucrtd:output.obj
 0002:000621f0       ?type_case_d@?$output_processor@DV?$stream_output_adapter@D@__crt_stdio_output@@V?$standard_base@DV?$stream_output_adapter@D@__crt_stdio_output@@@2@@__crt_stdio_output@@AAE_NXZ 100c41f0 f i libucrtd:output.obj
 0002:00062220       ?type_case_d@?$output_processor@DV?$string_output_adapter@D@__crt_stdio_output@@V?$format_validation_base@DV?$string_output_adapter@D@__crt_stdio_output@@@2@@__crt_stdio_output@@AAE_NXZ 100c4220 f i libucrtd:output.obj
 0002:00062250       ?type_case_d@?$output_processor@DV?$string_output_adapter@D@__crt_stdio_output@@V?$positional_parameter_base@DV?$string_output_adapter@D@__crt_stdio_output@@@2@@__crt_stdio_output@@AAE_NXZ 100c4250 f i libucrtd:output.obj
 0002:00062280       ?type_case_d@?$output_processor@DV?$string_output_adapter@D@__crt_stdio_output@@V?$standard_base@DV?$string_output_adapter@D@__crt_stdio_output@@@2@@__crt_stdio_output@@AAE_NXZ 100c4280 f i libucrtd:output.obj
 0002:000622b0       ?type_case_d@?$output_processor@_WV?$stream_output_adapter@_W@__crt_stdio_output@@V?$format_validation_base@_WV?$stream_output_adapter@_W@__crt_stdio_output@@@2@@__crt_stdio_output@@AAE_NXZ 100c42b0 f i libucrtd:output.obj
 0002:000622e0       ?type_case_d@?$output_processor@_WV?$stream_output_adapter@_W@__crt_stdio_output@@V?$positional_parameter_base@_WV?$stream_output_adapter@_W@__crt_stdio_output@@@2@@__crt_stdio_output@@AAE_NXZ 100c42e0 f i libucrtd:output.obj
 0002:00062310       ?type_case_d@?$output_processor@_WV?$stream_output_adapter@_W@__crt_stdio_output@@V?$standard_base@_WV?$stream_output_adapter@_W@__crt_stdio_output@@@2@@__crt_stdio_output@@AAE_NXZ 100c4310 f i libucrtd:output.obj
 0002:00062340       ?type_case_d@?$output_processor@_WV?$string_output_adapter@_W@__crt_stdio_output@@V?$format_validation_base@_WV?$string_output_adapter@_W@__crt_stdio_output@@@2@@__crt_stdio_output@@AAE_NXZ 100c4340 f i libucrtd:output.obj
 0002:00062370       ?type_case_d@?$output_processor@_WV?$string_output_adapter@_W@__crt_stdio_output@@V?$positional_parameter_base@_WV?$string_output_adapter@_W@__crt_stdio_output@@@2@@__crt_stdio_output@@AAE_NXZ 100c4370 f i libucrtd:output.obj
 0002:000623a0       ?type_case_d@?$output_processor@_WV?$string_output_adapter@_W@__crt_stdio_output@@V?$standard_base@_WV?$string_output_adapter@_W@__crt_stdio_output@@@2@@__crt_stdio_output@@AAE_NXZ 100c43a0 f i libucrtd:output.obj
 0002:000623d0       ?type_case_n@?$output_processor@DV?$stream_output_adapter@D@__crt_stdio_output@@V?$format_validation_base@DV?$stream_output_adapter@D@__crt_stdio_output@@@2@@__crt_stdio_output@@AAE_NXZ 100c43d0 f i libucrtd:output.obj
 0002:00062670       ?type_case_n@?$output_processor@DV?$stream_output_adapter@D@__crt_stdio_output@@V?$positional_parameter_base@DV?$stream_output_adapter@D@__crt_stdio_output@@@2@@__crt_stdio_output@@AAE_NXZ 100c4670 f i libucrtd:output.obj
 0002:00062910       ?type_case_n@?$output_processor@DV?$stream_output_adapter@D@__crt_stdio_output@@V?$standard_base@DV?$stream_output_adapter@D@__crt_stdio_output@@@2@@__crt_stdio_output@@AAE_NXZ 100c4910 f i libucrtd:output.obj
 0002:00062bb0       ?type_case_n@?$output_processor@DV?$string_output_adapter@D@__crt_stdio_output@@V?$format_validation_base@DV?$string_output_adapter@D@__crt_stdio_output@@@2@@__crt_stdio_output@@AAE_NXZ 100c4bb0 f i libucrtd:output.obj
 0002:00062e50       ?type_case_n@?$output_processor@DV?$string_output_adapter@D@__crt_stdio_output@@V?$positional_parameter_base@DV?$string_output_adapter@D@__crt_stdio_output@@@2@@__crt_stdio_output@@AAE_NXZ 100c4e50 f i libucrtd:output.obj
 0002:000630f0       ?type_case_n@?$output_processor@DV?$string_output_adapter@D@__crt_stdio_output@@V?$standard_base@DV?$string_output_adapter@D@__crt_stdio_output@@@2@@__crt_stdio_output@@AAE_NXZ 100c50f0 f i libucrtd:output.obj
 0002:00063390       ?type_case_n@?$output_processor@_WV?$stream_output_adapter@_W@__crt_stdio_output@@V?$format_validation_base@_WV?$stream_output_adapter@_W@__crt_stdio_output@@@2@@__crt_stdio_output@@AAE_NXZ 100c5390 f i libucrtd:output.obj
 0002:00063630       ?type_case_n@?$output_processor@_WV?$stream_output_adapter@_W@__crt_stdio_output@@V?$positional_parameter_base@_WV?$stream_output_adapter@_W@__crt_stdio_output@@@2@@__crt_stdio_output@@AAE_NXZ 100c5630 f i libucrtd:output.obj
 0002:000638d0       ?type_case_n@?$output_processor@_WV?$stream_output_adapter@_W@__crt_stdio_output@@V?$standard_base@_WV?$stream_output_adapter@_W@__crt_stdio_output@@@2@@__crt_stdio_output@@AAE_NXZ 100c58d0 f i libucrtd:output.obj
 0002:00063b70       ?type_case_n@?$output_processor@_WV?$string_output_adapter@_W@__crt_stdio_output@@V?$format_validation_base@_WV?$string_output_adapter@_W@__crt_stdio_output@@@2@@__crt_stdio_output@@AAE_NXZ 100c5b70 f i libucrtd:output.obj
 0002:00063e10       ?type_case_n@?$output_processor@_WV?$string_output_adapter@_W@__crt_stdio_output@@V?$positional_parameter_base@_WV?$string_output_adapter@_W@__crt_stdio_output@@@2@@__crt_stdio_output@@AAE_NXZ 100c5e10 f i libucrtd:output.obj
 0002:000640b0       ?type_case_n@?$output_processor@_WV?$string_output_adapter@_W@__crt_stdio_output@@V?$standard_base@_WV?$string_output_adapter@_W@__crt_stdio_output@@@2@@__crt_stdio_output@@AAE_NXZ 100c60b0 f i libucrtd:output.obj
 0002:00064350       ?type_case_o@?$output_processor@DV?$stream_output_adapter@D@__crt_stdio_output@@V?$format_validation_base@DV?$stream_output_adapter@D@__crt_stdio_output@@@2@@__crt_stdio_output@@AAE_NXZ 100c6350 f i libucrtd:output.obj
 0002:000643a0       ?type_case_o@?$output_processor@DV?$stream_output_adapter@D@__crt_stdio_output@@V?$positional_parameter_base@DV?$stream_output_adapter@D@__crt_stdio_output@@@2@@__crt_stdio_output@@AAE_NXZ 100c63a0 f i libucrtd:output.obj
 0002:000643f0       ?type_case_o@?$output_processor@DV?$stream_output_adapter@D@__crt_stdio_output@@V?$standard_base@DV?$stream_output_adapter@D@__crt_stdio_output@@@2@@__crt_stdio_output@@AAE_NXZ 100c63f0 f i libucrtd:output.obj
 0002:00064440       ?type_case_o@?$output_processor@DV?$string_output_adapter@D@__crt_stdio_output@@V?$format_validation_base@DV?$string_output_adapter@D@__crt_stdio_output@@@2@@__crt_stdio_output@@AAE_NXZ 100c6440 f i libucrtd:output.obj
 0002:00064490       ?type_case_o@?$output_processor@DV?$string_output_adapter@D@__crt_stdio_output@@V?$positional_parameter_base@DV?$string_output_adapter@D@__crt_stdio_output@@@2@@__crt_stdio_output@@AAE_NXZ 100c6490 f i libucrtd:output.obj
 0002:000644e0       ?type_case_o@?$output_processor@DV?$string_output_adapter@D@__crt_stdio_output@@V?$standard_base@DV?$string_output_adapter@D@__crt_stdio_output@@@2@@__crt_stdio_output@@AAE_NXZ 100c64e0 f i libucrtd:output.obj
 0002:00064530       ?type_case_o@?$output_processor@_WV?$stream_output_adapter@_W@__crt_stdio_output@@V?$format_validation_base@_WV?$stream_output_adapter@_W@__crt_stdio_output@@@2@@__crt_stdio_output@@AAE_NXZ 100c6530 f i libucrtd:output.obj
 0002:00064580       ?type_case_o@?$output_processor@_WV?$stream_output_adapter@_W@__crt_stdio_output@@V?$positional_parameter_base@_WV?$stream_output_adapter@_W@__crt_stdio_output@@@2@@__crt_stdio_output@@AAE_NXZ 100c6580 f i libucrtd:output.obj
 0002:000645d0       ?type_case_o@?$output_processor@_WV?$stream_output_adapter@_W@__crt_stdio_output@@V?$standard_base@_WV?$stream_output_adapter@_W@__crt_stdio_output@@@2@@__crt_stdio_output@@AAE_NXZ 100c65d0 f i libucrtd:output.obj
 0002:00064620       ?type_case_o@?$output_processor@_WV?$string_output_adapter@_W@__crt_stdio_output@@V?$format_validation_base@_WV?$string_output_adapter@_W@__crt_stdio_output@@@2@@__crt_stdio_output@@AAE_NXZ 100c6620 f i libucrtd:output.obj
 0002:00064670       ?type_case_o@?$output_processor@_WV?$string_output_adapter@_W@__crt_stdio_output@@V?$positional_parameter_base@_WV?$string_output_adapter@_W@__crt_stdio_output@@@2@@__crt_stdio_output@@AAE_NXZ 100c6670 f i libucrtd:output.obj
 0002:000646c0       ?type_case_o@?$output_processor@_WV?$string_output_adapter@_W@__crt_stdio_output@@V?$standard_base@_WV?$string_output_adapter@_W@__crt_stdio_output@@@2@@__crt_stdio_output@@AAE_NXZ 100c66c0 f i libucrtd:output.obj
 0002:00064710       ?type_case_p@?$output_processor@DV?$stream_output_adapter@D@__crt_stdio_output@@V?$format_validation_base@DV?$stream_output_adapter@D@__crt_stdio_output@@@2@@__crt_stdio_output@@AAE_NXZ 100c6710 f i libucrtd:output.obj
 0002:00064750       ?type_case_p@?$output_processor@DV?$stream_output_adapter@D@__crt_stdio_output@@V?$positional_parameter_base@DV?$stream_output_adapter@D@__crt_stdio_output@@@2@@__crt_stdio_output@@AAE_NXZ 100c6750 f i libucrtd:output.obj
 0002:00064790       ?type_case_p@?$output_processor@DV?$stream_output_adapter@D@__crt_stdio_output@@V?$standard_base@DV?$stream_output_adapter@D@__crt_stdio_output@@@2@@__crt_stdio_output@@AAE_NXZ 100c6790 f i libucrtd:output.obj
 0002:000647d0       ?type_case_p@?$output_processor@DV?$string_output_adapter@D@__crt_stdio_output@@V?$format_validation_base@DV?$string_output_adapter@D@__crt_stdio_output@@@2@@__crt_stdio_output@@AAE_NXZ 100c67d0 f i libucrtd:output.obj
 0002:00064810       ?type_case_p@?$output_processor@DV?$string_output_adapter@D@__crt_stdio_output@@V?$positional_parameter_base@DV?$string_output_adapter@D@__crt_stdio_output@@@2@@__crt_stdio_output@@AAE_NXZ 100c6810 f i libucrtd:output.obj
 0002:00064850       ?type_case_p@?$output_processor@DV?$string_output_adapter@D@__crt_stdio_output@@V?$standard_base@DV?$string_output_adapter@D@__crt_stdio_output@@@2@@__crt_stdio_output@@AAE_NXZ 100c6850 f i libucrtd:output.obj
 0002:00064890       ?type_case_p@?$output_processor@_WV?$stream_output_adapter@_W@__crt_stdio_output@@V?$format_validation_base@_WV?$stream_output_adapter@_W@__crt_stdio_output@@@2@@__crt_stdio_output@@AAE_NXZ 100c6890 f i libucrtd:output.obj
 0002:000648d0       ?type_case_p@?$output_processor@_WV?$stream_output_adapter@_W@__crt_stdio_output@@V?$positional_parameter_base@_WV?$stream_output_adapter@_W@__crt_stdio_output@@@2@@__crt_stdio_output@@AAE_NXZ 100c68d0 f i libucrtd:output.obj
 0002:00064910       ?type_case_p@?$output_processor@_WV?$stream_output_adapter@_W@__crt_stdio_output@@V?$standard_base@_WV?$stream_output_adapter@_W@__crt_stdio_output@@@2@@__crt_stdio_output@@AAE_NXZ 100c6910 f i libucrtd:output.obj
 0002:00064950       ?type_case_p@?$output_processor@_WV?$string_output_adapter@_W@__crt_stdio_output@@V?$format_validation_base@_WV?$string_output_adapter@_W@__crt_stdio_output@@@2@@__crt_stdio_output@@AAE_NXZ 100c6950 f i libucrtd:output.obj
 0002:00064990       ?type_case_p@?$output_processor@_WV?$string_output_adapter@_W@__crt_stdio_output@@V?$positional_parameter_base@_WV?$string_output_adapter@_W@__crt_stdio_output@@@2@@__crt_stdio_output@@AAE_NXZ 100c6990 f i libucrtd:output.obj
 0002:000649d0       ?type_case_p@?$output_processor@_WV?$string_output_adapter@_W@__crt_stdio_output@@V?$standard_base@_WV?$string_output_adapter@_W@__crt_stdio_output@@@2@@__crt_stdio_output@@AAE_NXZ 100c69d0 f i libucrtd:output.obj
 0002:00064a10       ?type_case_s@?$output_processor@DV?$stream_output_adapter@D@__crt_stdio_output@@V?$format_validation_base@DV?$stream_output_adapter@D@__crt_stdio_output@@@2@@__crt_stdio_output@@AAE_NXZ 100c6a10 f i libucrtd:output.obj
 0002:00064b40       ?type_case_s@?$output_processor@DV?$stream_output_adapter@D@__crt_stdio_output@@V?$positional_parameter_base@DV?$stream_output_adapter@D@__crt_stdio_output@@@2@@__crt_stdio_output@@AAE_NXZ 100c6b40 f i libucrtd:output.obj
 0002:00064c70       ?type_case_s@?$output_processor@DV?$stream_output_adapter@D@__crt_stdio_output@@V?$standard_base@DV?$stream_output_adapter@D@__crt_stdio_output@@@2@@__crt_stdio_output@@AAE_NXZ 100c6c70 f i libucrtd:output.obj
 0002:00064da0       ?type_case_s@?$output_processor@DV?$string_output_adapter@D@__crt_stdio_output@@V?$format_validation_base@DV?$string_output_adapter@D@__crt_stdio_output@@@2@@__crt_stdio_output@@AAE_NXZ 100c6da0 f i libucrtd:output.obj
 0002:00064ed0       ?type_case_s@?$output_processor@DV?$string_output_adapter@D@__crt_stdio_output@@V?$positional_parameter_base@DV?$string_output_adapter@D@__crt_stdio_output@@@2@@__crt_stdio_output@@AAE_NXZ 100c6ed0 f i libucrtd:output.obj
 0002:00065000       ?type_case_s@?$output_processor@DV?$string_output_adapter@D@__crt_stdio_output@@V?$standard_base@DV?$string_output_adapter@D@__crt_stdio_output@@@2@@__crt_stdio_output@@AAE_NXZ 100c7000 f i libucrtd:output.obj
 0002:00065130       ?type_case_s@?$output_processor@_WV?$stream_output_adapter@_W@__crt_stdio_output@@V?$format_validation_base@_WV?$stream_output_adapter@_W@__crt_stdio_output@@@2@@__crt_stdio_output@@AAE_NXZ 100c7130 f i libucrtd:output.obj
 0002:00065260       ?type_case_s@?$output_processor@_WV?$stream_output_adapter@_W@__crt_stdio_output@@V?$positional_parameter_base@_WV?$stream_output_adapter@_W@__crt_stdio_output@@@2@@__crt_stdio_output@@AAE_NXZ 100c7260 f i libucrtd:output.obj
 0002:00065390       ?type_case_s@?$output_processor@_WV?$stream_output_adapter@_W@__crt_stdio_output@@V?$standard_base@_WV?$stream_output_adapter@_W@__crt_stdio_output@@@2@@__crt_stdio_output@@AAE_NXZ 100c7390 f i libucrtd:output.obj
 0002:000654c0       ?type_case_s@?$output_processor@_WV?$string_output_adapter@_W@__crt_stdio_output@@V?$format_validation_base@_WV?$string_output_adapter@_W@__crt_stdio_output@@@2@@__crt_stdio_output@@AAE_NXZ 100c74c0 f i libucrtd:output.obj
 0002:000655f0       ?type_case_s@?$output_processor@_WV?$string_output_adapter@_W@__crt_stdio_output@@V?$positional_parameter_base@_WV?$string_output_adapter@_W@__crt_stdio_output@@@2@@__crt_stdio_output@@AAE_NXZ 100c75f0 f i libucrtd:output.obj
 0002:00065720       ?type_case_s@?$output_processor@_WV?$string_output_adapter@_W@__crt_stdio_output@@V?$standard_base@_WV?$string_output_adapter@_W@__crt_stdio_output@@@2@@__crt_stdio_output@@AAE_NXZ 100c7720 f i libucrtd:output.obj
 0002:00065850       ?type_case_s_compute_narrow_string_length@?$output_processor@DV?$stream_output_adapter@D@__crt_stdio_output@@V?$format_validation_base@DV?$stream_output_adapter@D@__crt_stdio_output@@@2@@__crt_stdio_output@@AAEHHD@Z 100c7850 f i libucrtd:output.obj
 0002:00065880       ?type_case_s_compute_narrow_string_length@?$output_processor@DV?$stream_output_adapter@D@__crt_stdio_output@@V?$positional_parameter_base@DV?$stream_output_adapter@D@__crt_stdio_output@@@2@@__crt_stdio_output@@AAEHHD@Z 100c7880 f i libucrtd:output.obj
 0002:000658b0       ?type_case_s_compute_narrow_string_length@?$output_processor@DV?$stream_output_adapter@D@__crt_stdio_output@@V?$standard_base@DV?$stream_output_adapter@D@__crt_stdio_output@@@2@@__crt_stdio_output@@AAEHHD@Z 100c78b0 f i libucrtd:output.obj
 0002:000658e0       ?type_case_s_compute_narrow_string_length@?$output_processor@DV?$string_output_adapter@D@__crt_stdio_output@@V?$format_validation_base@DV?$string_output_adapter@D@__crt_stdio_output@@@2@@__crt_stdio_output@@AAEHHD@Z 100c78e0 f i libucrtd:output.obj
 0002:00065910       ?type_case_s_compute_narrow_string_length@?$output_processor@DV?$string_output_adapter@D@__crt_stdio_output@@V?$positional_parameter_base@DV?$string_output_adapter@D@__crt_stdio_output@@@2@@__crt_stdio_output@@AAEHHD@Z 100c7910 f i libucrtd:output.obj
 0002:00065940       ?type_case_s_compute_narrow_string_length@?$output_processor@DV?$string_output_adapter@D@__crt_stdio_output@@V?$standard_base@DV?$string_output_adapter@D@__crt_stdio_output@@@2@@__crt_stdio_output@@AAEHHD@Z 100c7940 f i libucrtd:output.obj
 0002:00065970       ?type_case_s_compute_narrow_string_length@?$output_processor@_WV?$stream_output_adapter@_W@__crt_stdio_output@@V?$format_validation_base@_WV?$stream_output_adapter@_W@__crt_stdio_output@@@2@@__crt_stdio_output@@AAEHH_W@Z 100c7970 f i libucrtd:output.obj
 0002:00065a10       ?type_case_s_compute_narrow_string_length@?$output_processor@_WV?$stream_output_adapter@_W@__crt_stdio_output@@V?$positional_parameter_base@_WV?$stream_output_adapter@_W@__crt_stdio_output@@@2@@__crt_stdio_output@@AAEHH_W@Z 100c7a10 f i libucrtd:output.obj
 0002:00065ab0       ?type_case_s_compute_narrow_string_length@?$output_processor@_WV?$stream_output_adapter@_W@__crt_stdio_output@@V?$standard_base@_WV?$stream_output_adapter@_W@__crt_stdio_output@@@2@@__crt_stdio_output@@AAEHH_W@Z 100c7ab0 f i libucrtd:output.obj
 0002:00065b50       ?type_case_s_compute_narrow_string_length@?$output_processor@_WV?$string_output_adapter@_W@__crt_stdio_output@@V?$format_validation_base@_WV?$string_output_adapter@_W@__crt_stdio_output@@@2@@__crt_stdio_output@@AAEHH_W@Z 100c7b50 f i libucrtd:output.obj
 0002:00065bf0       ?type_case_s_compute_narrow_string_length@?$output_processor@_WV?$string_output_adapter@_W@__crt_stdio_output@@V?$positional_parameter_base@_WV?$string_output_adapter@_W@__crt_stdio_output@@@2@@__crt_stdio_output@@AAEHH_W@Z 100c7bf0 f i libucrtd:output.obj
 0002:00065c90       ?type_case_s_compute_narrow_string_length@?$output_processor@_WV?$string_output_adapter@_W@__crt_stdio_output@@V?$standard_base@_WV?$string_output_adapter@_W@__crt_stdio_output@@@2@@__crt_stdio_output@@AAEHH_W@Z 100c7c90 f i libucrtd:output.obj
 0002:00065d30       ?type_case_u@?$output_processor@DV?$stream_output_adapter@D@__crt_stdio_output@@V?$format_validation_base@DV?$stream_output_adapter@D@__crt_stdio_output@@@2@@__crt_stdio_output@@AAE_NXZ 100c7d30 f i libucrtd:output.obj
 0002:00065d50       ?type_case_u@?$output_processor@DV?$stream_output_adapter@D@__crt_stdio_output@@V?$positional_parameter_base@DV?$stream_output_adapter@D@__crt_stdio_output@@@2@@__crt_stdio_output@@AAE_NXZ 100c7d50 f i libucrtd:output.obj
 0002:00065d70       ?type_case_u@?$output_processor@DV?$stream_output_adapter@D@__crt_stdio_output@@V?$standard_base@DV?$stream_output_adapter@D@__crt_stdio_output@@@2@@__crt_stdio_output@@AAE_NXZ 100c7d70 f i libucrtd:output.obj
 0002:00065d90       ?type_case_u@?$output_processor@DV?$string_output_adapter@D@__crt_stdio_output@@V?$format_validation_base@DV?$string_output_adapter@D@__crt_stdio_output@@@2@@__crt_stdio_output@@AAE_NXZ 100c7d90 f i libucrtd:output.obj
 0002:00065db0       ?type_case_u@?$output_processor@DV?$string_output_adapter@D@__crt_stdio_output@@V?$positional_parameter_base@DV?$string_output_adapter@D@__crt_stdio_output@@@2@@__crt_stdio_output@@AAE_NXZ 100c7db0 f i libucrtd:output.obj
 0002:00065dd0       ?type_case_u@?$output_processor@DV?$string_output_adapter@D@__crt_stdio_output@@V?$standard_base@DV?$string_output_adapter@D@__crt_stdio_output@@@2@@__crt_stdio_output@@AAE_NXZ 100c7dd0 f i libucrtd:output.obj
 0002:00065df0       ?type_case_u@?$output_processor@_WV?$stream_output_adapter@_W@__crt_stdio_output@@V?$format_validation_base@_WV?$stream_output_adapter@_W@__crt_stdio_output@@@2@@__crt_stdio_output@@AAE_NXZ 100c7df0 f i libucrtd:output.obj
 0002:00065e10       ?type_case_u@?$output_processor@_WV?$stream_output_adapter@_W@__crt_stdio_output@@V?$positional_parameter_base@_WV?$stream_output_adapter@_W@__crt_stdio_output@@@2@@__crt_stdio_output@@AAE_NXZ 100c7e10 f i libucrtd:output.obj
 0002:00065e30       ?type_case_u@?$output_processor@_WV?$stream_output_adapter@_W@__crt_stdio_output@@V?$standard_base@_WV?$stream_output_adapter@_W@__crt_stdio_output@@@2@@__crt_stdio_output@@AAE_NXZ 100c7e30 f i libucrtd:output.obj
 0002:00065e50       ?type_case_u@?$output_processor@_WV?$string_output_adapter@_W@__crt_stdio_output@@V?$format_validation_base@_WV?$string_output_adapter@_W@__crt_stdio_output@@@2@@__crt_stdio_output@@AAE_NXZ 100c7e50 f i libucrtd:output.obj
 0002:00065e70       ?type_case_u@?$output_processor@_WV?$string_output_adapter@_W@__crt_stdio_output@@V?$positional_parameter_base@_WV?$string_output_adapter@_W@__crt_stdio_output@@@2@@__crt_stdio_output@@AAE_NXZ 100c7e70 f i libucrtd:output.obj
 0002:00065e90       ?type_case_u@?$output_processor@_WV?$string_output_adapter@_W@__crt_stdio_output@@V?$standard_base@_WV?$string_output_adapter@_W@__crt_stdio_output@@@2@@__crt_stdio_output@@AAE_NXZ 100c7e90 f i libucrtd:output.obj
 0002:00065eb0       ?type_case_x@?$output_processor@DV?$stream_output_adapter@D@__crt_stdio_output@@V?$format_validation_base@DV?$stream_output_adapter@D@__crt_stdio_output@@@2@@__crt_stdio_output@@AAE_NXZ 100c7eb0 f i libucrtd:output.obj
 0002:00065ed0       ?type_case_x@?$output_processor@DV?$stream_output_adapter@D@__crt_stdio_output@@V?$positional_parameter_base@DV?$stream_output_adapter@D@__crt_stdio_output@@@2@@__crt_stdio_output@@AAE_NXZ 100c7ed0 f i libucrtd:output.obj
 0002:00065ef0       ?type_case_x@?$output_processor@DV?$stream_output_adapter@D@__crt_stdio_output@@V?$standard_base@DV?$stream_output_adapter@D@__crt_stdio_output@@@2@@__crt_stdio_output@@AAE_NXZ 100c7ef0 f i libucrtd:output.obj
 0002:00065f10       ?type_case_x@?$output_processor@DV?$string_output_adapter@D@__crt_stdio_output@@V?$format_validation_base@DV?$string_output_adapter@D@__crt_stdio_output@@@2@@__crt_stdio_output@@AAE_NXZ 100c7f10 f i libucrtd:output.obj
 0002:00065f30       ?type_case_x@?$output_processor@DV?$string_output_adapter@D@__crt_stdio_output@@V?$positional_parameter_base@DV?$string_output_adapter@D@__crt_stdio_output@@@2@@__crt_stdio_output@@AAE_NXZ 100c7f30 f i libucrtd:output.obj
 0002:00065f50       ?type_case_x@?$output_processor@DV?$string_output_adapter@D@__crt_stdio_output@@V?$standard_base@DV?$string_output_adapter@D@__crt_stdio_output@@@2@@__crt_stdio_output@@AAE_NXZ 100c7f50 f i libucrtd:output.obj
 0002:00065f70       ?type_case_x@?$output_processor@_WV?$stream_output_adapter@_W@__crt_stdio_output@@V?$format_validation_base@_WV?$stream_output_adapter@_W@__crt_stdio_output@@@2@@__crt_stdio_output@@AAE_NXZ 100c7f70 f i libucrtd:output.obj
 0002:00065f90       ?type_case_x@?$output_processor@_WV?$stream_output_adapter@_W@__crt_stdio_output@@V?$positional_parameter_base@_WV?$stream_output_adapter@_W@__crt_stdio_output@@@2@@__crt_stdio_output@@AAE_NXZ 100c7f90 f i libucrtd:output.obj
 0002:00065fb0       ?type_case_x@?$output_processor@_WV?$stream_output_adapter@_W@__crt_stdio_output@@V?$standard_base@_WV?$stream_output_adapter@_W@__crt_stdio_output@@@2@@__crt_stdio_output@@AAE_NXZ 100c7fb0 f i libucrtd:output.obj
 0002:00065fd0       ?type_case_x@?$output_processor@_WV?$string_output_adapter@_W@__crt_stdio_output@@V?$format_validation_base@_WV?$string_output_adapter@_W@__crt_stdio_output@@@2@@__crt_stdio_output@@AAE_NXZ 100c7fd0 f i libucrtd:output.obj
 0002:00065ff0       ?type_case_x@?$output_processor@_WV?$string_output_adapter@_W@__crt_stdio_output@@V?$positional_parameter_base@_WV?$string_output_adapter@_W@__crt_stdio_output@@@2@@__crt_stdio_output@@AAE_NXZ 100c7ff0 f i libucrtd:output.obj
 0002:00066010       ?type_case_x@?$output_processor@_WV?$string_output_adapter@_W@__crt_stdio_output@@V?$standard_base@_WV?$string_output_adapter@_W@__crt_stdio_output@@@2@@__crt_stdio_output@@AAE_NXZ 100c8010 f i libucrtd:output.obj
 0002:00066030       ?unget@?$c_string_character_source@D@__crt_strtox@@QAEXD@Z 100c8030 f i libucrtd:output.obj
 0002:00066100       ?unget@?$c_string_character_source@_W@__crt_strtox@@QAEX_W@Z 100c8100 f i libucrtd:output.obj
 0002:000661d0       ?unsafe_value@?$cached@H@__crt_cached_ptd_host@@QAEHXZ 100c81d0 f i libucrtd:output.obj
 0002:000661f0       ?unsafe_value@?$cached@K@__crt_cached_ptd_host@@QAEKXZ 100c81f0 f i libucrtd:output.obj
 0002:00066210       ?unset_flag@?$output_processor@DV?$stream_output_adapter@D@__crt_stdio_output@@V?$format_validation_base@DV?$stream_output_adapter@D@__crt_stdio_output@@@2@@__crt_stdio_output@@AAEXI@Z 100c8210 f i libucrtd:output.obj
 0002:00066240       ?unset_flag@?$output_processor@DV?$stream_output_adapter@D@__crt_stdio_output@@V?$positional_parameter_base@DV?$stream_output_adapter@D@__crt_stdio_output@@@2@@__crt_stdio_output@@AAEXI@Z 100c8240 f i libucrtd:output.obj
 0002:00066270       ?unset_flag@?$output_processor@DV?$stream_output_adapter@D@__crt_stdio_output@@V?$standard_base@DV?$stream_output_adapter@D@__crt_stdio_output@@@2@@__crt_stdio_output@@AAEXI@Z 100c8270 f i libucrtd:output.obj
 0002:000662a0       ?unset_flag@?$output_processor@DV?$string_output_adapter@D@__crt_stdio_output@@V?$format_validation_base@DV?$string_output_adapter@D@__crt_stdio_output@@@2@@__crt_stdio_output@@AAEXI@Z 100c82a0 f i libucrtd:output.obj
 0002:000662d0       ?unset_flag@?$output_processor@DV?$string_output_adapter@D@__crt_stdio_output@@V?$positional_parameter_base@DV?$string_output_adapter@D@__crt_stdio_output@@@2@@__crt_stdio_output@@AAEXI@Z 100c82d0 f i libucrtd:output.obj
 0002:00066300       ?unset_flag@?$output_processor@DV?$string_output_adapter@D@__crt_stdio_output@@V?$standard_base@DV?$string_output_adapter@D@__crt_stdio_output@@@2@@__crt_stdio_output@@AAEXI@Z 100c8300 f i libucrtd:output.obj
 0002:00066330       ?unset_flag@?$output_processor@_WV?$stream_output_adapter@_W@__crt_stdio_output@@V?$format_validation_base@_WV?$stream_output_adapter@_W@__crt_stdio_output@@@2@@__crt_stdio_output@@AAEXI@Z 100c8330 f i libucrtd:output.obj
 0002:00066360       ?unset_flag@?$output_processor@_WV?$stream_output_adapter@_W@__crt_stdio_output@@V?$positional_parameter_base@_WV?$stream_output_adapter@_W@__crt_stdio_output@@@2@@__crt_stdio_output@@AAEXI@Z 100c8360 f i libucrtd:output.obj
 0002:00066390       ?unset_flag@?$output_processor@_WV?$stream_output_adapter@_W@__crt_stdio_output@@V?$standard_base@_WV?$stream_output_adapter@_W@__crt_stdio_output@@@2@@__crt_stdio_output@@AAEXI@Z 100c8390 f i libucrtd:output.obj
 0002:000663c0       ?unset_flag@?$output_processor@_WV?$string_output_adapter@_W@__crt_stdio_output@@V?$format_validation_base@_WV?$string_output_adapter@_W@__crt_stdio_output@@@2@@__crt_stdio_output@@AAEXI@Z 100c83c0 f i libucrtd:output.obj
 0002:000663f0       ?unset_flag@?$output_processor@_WV?$string_output_adapter@_W@__crt_stdio_output@@V?$positional_parameter_base@_WV?$string_output_adapter@_W@__crt_stdio_output@@@2@@__crt_stdio_output@@AAEXI@Z 100c83f0 f i libucrtd:output.obj
 0002:00066420       ?unset_flag@?$output_processor@_WV?$string_output_adapter@_W@__crt_stdio_output@@V?$standard_base@_WV?$string_output_adapter@_W@__crt_stdio_output@@@2@@__crt_stdio_output@@AAEXI@Z 100c8420 f i libucrtd:output.obj
 0002:00066450       ?update_field_width@?$positional_parameter_base@DV?$stream_output_adapter@D@__crt_stdio_output@@@__crt_stdio_output@@IAE_NXZ 100c8450 f i libucrtd:output.obj
 0002:00066640       ?update_field_width@?$positional_parameter_base@DV?$string_output_adapter@D@__crt_stdio_output@@@__crt_stdio_output@@IAE_NXZ 100c8640 f i libucrtd:output.obj
 0002:00066830       ?update_field_width@?$positional_parameter_base@_WV?$stream_output_adapter@_W@__crt_stdio_output@@@__crt_stdio_output@@IAE_NXZ 100c8830 f i libucrtd:output.obj
 0002:00066a20       ?update_field_width@?$positional_parameter_base@_WV?$string_output_adapter@_W@__crt_stdio_output@@@__crt_stdio_output@@IAE_NXZ 100c8a20 f i libucrtd:output.obj
 0002:00066c10       ?update_field_width@?$standard_base@DV?$stream_output_adapter@D@__crt_stdio_output@@@__crt_stdio_output@@IAE_NXZ 100c8c10 f i libucrtd:output.obj
 0002:00066c40       ?update_field_width@?$standard_base@DV?$string_output_adapter@D@__crt_stdio_output@@@__crt_stdio_output@@IAE_NXZ 100c8c40 f i libucrtd:output.obj
 0002:00066c70       ?update_field_width@?$standard_base@_WV?$stream_output_adapter@_W@__crt_stdio_output@@@__crt_stdio_output@@IAE_NXZ 100c8c70 f i libucrtd:output.obj
 0002:00066ca0       ?update_field_width@?$standard_base@_WV?$string_output_adapter@_W@__crt_stdio_output@@@__crt_stdio_output@@IAE_NXZ 100c8ca0 f i libucrtd:output.obj
 0002:00066cd0       ?update_locale@__crt_cached_ptd_host@@AAEXXZ 100c8cd0 f i libucrtd:output.obj
 0002:00066d00       ?update_locale_slow@__crt_cached_ptd_host@@AAEXXZ 100c8d00 f i libucrtd:output.obj
 0002:00066db0       ?update_precision@?$positional_parameter_base@DV?$stream_output_adapter@D@__crt_stdio_output@@@__crt_stdio_output@@IAE_NXZ 100c8db0 f i libucrtd:output.obj
 0002:00066fa0       ?update_precision@?$positional_parameter_base@DV?$string_output_adapter@D@__crt_stdio_output@@@__crt_stdio_output@@IAE_NXZ 100c8fa0 f i libucrtd:output.obj
 0002:00067190       ?update_precision@?$positional_parameter_base@_WV?$stream_output_adapter@_W@__crt_stdio_output@@@__crt_stdio_output@@IAE_NXZ 100c9190 f i libucrtd:output.obj
 0002:00067380       ?update_precision@?$positional_parameter_base@_WV?$string_output_adapter@_W@__crt_stdio_output@@@__crt_stdio_output@@IAE_NXZ 100c9380 f i libucrtd:output.obj
 0002:00067570       ?update_precision@?$standard_base@DV?$stream_output_adapter@D@__crt_stdio_output@@@__crt_stdio_output@@IAE_NXZ 100c9570 f i libucrtd:output.obj
 0002:000675a0       ?update_precision@?$standard_base@DV?$string_output_adapter@D@__crt_stdio_output@@@__crt_stdio_output@@IAE_NXZ 100c95a0 f i libucrtd:output.obj
 0002:000675d0       ?update_precision@?$standard_base@_WV?$stream_output_adapter@_W@__crt_stdio_output@@@__crt_stdio_output@@IAE_NXZ 100c95d0 f i libucrtd:output.obj
 0002:00067600       ?update_precision@?$standard_base@_WV?$string_output_adapter@_W@__crt_stdio_output@@@__crt_stdio_output@@IAE_NXZ 100c9600 f i libucrtd:output.obj
 0002:00067630       ?valid@?$cached@H@__crt_cached_ptd_host@@QBE_NXZ 100c9630 f i libucrtd:output.obj
 0002:00067650       ?valid@?$cached@K@__crt_cached_ptd_host@@QBE_NXZ 100c9650 f i libucrtd:output.obj
 0002:00067670       ?valid@__crt_stdio_stream@@QBE_NXZ 100c9670 f i libucrtd:output.obj
 0002:000676b0       ?validate@?$c_string_character_source@D@__crt_strtox@@QBE_NXZ 100c96b0 f i libucrtd:output.obj
 0002:00067770       ?validate@?$c_string_character_source@_W@__crt_strtox@@QBE_NXZ 100c9770 f i libucrtd:output.obj
 0002:00067830       ?validate@?$stream_output_adapter@D@__crt_stdio_output@@QBE_NAAV__crt_cached_ptd_host@@@Z 100c9830 f i libucrtd:output.obj
 0002:00067920       ?validate@?$stream_output_adapter@_W@__crt_stdio_output@@QBE_NAAV__crt_cached_ptd_host@@@Z 100c9920 f i libucrtd:output.obj
 0002:00067a10       ?validate@?$string_output_adapter@D@__crt_stdio_output@@QBE_NAAV__crt_cached_ptd_host@@@Z 100c9a10 f i libucrtd:output.obj
 0002:00067ae0       ?validate@?$string_output_adapter@_W@__crt_stdio_output@@QBE_NAAV__crt_cached_ptd_host@@@Z 100c9ae0 f i libucrtd:output.obj
 0002:00067bb0       ?validate_and_store_parameter_data@?$positional_parameter_base@DV?$stream_output_adapter@D@__crt_stdio_output@@@__crt_stdio_output@@AAE_NAAUparameter_data@12@W4parameter_type@12@DW4length_modifier@2@@Z 100c9bb0 f i libucrtd:output.obj
 0002:00067cd0       ?validate_and_store_parameter_data@?$positional_parameter_base@DV?$string_output_adapter@D@__crt_stdio_output@@@__crt_stdio_output@@AAE_NAAUparameter_data@12@W4parameter_type@12@DW4length_modifier@2@@Z 100c9cd0 f i libucrtd:output.obj
 0002:00067df0       ?validate_and_store_parameter_data@?$positional_parameter_base@_WV?$stream_output_adapter@_W@__crt_stdio_output@@@__crt_stdio_output@@AAE_NAAUparameter_data@12@W4parameter_type@12@_WW4length_modifier@2@@Z 100c9df0 f i libucrtd:output.obj
 0002:00067f10       ?validate_and_store_parameter_data@?$positional_parameter_base@_WV?$string_output_adapter@_W@__crt_stdio_output@@@__crt_stdio_output@@AAE_NAAUparameter_data@12@W4parameter_type@12@_WW4length_modifier@2@@Z 100c9f10 f i libucrtd:output.obj
 0002:00068030       ?validate_and_update_state_at_beginning_of_format_character@?$positional_parameter_base@DV?$stream_output_adapter@D@__crt_stdio_output@@@__crt_stdio_output@@IAE_NXZ 100ca030 f i libucrtd:output.obj
 0002:000682e0       ?validate_and_update_state_at_beginning_of_format_character@?$positional_parameter_base@DV?$string_output_adapter@D@__crt_stdio_output@@@__crt_stdio_output@@IAE_NXZ 100ca2e0 f i libucrtd:output.obj
 0002:00068590       ?validate_and_update_state_at_beginning_of_format_character@?$positional_parameter_base@_WV?$stream_output_adapter@_W@__crt_stdio_output@@@__crt_stdio_output@@IAE_NXZ 100ca590 f i libucrtd:output.obj
 0002:00068840       ?validate_and_update_state_at_beginning_of_format_character@?$positional_parameter_base@_WV?$string_output_adapter@_W@__crt_stdio_output@@@__crt_stdio_output@@IAE_NXZ 100ca840 f i libucrtd:output.obj
 0002:00068af0       ?validate_and_update_state_at_beginning_of_format_character@?$standard_base@DV?$stream_output_adapter@D@__crt_stdio_output@@@__crt_stdio_output@@IAE_NXZ 100caaf0 f i libucrtd:output.obj
 0002:00068b10       ?validate_and_update_state_at_beginning_of_format_character@?$standard_base@DV?$string_output_adapter@D@__crt_stdio_output@@@__crt_stdio_output@@IAE_NXZ 100cab10 f i libucrtd:output.obj
 0002:00068b30       ?validate_and_update_state_at_beginning_of_format_character@?$standard_base@_WV?$stream_output_adapter@_W@__crt_stdio_output@@@__crt_stdio_output@@IAE_NXZ 100cab30 f i libucrtd:output.obj
 0002:00068b50       ?validate_and_update_state_at_beginning_of_format_character@?$standard_base@_WV?$string_output_adapter@_W@__crt_stdio_output@@@__crt_stdio_output@@IAE_NXZ 100cab50 f i libucrtd:output.obj
 0002:00068b70       ?validate_and_update_state_at_end_of_format_string@?$format_validation_base@DV?$stream_output_adapter@D@__crt_stdio_output@@@__crt_stdio_output@@IAE_NXZ 100cab70 f i libucrtd:output.obj
 0002:00068c50       ?validate_and_update_state_at_end_of_format_string@?$format_validation_base@DV?$string_output_adapter@D@__crt_stdio_output@@@__crt_stdio_output@@IAE_NXZ 100cac50 f i libucrtd:output.obj
 0002:00068d30       ?validate_and_update_state_at_end_of_format_string@?$format_validation_base@_WV?$stream_output_adapter@_W@__crt_stdio_output@@@__crt_stdio_output@@IAE_NXZ 100cad30 f i libucrtd:output.obj
 0002:00068e10       ?validate_and_update_state_at_end_of_format_string@?$format_validation_base@_WV?$string_output_adapter@_W@__crt_stdio_output@@@__crt_stdio_output@@IAE_NXZ 100cae10 f i libucrtd:output.obj
 0002:00068ef0       ?validate_and_update_state_at_end_of_format_string@?$positional_parameter_base@DV?$stream_output_adapter@D@__crt_stdio_output@@@__crt_stdio_output@@IAE_NXZ 100caef0 f i libucrtd:output.obj
 0002:00069110       ?validate_and_update_state_at_end_of_format_string@?$positional_parameter_base@DV?$string_output_adapter@D@__crt_stdio_output@@@__crt_stdio_output@@IAE_NXZ 100cb110 f i libucrtd:output.obj
 0002:00069330       ?validate_and_update_state_at_end_of_format_string@?$positional_parameter_base@_WV?$stream_output_adapter@_W@__crt_stdio_output@@@__crt_stdio_output@@IAE_NXZ 100cb330 f i libucrtd:output.obj
 0002:00069550       ?validate_and_update_state_at_end_of_format_string@?$positional_parameter_base@_WV?$string_output_adapter@_W@__crt_stdio_output@@@__crt_stdio_output@@IAE_NXZ 100cb550 f i libucrtd:output.obj
 0002:00069770       ?validate_and_update_state_at_end_of_format_string@?$standard_base@DV?$stream_output_adapter@D@__crt_stdio_output@@@__crt_stdio_output@@IBE_NXZ 100cb770 f i libucrtd:output.obj
 0002:00069790       ?validate_and_update_state_at_end_of_format_string@?$standard_base@DV?$string_output_adapter@D@__crt_stdio_output@@@__crt_stdio_output@@IBE_NXZ 100cb790 f i libucrtd:output.obj
 0002:000697b0       ?validate_and_update_state_at_end_of_format_string@?$standard_base@_WV?$stream_output_adapter@_W@__crt_stdio_output@@@__crt_stdio_output@@IBE_NXZ 100cb7b0 f i libucrtd:output.obj
 0002:000697d0       ?validate_and_update_state_at_end_of_format_string@?$standard_base@_WV?$string_output_adapter@_W@__crt_stdio_output@@@__crt_stdio_output@@IBE_NXZ 100cb7d0 f i libucrtd:output.obj
 0002:000697f0       ?validate_state_for_type_case_a@?$positional_parameter_base@DV?$stream_output_adapter@D@__crt_stdio_output@@@__crt_stdio_output@@IAE_NXZ 100cb7f0 f i libucrtd:output.obj
 0002:00069940       ?validate_state_for_type_case_a@?$positional_parameter_base@DV?$string_output_adapter@D@__crt_stdio_output@@@__crt_stdio_output@@IAE_NXZ 100cb940 f i libucrtd:output.obj
 0002:00069a90       ?validate_state_for_type_case_a@?$positional_parameter_base@_WV?$stream_output_adapter@_W@__crt_stdio_output@@@__crt_stdio_output@@IAE_NXZ 100cba90 f i libucrtd:output.obj
 0002:00069be0       ?validate_state_for_type_case_a@?$positional_parameter_base@_WV?$string_output_adapter@_W@__crt_stdio_output@@@__crt_stdio_output@@IAE_NXZ 100cbbe0 f i libucrtd:output.obj
 0002:00069d30       ?validate_state_for_type_case_a@?$standard_base@DV?$stream_output_adapter@D@__crt_stdio_output@@@__crt_stdio_output@@IBE_NXZ 100cbd30 f i libucrtd:output.obj
 0002:00069d50       ?validate_state_for_type_case_a@?$standard_base@DV?$string_output_adapter@D@__crt_stdio_output@@@__crt_stdio_output@@IBE_NXZ 100cbd50 f i libucrtd:output.obj
 0002:00069d70       ?validate_state_for_type_case_a@?$standard_base@_WV?$stream_output_adapter@_W@__crt_stdio_output@@@__crt_stdio_output@@IBE_NXZ 100cbd70 f i libucrtd:output.obj
 0002:00069d90       ?validate_state_for_type_case_a@?$standard_base@_WV?$string_output_adapter@_W@__crt_stdio_output@@@__crt_stdio_output@@IBE_NXZ 100cbd90 f i libucrtd:output.obj
 0002:00069db0       ?validate_stream_is_ansi_if_required@?$__acrt_stdio_char_traits@D@@SA_NQAU_iobuf@@@Z 100cbdb0 f i libucrtd:output.obj
 0002:00069f30       ?validate_stream_is_ansi_if_required@?$__acrt_stdio_char_traits@_W@@SA_NQAU_iobuf@@@Z 100cbf30 f i libucrtd:output.obj
 0002:00069f40       ?wide_character_to_digit@__crt_strtox@@YAH_W@Z 100cbf40 f i libucrtd:output.obj
 0002:0006a330       ?wide_null_string@?$output_processor@DV?$stream_output_adapter@D@__crt_stdio_output@@V?$format_validation_base@DV?$stream_output_adapter@D@__crt_stdio_output@@@2@@__crt_stdio_output@@CAPA_WXZ 100cc330 f i libucrtd:output.obj
 0002:0006a340       ?wide_null_string@?$output_processor@DV?$stream_output_adapter@D@__crt_stdio_output@@V?$positional_parameter_base@DV?$stream_output_adapter@D@__crt_stdio_output@@@2@@__crt_stdio_output@@CAPA_WXZ 100cc340 f i libucrtd:output.obj
 0002:0006a350       ?wide_null_string@?$output_processor@DV?$stream_output_adapter@D@__crt_stdio_output@@V?$standard_base@DV?$stream_output_adapter@D@__crt_stdio_output@@@2@@__crt_stdio_output@@CAPA_WXZ 100cc350 f i libucrtd:output.obj
 0002:0006a360       ?wide_null_string@?$output_processor@DV?$string_output_adapter@D@__crt_stdio_output@@V?$format_validation_base@DV?$string_output_adapter@D@__crt_stdio_output@@@2@@__crt_stdio_output@@CAPA_WXZ 100cc360 f i libucrtd:output.obj
 0002:0006a370       ?wide_null_string@?$output_processor@DV?$string_output_adapter@D@__crt_stdio_output@@V?$positional_parameter_base@DV?$string_output_adapter@D@__crt_stdio_output@@@2@@__crt_stdio_output@@CAPA_WXZ 100cc370 f i libucrtd:output.obj
 0002:0006a380       ?wide_null_string@?$output_processor@DV?$string_output_adapter@D@__crt_stdio_output@@V?$standard_base@DV?$string_output_adapter@D@__crt_stdio_output@@@2@@__crt_stdio_output@@CAPA_WXZ 100cc380 f i libucrtd:output.obj
 0002:0006a390       ?wide_null_string@?$output_processor@_WV?$stream_output_adapter@_W@__crt_stdio_output@@V?$format_validation_base@_WV?$stream_output_adapter@_W@__crt_stdio_output@@@2@@__crt_stdio_output@@CAPA_WXZ 100cc390 f i libucrtd:output.obj
 0002:0006a3a0       ?wide_null_string@?$output_processor@_WV?$stream_output_adapter@_W@__crt_stdio_output@@V?$positional_parameter_base@_WV?$stream_output_adapter@_W@__crt_stdio_output@@@2@@__crt_stdio_output@@CAPA_WXZ 100cc3a0 f i libucrtd:output.obj
 0002:0006a3b0       ?wide_null_string@?$output_processor@_WV?$stream_output_adapter@_W@__crt_stdio_output@@V?$standard_base@_WV?$stream_output_adapter@_W@__crt_stdio_output@@@2@@__crt_stdio_output@@CAPA_WXZ 100cc3b0 f i libucrtd:output.obj
 0002:0006a3c0       ?wide_null_string@?$output_processor@_WV?$string_output_adapter@_W@__crt_stdio_output@@V?$format_validation_base@_WV?$string_output_adapter@_W@__crt_stdio_output@@@2@@__crt_stdio_output@@CAPA_WXZ 100cc3c0 f i libucrtd:output.obj
 0002:0006a3d0       ?wide_null_string@?$output_processor@_WV?$string_output_adapter@_W@__crt_stdio_output@@V?$positional_parameter_base@_WV?$string_output_adapter@_W@__crt_stdio_output@@@2@@__crt_stdio_output@@CAPA_WXZ 100cc3d0 f i libucrtd:output.obj
 0002:0006a3e0       ?wide_null_string@?$output_processor@_WV?$string_output_adapter@_W@__crt_stdio_output@@V?$standard_base@_WV?$string_output_adapter@_W@__crt_stdio_output@@@2@@__crt_stdio_output@@CAPA_WXZ 100cc3e0 f i libucrtd:output.obj
 0002:0006a3f0       ?write_character@?$output_adapter_common@DV?$stream_output_adapter@D@__crt_stdio_output@@@__crt_stdio_output@@QBEXDQAHAAV__crt_cached_ptd_host@@@Z 100cc3f0 f i libucrtd:output.obj
 0002:0006a440       ?write_character@?$output_adapter_common@_WV?$stream_output_adapter@_W@__crt_stdio_output@@@__crt_stdio_output@@QBEX_WQAHAAV__crt_cached_ptd_host@@@Z 100cc440 f i libucrtd:output.obj
 0002:0006a490       ?write_character@?$string_output_adapter@D@__crt_stdio_output@@QBE_NDQAHAAV__crt_cached_ptd_host@@@Z 100cc490 f i libucrtd:output.obj
 0002:0006a550       ?write_character@?$string_output_adapter@_W@__crt_stdio_output@@QBE_N_WQAHAAV__crt_cached_ptd_host@@@Z 100cc550 f i libucrtd:output.obj
 0002:0006a610       ?write_character_without_count_update@?$stream_output_adapter@D@__crt_stdio_output@@QBE_NDAAV__crt_cached_ptd_host@@@Z 100cc610 f i libucrtd:output.obj
 0002:0006a6a0       ?write_character_without_count_update@?$stream_output_adapter@_W@__crt_stdio_output@@QBE_N_WAAV__crt_cached_ptd_host@@@Z 100cc6a0 f i libucrtd:output.obj
 0002:0006a730       ?write_stored_string_tchar@?$output_processor@DV?$stream_output_adapter@D@__crt_stdio_output@@V?$format_validation_base@DV?$stream_output_adapter@D@__crt_stdio_output@@@2@@__crt_stdio_output@@AAE_ND@Z 100cc730 f i libucrtd:output.obj
 0002:0006a8a0       ?write_stored_string_tchar@?$output_processor@DV?$stream_output_adapter@D@__crt_stdio_output@@V?$positional_parameter_base@DV?$stream_output_adapter@D@__crt_stdio_output@@@2@@__crt_stdio_output@@AAE_ND@Z 100cc8a0 f i libucrtd:output.obj
 0002:0006aa10       ?write_stored_string_tchar@?$output_processor@DV?$stream_output_adapter@D@__crt_stdio_output@@V?$standard_base@DV?$stream_output_adapter@D@__crt_stdio_output@@@2@@__crt_stdio_output@@AAE_ND@Z 100cca10 f i libucrtd:output.obj
 0002:0006ab80       ?write_stored_string_tchar@?$output_processor@DV?$string_output_adapter@D@__crt_stdio_output@@V?$format_validation_base@DV?$string_output_adapter@D@__crt_stdio_output@@@2@@__crt_stdio_output@@AAE_ND@Z 100ccb80 f i libucrtd:output.obj
 0002:0006acf0       ?write_stored_string_tchar@?$output_processor@DV?$string_output_adapter@D@__crt_stdio_output@@V?$positional_parameter_base@DV?$string_output_adapter@D@__crt_stdio_output@@@2@@__crt_stdio_output@@AAE_ND@Z 100cccf0 f i libucrtd:output.obj
 0002:0006ae60       ?write_stored_string_tchar@?$output_processor@DV?$string_output_adapter@D@__crt_stdio_output@@V?$standard_base@DV?$string_output_adapter@D@__crt_stdio_output@@@2@@__crt_stdio_output@@AAE_ND@Z 100cce60 f i libucrtd:output.obj
 0002:0006afd0       ?write_stored_string_tchar@?$output_processor@_WV?$stream_output_adapter@_W@__crt_stdio_output@@V?$format_validation_base@_WV?$stream_output_adapter@_W@__crt_stdio_output@@@2@@__crt_stdio_output@@AAE_N_W@Z 100ccfd0 f i libucrtd:output.obj
 0002:0006b120       ?write_stored_string_tchar@?$output_processor@_WV?$stream_output_adapter@_W@__crt_stdio_output@@V?$positional_parameter_base@_WV?$stream_output_adapter@_W@__crt_stdio_output@@@2@@__crt_stdio_output@@AAE_N_W@Z 100cd120 f i libucrtd:output.obj
 0002:0006b270       ?write_stored_string_tchar@?$output_processor@_WV?$stream_output_adapter@_W@__crt_stdio_output@@V?$standard_base@_WV?$stream_output_adapter@_W@__crt_stdio_output@@@2@@__crt_stdio_output@@AAE_N_W@Z 100cd270 f i libucrtd:output.obj
 0002:0006b3c0       ?write_stored_string_tchar@?$output_processor@_WV?$string_output_adapter@_W@__crt_stdio_output@@V?$format_validation_base@_WV?$string_output_adapter@_W@__crt_stdio_output@@@2@@__crt_stdio_output@@AAE_N_W@Z 100cd3c0 f i libucrtd:output.obj
 0002:0006b510       ?write_stored_string_tchar@?$output_processor@_WV?$string_output_adapter@_W@__crt_stdio_output@@V?$positional_parameter_base@_WV?$string_output_adapter@_W@__crt_stdio_output@@@2@@__crt_stdio_output@@AAE_N_W@Z 100cd510 f i libucrtd:output.obj
 0002:0006b660       ?write_stored_string_tchar@?$output_processor@_WV?$string_output_adapter@_W@__crt_stdio_output@@V?$standard_base@_WV?$string_output_adapter@_W@__crt_stdio_output@@@2@@__crt_stdio_output@@AAE_N_W@Z 100cd660 f i libucrtd:output.obj
 0002:0006b7b0       ?write_string@?$stream_output_adapter@D@__crt_stdio_output@@QBEXQBDHQAHAAV__crt_cached_ptd_host@@@Z 100cd7b0 f i libucrtd:output.obj
 0002:0006b820       ?write_string@?$stream_output_adapter@_W@__crt_stdio_output@@QBEXQB_WHQAHAAV__crt_cached_ptd_host@@@Z 100cd820 f i libucrtd:output.obj
 0002:0006b890       ?write_string@?$string_output_adapter@D@__crt_stdio_output@@QBEXQBDHQAHAAV__crt_cached_ptd_host@@@Z 100cd890 f i libucrtd:output.obj
 0002:0006b9d0       ?write_string@?$string_output_adapter@_W@__crt_stdio_output@@QBEXQB_WHQAHAAV__crt_cached_ptd_host@@@Z 100cd9d0 f i libucrtd:output.obj
 0002:0006bb20       ?write_string_impl@?$output_adapter_common@DV?$stream_output_adapter@D@__crt_stdio_output@@@__crt_stdio_output@@IBEXQBDHQAHAAV__crt_cached_ptd_host@@@Z 100cdb20 f i libucrtd:output.obj
 0002:0006bc10       ?write_string_impl@?$output_adapter_common@_WV?$stream_output_adapter@_W@__crt_stdio_output@@@__crt_stdio_output@@IBEXQB_WHQAHAAV__crt_cached_ptd_host@@@Z 100cdc10 f i libucrtd:output.obj
 0002:0006bd00       ___acrt_isleadbyte_l_noupdate 100cdd00 f i libucrtd:output.obj
 0002:0006bd30       ___acrt_locale_get_ctype_array_value 100cdd30 f i libucrtd:output.obj
 0002:0006bd60       ___ascii_toupper           100cdd60 f i libucrtd:output.obj
 0002:0006bd90       ___ascii_towupper          100cdd90 f i libucrtd:output.obj
 0002:0006bdb0       ___stdio_common_vfprintf   100cddb0 f   libucrtd:output.obj
 0002:0006be10       ___stdio_common_vfprintf_p 100cde10 f   libucrtd:output.obj
 0002:0006be70       ___stdio_common_vfprintf_s 100cde70 f   libucrtd:output.obj
 0002:0006bed0       ___stdio_common_vfwprintf  100cded0 f   libucrtd:output.obj
 0002:0006bf30       ___stdio_common_vfwprintf_p 100cdf30 f   libucrtd:output.obj
 0002:0006bf90       ___stdio_common_vfwprintf_s 100cdf90 f   libucrtd:output.obj
 0002:0006bff0       ___stdio_common_vsnprintf_s 100cdff0 f   libucrtd:output.obj
 0002:0006c060       ___stdio_common_vsnwprintf_s 100ce060 f   libucrtd:output.obj
 0002:0006c0d0       ___stdio_common_vsprintf   100ce0d0 f   libucrtd:output.obj
 0002:0006c130       ___stdio_common_vsprintf_p 100ce130 f   libucrtd:output.obj
 0002:0006c190       ___stdio_common_vsprintf_s 100ce190 f   libucrtd:output.obj
 0002:0006c1f0       ___stdio_common_vswprintf  100ce1f0 f   libucrtd:output.obj
 0002:0006c250       ___stdio_common_vswprintf_p 100ce250 f   libucrtd:output.obj
 0002:0006c2b0       ___stdio_common_vswprintf_s 100ce2b0 f   libucrtd:output.obj
 0002:0006c310       __ctype_fast_check_internal 100ce310 f i libucrtd:output.obj
 0002:0006c330       __isdigit_fast_internal    100ce330 f i libucrtd:output.obj
 0002:0006c350       __tolower_fast_internal    100ce350 f i libucrtd:output.obj
 0002:0006c370       _strlen                    100ce370 f   libucrtd:strlen.obj
 0002:0006c420       _strcmp                    100ce420 f   libucrtd:strcmp.obj
 0002:0006c4d0       _strncpy                   100ce4d0 f   libucrtd:strncpy.obj
 0002:0006c640       ??$?RU?$__crt_report_hook_node@D@@@__crt_internal_free_policy@@QBEXQBU?$__crt_report_hook_node@D@@@Z 100ce640 f i libucrtd:dbgrpt.obj
 0002:0006c670       ??$?RU?$__crt_report_hook_node@_W@@@__crt_internal_free_policy@@QBEXQBU?$__crt_report_hook_node@_W@@@Z 100ce670 f i libucrtd:dbgrpt.obj
 0002:0006d8f0       ??$get_module_file_name@AAPAUHINSTANCE__@@AAY0BAF@DK@?$__crt_char_traits@D@@SAKAAPAUHINSTANCE__@@AAY0BAF@D$$QAK@Z 100cf8f0 f i libucrtd:dbgrpt.obj
 0002:0006d920       ??$get_module_file_name@AAPAUHINSTANCE__@@AAY0BAF@_WK@?$__crt_char_traits@_W@@SAKAAPAUHINSTANCE__@@AAY0BAF@_W$$QAK@Z 100cf920 f i libucrtd:dbgrpt.obj
 0002:0006d950       ??$tcscpy_s@AAY0BAF@DIPBD@?$__crt_char_traits@D@@SAHAAY0BAF@D$$QAI$$QAPBD@Z 100cf950 f i libucrtd:dbgrpt.obj
 0002:0006d980       ??$tcscpy_s@AAY0BAF@_WIPB_W@?$__crt_char_traits@_W@@SAHAAY0BAF@_W$$QAI$$QAPB_W@Z 100cf980 f i libucrtd:dbgrpt.obj
 0002:0006d9b0       ??$tcslen@AAY0BAF@D@?$__crt_char_traits@D@@SAIAAY0BAF@D@Z 100cf9b0 f i libucrtd:dbgrpt.obj
 0002:0006d9d0       ??$tcslen@AAY0BAF@_W@?$__crt_char_traits@_W@@SAIAAY0BAF@_W@Z 100cf9d0 f i libucrtd:dbgrpt.obj
 0002:0006d9f0       ??$tcslen@ABQBD@?$__crt_char_traits@D@@SAIABQBD@Z 100cf9f0 f i libucrtd:dbgrpt.obj
 0002:0006da10       ??$tcslen@ABQB_W@?$__crt_char_traits@_W@@SAIABQB_W@Z 100cfa10 f i libucrtd:dbgrpt.obj
 0002:0006db50       ??0?$__crt_unique_heap_ptr@U?$__crt_report_hook_node@D@@U__crt_internal_free_policy@@@@QAE@QAU?$__crt_report_hook_node@D@@@Z 100cfb50 f i libucrtd:dbgrpt.obj
 0002:0006db70       ??0?$__crt_unique_heap_ptr@U?$__crt_report_hook_node@_W@@U__crt_internal_free_policy@@@@QAE@QAU?$__crt_report_hook_node@_W@@@Z 100cfb70 f i libucrtd:dbgrpt.obj
 0002:0006db90       ??1?$__crt_unique_heap_ptr@U?$__crt_report_hook_node@D@@U__crt_internal_free_policy@@@@QAE@XZ 100cfb90 f i libucrtd:dbgrpt.obj
 0002:0006dbb0       ??1?$__crt_unique_heap_ptr@U?$__crt_report_hook_node@_W@@U__crt_internal_free_policy@@@@QAE@XZ 100cfbb0 f i libucrtd:dbgrpt.obj
 0002:0006dbd0       ??B?$__crt_unique_heap_ptr@U?$__crt_report_hook_node@D@@U__crt_internal_free_policy@@@@QBE_NXZ 100cfbd0 f i libucrtd:dbgrpt.obj
 0002:0006dbf0       ??B?$__crt_unique_heap_ptr@U?$__crt_report_hook_node@_W@@U__crt_internal_free_policy@@@@QBE_NXZ 100cfbf0 f i libucrtd:dbgrpt.obj
 0002:0006e2b0       ?detach@?$__crt_unique_heap_ptr@U?$__crt_report_hook_node@D@@U__crt_internal_free_policy@@@@QAEPAU?$__crt_report_hook_node@D@@XZ 100d02b0 f i libucrtd:dbgrpt.obj
 0002:0006e2e0       ?detach@?$__crt_unique_heap_ptr@U?$__crt_report_hook_node@_W@@U__crt_internal_free_policy@@@@QAEPAU?$__crt_report_hook_node@_W@@XZ 100d02e0 f i libucrtd:dbgrpt.obj
 0002:0006e310       ?get@?$__crt_unique_heap_ptr@U?$__crt_report_hook_node@D@@U__crt_internal_free_policy@@@@QBEPAU?$__crt_report_hook_node@D@@XZ 100d0310 f i libucrtd:dbgrpt.obj
 0002:0006e330       ?get@?$__crt_unique_heap_ptr@U?$__crt_report_hook_node@_W@@U__crt_internal_free_policy@@@@QBEPAU?$__crt_report_hook_node@_W@@XZ 100d0330 f i libucrtd:dbgrpt.obj
 0002:0006e3b0       ?is_valid@?$__crt_unique_heap_ptr@U?$__crt_report_hook_node@D@@U__crt_internal_free_policy@@@@QBE_NXZ 100d03b0 f i libucrtd:dbgrpt.obj
 0002:0006e3f0       ?is_valid@?$__crt_unique_heap_ptr@U?$__crt_report_hook_node@_W@@U__crt_internal_free_policy@@@@QBE_NXZ 100d03f0 f i libucrtd:dbgrpt.obj
 0002:0006e430       ?release@?$__crt_unique_heap_ptr@U?$__crt_report_hook_node@D@@U__crt_internal_free_policy@@@@QAEXXZ 100d0430 f i libucrtd:dbgrpt.obj
 0002:0006e460       ?release@?$__crt_unique_heap_ptr@U?$__crt_report_hook_node@_W@@U__crt_internal_free_policy@@@@QAEXXZ 100d0460 f i libucrtd:dbgrpt.obj
 0002:0006e490       __CrtDbgReport             100d0490 f   libucrtd:dbgrpt.obj
 0002:0006e4f0       __CrtDbgReportW            100d04f0 f   libucrtd:dbgrpt.obj
 0002:0006e550       __CrtSetReportHook2        100d0550 f   libucrtd:dbgrpt.obj
 0002:0006e570       __CrtSetReportHookW2       100d0570 f   libucrtd:dbgrpt.obj
 0002:0006e590       ___acrt_MessageWindowA     100d0590 f   libucrtd:dbgrpt.obj
 0002:0006e5c0       ___acrt_MessageWindowW     100d05c0 f   libucrtd:dbgrpt.obj
 0002:0006e5f0       __invoke_watson_if_oneof   100d05f0 f i libucrtd:dbgrpt.obj
 0002:0006e640       __snwprintf_s              100d0640 f i libucrtd:dbgrpt.obj
 0002:0006e690       __vsnwprintf_s_l           100d0690 f i libucrtd:dbgrpt.obj
 0002:0006e700       __initterm                 100d0700 f   libucrtd:initterm.obj
 0002:0006e760       __initterm_e               100d0760 f   libucrtd:initterm.obj
 0002:0006e7d0       ?should_round_up@__crt_strtox@@YA_N_N000@Z 100d07d0 f i libucrtd:fpexcept.obj
 0002:0006e900       __errcode                  100d0900 f   libucrtd:fpexcept.obj
 0002:0006e990       __except1                  100d0990 f   libucrtd:fpexcept.obj
 0002:0006ead0       __except2                  100d0ad0 f   libucrtd:fpexcept.obj
 0002:0006ec80       __handle_exc               100d0c80 f   libucrtd:fpexcept.obj
 0002:0006f0f0       __handle_qnan2             100d10f0 f   libucrtd:fpexcept.obj
 0002:0006f110       __raise_exc                100d1110 f   libucrtd:fpexcept.obj
 0002:0006f150       __raise_exc_ex             100d1150 f   libucrtd:fpexcept.obj
 0002:0006f830       __raise_excf               100d1830 f   libucrtd:fpexcept.obj
 0002:0006f870       __set_errno_from_matherr   100d1870 f   libucrtd:fpexcept.obj
 0002:0006f8c0       __umatherr                 100d18c0 f   libucrtd:fpexcept.obj
 0002:0006fd60       _strcpy_s                  100d1d60 f   libucrtd:strcpy_s.obj
 0002:000702b0       _strcat_s                  100d22b0 f   libucrtd:strcat_s.obj
 0002:00070340       __seh_filter_dll           100d2340 f   libucrtd:exception_filter.obj
 0002:00070370       __seh_filter_exe           100d2370 f   libucrtd:exception_filter.obj
 0002:00070610       ??$?RE@__crt_internal_free_policy@@QBEXQBE@Z 100d2610 f i libucrtd:argv_parsing.obj
 0002:00070640       ??$?RPAD@__crt_internal_free_policy@@QBEXQBQAD@Z 100d2640 f i libucrtd:argv_parsing.obj
 0002:00070670       ??$?RPA_W@__crt_internal_free_policy@@QBEXQBQA_W@Z 100d2670 f i libucrtd:argv_parsing.obj
 0002:00070dc0       ??$get_module_file_name@$$TAAY0BAF@DH@?$__crt_char_traits@D@@SAK$$QA$$TAAY0BAF@D$$QAH@Z 100d2dc0 f i libucrtd:argv_parsing.obj
 0002:00070df0       ??$get_module_file_name@$$TAAY0BAF@_WH@?$__crt_char_traits@_W@@SAK$$QA$$TAAY0BAF@_W$$QAH@Z 100d2df0 f i libucrtd:argv_parsing.obj
 0002:00071700       ??$set_program_name@PAD@?$__crt_char_traits@D@@SAX$$QAPAD@Z 100d3700 f i libucrtd:argv_parsing.obj
 0002:00071720       ??$set_program_name@PA_W@?$__crt_char_traits@_W@@SAX$$QAPA_W@Z 100d3720 f i libucrtd:argv_parsing.obj
 0002:00071780       ??0?$__crt_unique_heap_ptr@EU__crt_internal_free_policy@@@@QAE@QAE@Z 100d3780 f i libucrtd:argv_parsing.obj
 0002:000717a0       ??0?$__crt_unique_heap_ptr@PADU__crt_internal_free_policy@@@@QAE@QAPAD@Z 100d37a0 f i libucrtd:argv_parsing.obj
 0002:000717c0       ??0?$__crt_unique_heap_ptr@PA_WU__crt_internal_free_policy@@@@QAE@QAPA_W@Z 100d37c0 f i libucrtd:argv_parsing.obj
 0002:000717e0       ??1?$__crt_unique_heap_ptr@EU__crt_internal_free_policy@@@@QAE@XZ 100d37e0 f i libucrtd:argv_parsing.obj
 0002:00071800       ??1?$__crt_unique_heap_ptr@PADU__crt_internal_free_policy@@@@QAE@XZ 100d3800 f i libucrtd:argv_parsing.obj
 0002:00071820       ??1?$__crt_unique_heap_ptr@PA_WU__crt_internal_free_policy@@@@QAE@XZ 100d3820 f i libucrtd:argv_parsing.obj
 0002:00071840       ??B?$__crt_unique_heap_ptr@EU__crt_internal_free_policy@@@@QBE_NXZ 100d3840 f i libucrtd:argv_parsing.obj
 0002:00071920       ?detach@?$__crt_unique_heap_ptr@EU__crt_internal_free_policy@@@@QAEPAEXZ 100d3920 f i libucrtd:argv_parsing.obj
 0002:00071950       ?detach@?$__crt_unique_heap_ptr@PADU__crt_internal_free_policy@@@@QAEPAPADXZ 100d3950 f i libucrtd:argv_parsing.obj
 0002:00071980       ?detach@?$__crt_unique_heap_ptr@PA_WU__crt_internal_free_policy@@@@QAEPAPA_WXZ 100d3980 f i libucrtd:argv_parsing.obj
 0002:00071a10       ?get@?$__crt_unique_heap_ptr@EU__crt_internal_free_policy@@@@QBEPAEXZ 100d3a10 f i libucrtd:argv_parsing.obj
 0002:00071a30       ?get@?$__crt_unique_heap_ptr@PADU__crt_internal_free_policy@@@@QBEPAPADXZ 100d3a30 f i libucrtd:argv_parsing.obj
 0002:00071a50       ?get@?$__crt_unique_heap_ptr@PA_WU__crt_internal_free_policy@@@@QBEPAPA_WXZ 100d3a50 f i libucrtd:argv_parsing.obj
 0002:00071a70       ?get_address_of@?$__crt_unique_heap_ptr@PADU__crt_internal_free_policy@@@@QAEPAPAPADXZ 100d3a70 f i libucrtd:argv_parsing.obj
 0002:00071a90       ?get_address_of@?$__crt_unique_heap_ptr@PA_WU__crt_internal_free_policy@@@@QAEPAPAPA_WXZ 100d3a90 f i libucrtd:argv_parsing.obj
 0002:00071af0       ?is_valid@?$__crt_unique_heap_ptr@EU__crt_internal_free_policy@@@@QBE_NXZ 100d3af0 f i libucrtd:argv_parsing.obj
 0002:00071b30       ?release@?$__crt_unique_heap_ptr@EU__crt_internal_free_policy@@@@QAEXXZ 100d3b30 f i libucrtd:argv_parsing.obj
 0002:00071b60       ?release@?$__crt_unique_heap_ptr@PADU__crt_internal_free_policy@@@@QAEXXZ 100d3b60 f i libucrtd:argv_parsing.obj
 0002:00071b90       ?release@?$__crt_unique_heap_ptr@PA_WU__crt_internal_free_policy@@@@QAEXXZ 100d3b90 f i libucrtd:argv_parsing.obj
 0002:00071c10       ___acrt_allocate_buffer_for_argv 100d3c10 f   libucrtd:argv_parsing.obj
 0002:00071d00       __configure_narrow_argv    100d3d00 f   libucrtd:argv_parsing.obj
 0002:00071d20       __configure_wide_argv      100d3d20 f   libucrtd:argv_parsing.obj
 0002:00071d40       __set_pgmptr               100d3d40 f i libucrtd:argv_parsing.obj
 0002:00071d60       __set_wpgmptr              100d3d60 f i libucrtd:argv_parsing.obj
 0002:00071d80       ??$?R_W@__crt_internal_free_policy@@QBEXQB_W@Z 100d3d80 f i libucrtd:environment_initialization.obj
 0002:00072750       ??$get_environment_from_os@$$V@?$__crt_char_traits@D@@SAPADXZ 100d4750 f i libucrtd:environment_initialization.obj
 0002:00072760       ??$get_environment_from_os@$$V@?$__crt_char_traits@_W@@SAPA_WXZ 100d4760 f i libucrtd:environment_initialization.obj
 0002:00072ad0       ??$set_variable_in_environment_nolock@PADH@?$__crt_char_traits@D@@SAH$$QAPAD$$QAH@Z 100d4ad0 f i libucrtd:environment_initialization.obj
 0002:00072b00       ??$set_variable_in_environment_nolock@PA_WH@?$__crt_char_traits@_W@@SAH$$QAPA_W$$QAH@Z 100d4b00 f i libucrtd:environment_initialization.obj
 0002:00072b30       ??$tcscpy_s@PADABIAAPAD@?$__crt_char_traits@D@@SAH$$QAPADABIAAPAD@Z 100d4b30 f i libucrtd:environment_initialization.obj
 0002:00072b60       ??$tcscpy_s@PA_WABIAAPA_W@?$__crt_char_traits@_W@@SAH$$QAPA_WABIAAPA_W@Z 100d4b60 f i libucrtd:environment_initialization.obj
 0002:00072b90       ??$tcslen@AAPAD@?$__crt_char_traits@D@@SAIAAPAD@Z 100d4b90 f i libucrtd:environment_initialization.obj
 0002:00072bb0       ??$tcslen@AAPA_W@?$__crt_char_traits@_W@@SAIAAPA_W@Z 100d4bb0 f i libucrtd:environment_initialization.obj
 0002:00072bd0       ??$uninitialize@A6AXAAPAPAD@_E@?$dual_state_global@PAPAD@__crt_state_management@@QAEXA6AXAAPAPAD@_E@Z 100d4bd0 f i libucrtd:environment_initialization.obj
 0002:00072c70       ??$uninitialize@A6AXAAPAPA_W@_E@?$dual_state_global@PAPA_W@__crt_state_management@@QAEXA6AXAAPAPA_W@_E@Z 100d4c70 f i libucrtd:environment_initialization.obj
 0002:00072d90       ??0?$__crt_unique_heap_ptr@_WU__crt_internal_free_policy@@@@QAE@QA_W@Z 100d4d90 f i libucrtd:environment_initialization.obj
 0002:00072db0       ??1?$__crt_unique_heap_ptr@_WU__crt_internal_free_policy@@@@QAE@XZ 100d4db0 f i libucrtd:environment_initialization.obj
 0002:00072dd0       ??B?$__crt_unique_heap_ptr@PADU__crt_internal_free_policy@@@@QBE_NXZ 100d4dd0 f i libucrtd:environment_initialization.obj
 0002:00072df0       ??B?$__crt_unique_heap_ptr@PA_WU__crt_internal_free_policy@@@@QBE_NXZ 100d4df0 f i libucrtd:environment_initialization.obj
 0002:00072e10       ??B?$__crt_unique_heap_ptr@_WU__crt_internal_free_policy@@@@QBE_NXZ 100d4e10 f i libucrtd:environment_initialization.obj
 0002:00072e30       ?__crt_compute_required_transform_buffer_count@@YAIIQBD@Z 100d4e30 f i libucrtd:environment_initialization.obj
 0002:00072e60       ?__crt_compute_required_transform_buffer_count@@YAIIQB_W@Z 100d4e60 f i libucrtd:environment_initialization.obj
 0002:00072e90       ?__crt_transform_string@@YAIIQBDQA_WI@Z 100d4e90 f i libucrtd:environment_initialization.obj
 0002:00072ed0       ?__crt_transform_string@@YAIIQB_WQADI@Z 100d4ed0 f i libucrtd:environment_initialization.obj
 0002:00072f10       ?detach@?$__crt_unique_heap_ptr@DU__crt_internal_free_policy@@@@QAEPADXZ 100d4f10 f i libucrtd:environment_initialization.obj
 0002:00072f40       ?detach@?$__crt_unique_heap_ptr@_WU__crt_internal_free_policy@@@@QAEPA_WXZ 100d4f40 f i libucrtd:environment_initialization.obj
 0002:00072f70       ?get@?$__crt_unique_heap_ptr@_WU__crt_internal_free_policy@@@@QBEPA_WXZ 100d4f70 f i libucrtd:environment_initialization.obj
 0002:00072f90       ?get_current_state_index@__crt_state_management@@YAIXZ 100d4f90 f i libucrtd:environment_initialization.obj
 0002:00073020       ?initialize@?$dual_state_global@PAPAD@__crt_state_management@@QAEXQAPAD@Z 100d5020 f i libucrtd:environment_initialization.obj
 0002:00073070       ?initialize@?$dual_state_global@PAPA_W@__crt_state_management@@QAEXQAPA_W@Z 100d5070 f i libucrtd:environment_initialization.obj
 0002:000730c0       ?is_valid@?$__crt_unique_heap_ptr@PADU__crt_internal_free_policy@@@@QBE_NXZ 100d50c0 f i libucrtd:environment_initialization.obj
 0002:00073100       ?is_valid@?$__crt_unique_heap_ptr@PA_WU__crt_internal_free_policy@@@@QBE_NXZ 100d5100 f i libucrtd:environment_initialization.obj
 0002:00073140       ?is_valid@?$__crt_unique_heap_ptr@_WU__crt_internal_free_policy@@@@QBE_NXZ 100d5140 f i libucrtd:environment_initialization.obj
 0002:000731a0       ?release@?$__crt_unique_heap_ptr@_WU__crt_internal_free_policy@@@@QAEXXZ 100d51a0 f i libucrtd:environment_initialization.obj
 0002:000731d0       ?value@?$dual_state_global@PAPAD@__crt_state_management@@QAEAAPAPADXZ 100d51d0 f i libucrtd:environment_initialization.obj
 0002:000731f0       ?value@?$dual_state_global@PAPA_W@__crt_state_management@@QAEAAPAPA_WXZ 100d51f0 f i libucrtd:environment_initialization.obj
 0002:00073210       ___dcrt_get_or_create_narrow_environment_nolock 100d5210 f   libucrtd:environment_initialization.obj
 0002:00073220       ___dcrt_get_or_create_wide_environment_nolock 100d5220 f   libucrtd:environment_initialization.obj
 0002:00073230       ___dcrt_uninitialize_environments_nolock 100d5230 f   libucrtd:environment_initialization.obj
 0002:00073290       ___p__environ              100d5290 f   libucrtd:environment_initialization.obj
 0002:000732b0       ___p__wenviron             100d52b0 f   libucrtd:environment_initialization.obj
 0002:000732d0       __get_initial_narrow_environment 100d52d0 f   libucrtd:environment_initialization.obj
 0002:000732e0       __get_initial_wide_environment 100d52e0 f   libucrtd:environment_initialization.obj
 0002:000732f0       __initialize_narrow_environment 100d52f0 f   libucrtd:environment_initialization.obj
 0002:00073300       __initialize_wide_environment 100d5300 f   libucrtd:environment_initialization.obj
 0002:00073310       ??$?B$$A6AXXZ@__crt_fast_encoded_nullptr_t@@QBEP6AXXZXZ 100d5310 f i libucrtd:onexit.obj
 0002:00073330       ??$?BP6AXXZ@__crt_fast_encoded_nullptr_t@@QBEPAP6AXXZXZ 100d5330 f i libucrtd:onexit.obj
 0002:00073350       ??$?RP6AXXZ@__crt_internal_free_policy@@QBEXQBQ6AXXZ@Z 100d5350 f i libucrtd:onexit.obj
 0002:00073600       ??$__crt_fast_decode_pointer@P6AXXZ@@YAP6AXXZQ6AXXZ@Z 100d5600 f i libucrtd:onexit.obj
 0002:00073640       ??$__crt_fast_decode_pointer@PAP6AXXZ@@YAPAP6AXXZQAP6AXXZ@Z 100d5640 f i libucrtd:onexit.obj
 0002:00073680       ??$__crt_fast_encode_pointer@P6AHXZ@@YAP6AHXZQ6AHXZ@Z 100d5680 f i libucrtd:onexit.obj
 0002:000736c0       ??$__crt_fast_encode_pointer@P6AXXZ@@YAP6AXXZQ6AXXZ@Z 100d56c0 f i libucrtd:onexit.obj
 0002:00073700       ??$__crt_fast_encode_pointer@PAP6AXXZ@@YAPAP6AXXZQAP6AXXZ@Z 100d5700 f i libucrtd:onexit.obj
 0002:00073850       ??0?$__crt_unique_heap_ptr@P6AXXZU__crt_internal_free_policy@@@@QAE@QAP6AXXZ@Z 100d5850 f i libucrtd:onexit.obj
 0002:00073870       ??1?$__crt_unique_heap_ptr@P6AXXZU__crt_internal_free_policy@@@@QAE@XZ 100d5870 f i libucrtd:onexit.obj
 0002:00073890       ??1scoped_global_state_reset@__crt_state_management@@QAE@XZ 100d5890 f i libucrtd:onexit.obj
 0002:00073e40       ?detach@?$__crt_unique_heap_ptr@P6AXXZU__crt_internal_free_policy@@@@QAEPAP6AXXZXZ 100d5e40 f i libucrtd:onexit.obj
 0002:00073e70       ?release@?$__crt_unique_heap_ptr@P6AXXZU__crt_internal_free_policy@@@@QAEXXZ 100d5e70 f i libucrtd:onexit.obj
 0002:00073ea0       __crt_at_quick_exit        100d5ea0 f   libucrtd:onexit.obj
 0002:00073ec0       __crt_atexit               100d5ec0 f   libucrtd:onexit.obj
 0002:00073ee0       __execute_onexit_table     100d5ee0 f   libucrtd:onexit.obj
 0002:00073f20       __initialize_onexit_table  100d5f20 f   libucrtd:onexit.obj
 0002:00073fa0       __register_onexit_function 100d5fa0 f   libucrtd:onexit.obj
 0002:00074230       ??$?BX@__crt_fast_encoded_nullptr_t@@QBEPAXXZ 100d6230 f i libucrtd:initialization.obj
 0002:00074250       ??$__crt_fast_encode_pointer@PAX@@YAPAXQAX@Z 100d6250 f i libucrtd:initialization.obj
 0002:00074380       ?initialize@?$dual_state_global@PAU__crt_locale_data@@@__crt_state_management@@QAEXQAU__crt_locale_data@@@Z 100d6380 f i libucrtd:initialization.obj
 0002:000743d0       ___acrt_initialize         100d63d0 f   libucrtd:initialization.obj
 0002:000743f0       ___acrt_thread_attach      100d63f0 f   libucrtd:initialization.obj
 0002:00074410       ___acrt_thread_detach      100d6410 f   libucrtd:initialization.obj
 0002:00074430       ___acrt_uninitialize       100d6430 f   libucrtd:initialization.obj
 0002:00074450       ___acrt_uninitialize_critical 100d6450 f   libucrtd:initialization.obj
 0002:000744b0       __get_terminate            100d64b0 f   libucrtd:terminate.obj
 0002:000744d0       _set_terminate             100d64d0 f   libucrtd:terminate.obj
 0002:00074510       _terminate                 100d6510 f   libucrtd:terminate.obj
 0002:00075180       __makepath                 100d7180 f   libucrtd:makepath.obj
 0002:000751b0       __makepath_s               100d71b0 f   libucrtd:makepath.obj
 0002:000751e0       __wmakepath                100d71e0 f   libucrtd:makepath.obj
 0002:00075210       __wmakepath_s              100d7210 f   libucrtd:makepath.obj
 0002:000773a0       ??$tcsncpy_s@AAPADIAAPBDABI@?$__crt_char_traits@D@@SAHAAPAD$$QAIAAPBDABI@Z 100d93a0 f i libucrtd:splitpath.obj
 0002:000773d0       ??$tcsncpy_s@AAPADIAAPBDH@?$__crt_char_traits@D@@SAHAAPAD$$QAIAAPBD$$QAH@Z 100d93d0 f i libucrtd:splitpath.obj
 0002:00077400       ??$tcsncpy_s@AAPA_WIAAPB_WABI@?$__crt_char_traits@_W@@SAHAAPA_W$$QAIAAPB_WABI@Z 100d9400 f i libucrtd:splitpath.obj
 0002:00077430       ??$tcsncpy_s@AAPA_WIAAPB_WH@?$__crt_char_traits@_W@@SAHAAPA_W$$QAIAAPB_W$$QAH@Z 100d9430 f i libucrtd:splitpath.obj
 0002:000776d0       __splitpath                100d96d0 f   libucrtd:splitpath.obj
 0002:00077700       __splitpath_s              100d9700 f   libucrtd:splitpath.obj
 0002:00077760       __wsplitpath               100d9760 f   libucrtd:splitpath.obj
 0002:00077790       __wsplitpath_s             100d9790 f   libucrtd:splitpath.obj
 0002:00077bd0       _wcscpy_s                  100d9bd0 f   libucrtd:wcscpy_s.obj
 0002:00077fe0       ?get_doserrno@__crt_cached_ptd_host@@QAEAAU?$cached@K@1@XZ 100d9fe0 f i libucrtd:close.obj
 0002:00078000       ?set@?$cached@K@__crt_cached_ptd_host@@QAEKK@Z 100da000 f i libucrtd:close.obj
 0002:00078030       __close                    100da030 f   libucrtd:close.obj
 0002:00078030       _close                     100da030 f   libucrtd:close.obj
 0002:00078080       __close_internal           100da080 f   libucrtd:close.obj
 0002:000782c0       __close_nolock             100da2c0 f   libucrtd:close.obj
 0002:00078310       __close_nolock_internal    100da310 f   libucrtd:close.obj
 0002:00078df0       __lseek                    100dadf0 f   libucrtd:lseek.obj
 0002:00078df0       _lseek                     100dadf0 f   libucrtd:lseek.obj
 0002:00078e40       __lseek_internal           100dae40 f   libucrtd:lseek.obj
 0002:00078e70       __lseek_nolock             100dae70 f   libucrtd:lseek.obj
 0002:00078ec0       __lseek_nolock_internal    100daec0 f   libucrtd:lseek.obj
 0002:00078ef0       __lseeki64                 100daef0 f   libucrtd:lseek.obj
 0002:00078f50       __lseeki64_internal        100daf50 f   libucrtd:lseek.obj
 0002:00078f80       __lseeki64_nolock          100daf80 f   libucrtd:lseek.obj
 0002:00078fe0       __lseeki64_nolock_internal 100dafe0 f   libucrtd:lseek.obj
 0002:00079ab0       ??$tsopen_nolock@PAHABQAHABQBDABHABHABHABH@?$__crt_char_traits@D@@SAH$$QAPAHABQAHABQBDABH333@Z 100dbab0 f i libucrtd:open.obj
 0002:00079b00       ??$tsopen_nolock@PAHABQAHABQB_WABHABHABHABH@?$__crt_char_traits@_W@@SAH$$QAPAHABQAHABQB_WABH333@Z 100dbb00 f i libucrtd:open.obj
 0002:00079b50       ??$tsopen_nolock@PAHPAHABQBDABHHABHH@?$__crt_char_traits@D@@SAH$$QAPAH0ABQBDABH$$QAH23@Z 100dbb50 f i libucrtd:open.obj
 0002:00079ba0       ??$tsopen_nolock@PAHPAHABQB_WABHHABHH@?$__crt_char_traits@_W@@SAH$$QAPAH0ABQB_WABH$$QAH23@Z 100dbba0 f i libucrtd:open.obj
 0002:0007a9e0       __open                     100dc9e0 f   libucrtd:open.obj
 0002:0007a9e0       _open                      100dc9e0 f   libucrtd:open.obj
 0002:0007aa30       __sopen                    100dca30 f   libucrtd:open.obj
 0002:0007aac0       __sopen_dispatch           100dcac0 f   libucrtd:open.obj
 0002:0007aaf0       __sopen_nolock             100dcaf0 f   libucrtd:open.obj
 0002:0007ab90       __sopen_s                  100dcb90 f   libucrtd:open.obj
 0002:0007abc0       __wopen                    100dcbc0 f   libucrtd:open.obj
 0002:0007ac10       __wsopen                   100dcc10 f   libucrtd:open.obj
 0002:0007aca0       __wsopen_dispatch          100dcca0 f   libucrtd:open.obj
 0002:0007acd0       __wsopen_nolock            100dccd0 f   libucrtd:open.obj
 0002:0007b3d0       __wsopen_s                 100dd3d0 f   libucrtd:open.obj
 0002:0007c0d0       __read                     100de0d0 f   libucrtd:read.obj
 0002:0007c0d0       _read                      100de0d0 f   libucrtd:read.obj
 0002:0007c470       __read_nolock              100de470 f   libucrtd:read.obj
 0002:0007d0a0       __utf8_no_of_trailbytes    100df0a0 f i libucrtd:read.obj
 0002:0007e770       __isleadbyte_fast_internal 100e0770 f i libucrtd:write.obj
 0002:0007e7a0       __write                    100e07a0 f   libucrtd:write.obj
 0002:0007e7a0       _write                     100e07a0 f   libucrtd:write.obj
 0002:0007e7f0       __write_internal           100e07f0 f   libucrtd:write.obj
 0002:0007eb40       __write_nolock             100e0b40 f   libucrtd:write.obj
 0002:00081200       __CrtCheckMemory           100e3200 f   libucrtd:debug_heap.obj
 0002:000813f0       __CrtDoForAllClientObjects 100e33f0 f   libucrtd:debug_heap.obj
 0002:000815a0       __CrtDumpMemoryLeaks       100e35a0 f   libucrtd:debug_heap.obj
 0002:00081660       __CrtGetAllocHook          100e3660 f   libucrtd:debug_heap.obj
 0002:00081670       __CrtGetDumpClient         100e3670 f   libucrtd:debug_heap.obj
 0002:00081680       __CrtIsMemoryBlock         100e3680 f   libucrtd:debug_heap.obj
 0002:00081820       __CrtIsValidHeapPointer    100e3820 f   libucrtd:debug_heap.obj
 0002:00081870       __CrtIsValidPointer        100e3870 f   libucrtd:debug_heap.obj
 0002:000818a0       __CrtMemCheckpoint         100e38a0 f   libucrtd:debug_heap.obj
 0002:00081b60       __CrtMemDifference         100e3b60 f   libucrtd:debug_heap.obj
 0002:00081e70       __CrtMemDumpAllObjectsSince 100e3e70 f   libucrtd:debug_heap.obj
 0002:00081f30       __CrtMemDumpStatistics     100e3f30 f   libucrtd:debug_heap.obj
 0002:000820a0       __CrtReportBlockType       100e40a0 f   libucrtd:debug_heap.obj
 0002:000820e0       __CrtSetAllocHook          100e40e0 f   libucrtd:debug_heap.obj
 0002:00082110       __CrtSetBreakAlloc         100e4110 f   libucrtd:debug_heap.obj
 0002:00082140       __CrtSetDbgBlockType       100e4140 f   libucrtd:debug_heap.obj
 0002:00082250       __CrtSetDbgFlag            100e4250 f   libucrtd:debug_heap.obj
 0002:00082420       __CrtSetDumpClient         100e4420 f   libucrtd:debug_heap.obj
 0002:00082450       ___acrt_get_locale_data_prefix 100e4450 f i libucrtd:debug_heap.obj
 0002:00082470       ___p__crtBreakAlloc        100e4470 f   libucrtd:debug_heap.obj
 0002:00082480       ___p__crtDbgFlag           100e4480 f   libucrtd:debug_heap.obj
 0002:00082490       __aligned_free_dbg         100e4490 f   libucrtd:debug_heap.obj
 0002:00082570       __aligned_malloc_dbg       100e4570 f   libucrtd:debug_heap.obj
 0002:000825a0       __aligned_msize_dbg        100e45a0 f   libucrtd:debug_heap.obj
 0002:00082710       __aligned_offset_malloc_dbg 100e4710 f   libucrtd:debug_heap.obj
 0002:00082960       __aligned_offset_realloc_dbg 100e4960 f   libucrtd:debug_heap.obj
 0002:00082d30       __aligned_offset_recalloc_dbg 100e4d30 f   libucrtd:debug_heap.obj
 0002:00082e20       __aligned_realloc_dbg      100e4e20 f   libucrtd:debug_heap.obj
 0002:00082e50       __aligned_recalloc_dbg     100e4e50 f   libucrtd:debug_heap.obj
 0002:00082e90       __calloc_dbg               100e4e90 f   libucrtd:debug_heap.obj
 0002:00082f20       __chvalidchk_l             100e4f20 f i libucrtd:debug_heap.obj
 0002:00082f50       __expand_dbg               100e4f50 f   libucrtd:debug_heap.obj
 0002:000830d0       __free_dbg                 100e50d0 f   libucrtd:debug_heap.obj
 0002:000831b0       __ischartype_l             100e51b0 f i libucrtd:debug_heap.obj
 0002:00083250       __malloc_dbg               100e5250 f   libucrtd:debug_heap.obj
 0002:00083280       __msize_dbg                100e5280 f   libucrtd:debug_heap.obj
 0002:00083470       __realloc_dbg              100e5470 f   libucrtd:debug_heap.obj
 0002:00083540       __recalloc_dbg             100e5540 f   libucrtd:debug_heap.obj
 0002:00083620       __set_abort_behavior       100e5620 f   libucrtd:abort.obj
 0002:00083660       _abort                     100e5660 f   libucrtd:abort.obj
 0002:000836f0       ??$__crt_fast_decode_pointer@P6AXPB_W00II@Z@@YAP6AXPB_W00II@ZQ6AX000II@Z@Z 100e56f0 f i libucrtd:invalid_parameter.obj
 0002:00083730       ??$__crt_fast_encode_pointer@P6AXPB_W00II@Z@@YAP6AXPB_W00II@ZQ6AX000II@Z@Z 100e5730 f i libucrtd:invalid_parameter.obj
 0002:00083770       ??$initialize_from_array@$$BY00Q6AXPB_W00II@Z@?$dual_state_global@P6AXPB_W00II@Z@__crt_state_management@@QAAXAAY00Q6AXPB_W00II@Z@Z 100e5770 f i libucrtd:invalid_parameter.obj
 0002:000837d0       ?check_synchronize_global_state_index@__crt_cached_ptd_host@@AAEIXZ 100e57d0 f i libucrtd:invalid_parameter.obj
 0002:00083830       ?dangerous_get_state_array@?$dual_state_global@P6AXPB_W00II@Z@__crt_state_management@@QAEPAP6AXPB_W00II@ZXZ 100e5830 f i libucrtd:invalid_parameter.obj
 0002:00083850       ?get_current_global_state_index@__crt_cached_ptd_host@@QAEIXZ 100e5850 f i libucrtd:invalid_parameter.obj
 0002:00083870       ?get_raw_ptd_noexit@__crt_cached_ptd_host@@QAEPAU__acrt_ptd@@XZ 100e5870 f i libucrtd:invalid_parameter.obj
 0002:00083890       ?try_synchronize_per_thread_data@__crt_cached_ptd_host@@AAEPAU__acrt_ptd@@XZ 100e5890 f i libucrtd:invalid_parameter.obj
 0002:000838c0       ?value@?$dual_state_global@P6AXPB_W00II@Z@__crt_state_management@@QAEAAP6AXPB_W00II@ZAAV__crt_cached_ptd_host@@@Z 100e58c0 f i libucrtd:invalid_parameter.obj
 0002:000838f0       ?value@?$dual_state_global@P6AXPB_W00II@Z@__crt_state_management@@QAEAAP6AXPB_W00II@ZXZ 100e58f0 f i libucrtd:invalid_parameter.obj
 0002:00083910       ___acrt_call_reportfault   100e5910 f   libucrtd:invalid_parameter.obj
 0002:00083ac0       ___acrt_initialize_invalid_parameter_handler 100e5ac0 f   libucrtd:invalid_parameter.obj
 0002:00083af0       __get_invalid_parameter_handler 100e5af0 f   libucrtd:invalid_parameter.obj
 0002:00083b20       __get_thread_local_invalid_parameter_handler 100e5b20 f   libucrtd:invalid_parameter.obj
 0002:00083b50       __invalid_parameter        100e5b50 f   libucrtd:invalid_parameter.obj
 0002:00083ba0       __invalid_parameter_internal 100e5ba0 f   libucrtd:invalid_parameter.obj
 0002:00083ca0       __invalid_parameter_noinfo 100e5ca0 f   libucrtd:invalid_parameter.obj
 0002:00083cc0       __invalid_parameter_noinfo_noreturn 100e5cc0 f   libucrtd:invalid_parameter.obj
 0002:00083d00       __invoke_watson            100e5d00 f   libucrtd:invalid_parameter.obj
 0002:00083d50       __set_invalid_parameter_handler 100e5d50 f   libucrtd:invalid_parameter.obj
 0002:00083db0       __set_thread_local_invalid_parameter_handler 100e5db0 f   libucrtd:invalid_parameter.obj
 0002:00083df0       ??$is_overflow_condition@_K@__crt_strtox@@YA_NI_K@Z 100e5df0 f i libucrtd:atox.obj
 0002:00083ea0       ??$make_c_string_character_source@D$$T@__crt_strtox@@YA?AV?$c_string_character_source@D@0@QBD$$T@Z 100e5ea0 f i libucrtd:atox.obj
 0002:00083ec0       ??$make_c_string_character_source@_W$$T@__crt_strtox@@YA?AV?$c_string_character_source@_W@0@QB_W$$T@Z 100e5ec0 f i libucrtd:atox.obj
 0002:00083ee0       ??$parse_integer@KV?$c_string_character_source@D@__crt_strtox@@$00@__crt_strtox@@YAKAAV__crt_cached_ptd_host@@V?$c_string_character_source@D@0@H_N@Z 100e5ee0 f i libucrtd:atox.obj
 0002:00084320       ??$parse_integer@KV?$c_string_character_source@_W@__crt_strtox@@$00@__crt_strtox@@YAKAAV__crt_cached_ptd_host@@V?$c_string_character_source@_W@0@H_N@Z 100e6320 f i libucrtd:atox.obj
 0002:00084760       ??$parse_integer@_KV?$c_string_character_source@D@__crt_strtox@@$00@__crt_strtox@@YA_KAAV__crt_cached_ptd_host@@V?$c_string_character_source@D@0@H_N@Z 100e6760 f i libucrtd:atox.obj
 0002:00084c40       ??$parse_integer@_KV?$c_string_character_source@_W@__crt_strtox@@$00@__crt_strtox@@YA_KAAV__crt_cached_ptd_host@@V?$c_string_character_source@_W@0@H_N@Z 100e6c40 f i libucrtd:atox.obj
 0002:00085130       ??$parse_integer_from_string@JD$$T@__crt_strtox@@YAJQBD$$THQAU__crt_locale_pointers@@@Z 100e7130 f i libucrtd:atox.obj
 0002:000851a0       ??$parse_integer_from_string@J_W$$T@__crt_strtox@@YAJQB_W$$THQAU__crt_locale_pointers@@@Z 100e71a0 f i libucrtd:atox.obj
 0002:00085210       ??$parse_integer_from_string@_JD$$T@__crt_strtox@@YA_JQBD$$THQAU__crt_locale_pointers@@@Z 100e7210 f i libucrtd:atox.obj
 0002:00085280       ??$parse_integer_from_string@_J_W$$T@__crt_strtox@@YA_JQB_W$$THQAU__crt_locale_pointers@@@Z 100e7280 f i libucrtd:atox.obj
 0002:000852f0       ?is_space@__crt_strtox@@YA_NDQAU__crt_locale_pointers@@@Z 100e72f0 f i libucrtd:atox.obj
 0002:00085340       ?is_space@__crt_strtox@@YA_N_WPAU__crt_locale_pointers@@@Z 100e7340 f i libucrtd:atox.obj
 0002:00085380       ?maximum_signed_value@__crt_strtox@@YA_J_K@Z 100e7380 f i libucrtd:atox.obj
 0002:000853a0       ?minimum_signed_value@__crt_strtox@@YA_J_K@Z 100e73a0 f i libucrtd:atox.obj
 0002:000853c0       __atoi64                   100e73c0 f   libucrtd:atox.obj
 0002:000853e0       __atoi64_l                 100e73e0 f   libucrtd:atox.obj
 0002:00085410       __atoi_l                   100e7410 f   libucrtd:atox.obj
 0002:00085440       __atol_l                   100e7440 f   libucrtd:atox.obj
 0002:00085470       __atoll_l                  100e7470 f   libucrtd:atox.obj
 0002:000854a0       __wtoi                     100e74a0 f   libucrtd:atox.obj
 0002:000854c0       __wtoi64                   100e74c0 f   libucrtd:atox.obj
 0002:000854e0       __wtoi64_l                 100e74e0 f   libucrtd:atox.obj
 0002:00085510       __wtoi_l                   100e7510 f   libucrtd:atox.obj
 0002:00085540       __wtol                     100e7540 f   libucrtd:atox.obj
 0002:00085560       __wtol_l                   100e7560 f   libucrtd:atox.obj
 0002:00085590       __wtoll                    100e7590 f   libucrtd:atox.obj
 0002:000855b0       __wtoll_l                  100e75b0 f   libucrtd:atox.obj
 0002:000855e0       _atoi                      100e75e0 f   libucrtd:atox.obj
 0002:00085600       _atol                      100e7600 f   libucrtd:atox.obj
 0002:00085620       _atoll                     100e7620 f   libucrtd:atox.obj
 0002:00085640       _strncmp                   100e7640 f   libucrtd:strncmp.obj
 0002:000856e0       _wcsncmp                   100e76e0 f   libucrtd:wcsncmp.obj
 0002:00085750       _malloc                    100e7750 f   libucrtd:malloc.obj
 0002:00085770       ___acrt_initialize_sse2    100e7770 f   libucrtd:mathfcns.obj
 0002:00085790       __set_SSE2_enable          100e7790 f   libucrtd:mathfcns.obj
 0002:000857f0       __CIpow                    100e77f0 f   libucrtd:pow_impl.obj
 0002:0008582b       __CIpow_default            100e782b f   libucrtd:pow_impl.obj
 0002:00085844       __pow_default              100e7844     libucrtd:pow_impl.obj
 0002:00085ad0       __CIpow_pentium4           100e7ad0 f   libucrtd:pow_pentium4.obj
 0002:00085ae9       __pow_pentium4             100e7ae9     libucrtd:pow_pentium4.obj
 0002:000868c0       __controlfp_s              100e88c0 f   libucrtd:contrlfp.obj
 0002:000869e0       ??$?B$$A6AXH@Z@__crt_fast_encoded_nullptr_t@@QBEP6AXH@ZXZ 100e89e0 f i libucrtd:signal.obj
 0002:00086b40       ??$__crt_fast_decode_pointer@P6AXH@Z@@YAP6AXH@ZQ6AXH@Z@Z 100e8b40 f i libucrtd:signal.obj
 0002:00086b80       ??$__crt_fast_encode_pointer@P6AXH@Z@@YAP6AXH@ZQ6AXH@Z@Z 100e8b80 f i libucrtd:signal.obj
 0002:00086f00       ?initialize@?$dual_state_global@P6AXH@Z@__crt_state_management@@QAEXQ6AXH@Z@Z 100e8f00 f i libucrtd:signal.obj
 0002:000870a0       ?value@?$dual_state_global@P6AXH@Z@__crt_state_management@@QAEAAP6AXH@ZXZ 100e90a0 f i libucrtd:signal.obj
 0002:000870c0       ___acrt_get_sigabrt_handler 100e90c0 f   libucrtd:signal.obj
 0002:000870f0       ___acrt_initialize_signal_handlers 100e90f0 f   libucrtd:signal.obj
 0002:00087140       ___fpecode                 100e9140 f   libucrtd:signal.obj
 0002:00087160       ___pxcptinfoptrs           100e9160 f   libucrtd:signal.obj
 0002:00087180       _raise                     100e9180 f   libucrtd:signal.obj
 0002:00087650       _signal                    100e9650 f   libucrtd:signal.obj
 0002:00087980       ___clrfp_sse2              100e9980 f   libucrtd:fpctrl.obj
 0002:000879d0       ___ctrlfp_sse2             100e99d0 f   libucrtd:fpctrl.obj
 0002:00087a40       ___fclrf_sse2              100e9a40 f   libucrtd:fpctrl.obj
 0002:00087a70       ___get_fpsr_sse2           100e9a70 f   libucrtd:fpctrl.obj
 0002:00087aa0       ___set_fpsr_sse2           100e9aa0 f   libucrtd:fpctrl.obj
 0002:00087bb0       ___set_statfp_sse2         100e9bb0 f   libucrtd:fpctrl.obj
 0002:00087bf0       ___statfp_sse2             100e9bf0 f   libucrtd:fpctrl.obj
 0002:00087c30       __clrfp                    100e9c30 f   libucrtd:fpctrl.obj
 0002:00087c50       __ctrlfp                   100e9c50 f   libucrtd:fpctrl.obj
 0002:00087c90       __set_statfp               100e9c90 f   libucrtd:fpctrl.obj
 0002:00087d10       __statfp                   100e9d10 f   libucrtd:fpctrl.obj
 0002:00087d30       ___acrt_initialize_locks   100e9d30 f   libucrtd:locks.obj
 0002:00087db0       ___acrt_lock               100e9db0 f   libucrtd:locks.obj
 0002:00087dd0       ___acrt_uninitialize_locks 100e9dd0 f   libucrtd:locks.obj
 0002:00087e30       ___acrt_unlock             100e9e30 f   libucrtd:locks.obj
 0002:00087e50       __lock_locales             100e9e50 f   libucrtd:locks.obj
 0002:00087e70       __unlock_locales           100e9e70 f   libucrtd:locks.obj
 0002:000882a0       ___acrt_get_begin_thread_init_policy 100ea2a0 f   libucrtd:win_policies.obj
 0002:000882c0       ___acrt_get_developer_information_policy 100ea2c0 f   libucrtd:win_policies.obj
 0002:000882e0       ___acrt_get_process_end_policy 100ea2e0 f   libucrtd:win_policies.obj
 0002:00088300       ___acrt_get_windowing_model_policy 100ea300 f   libucrtd:win_policies.obj
 0002:00088320       ___acrt_errno_from_os_error 100ea320 f   libucrtd:errno.obj
 0002:000883c0       ___acrt_errno_map_os_error 100ea3c0 f   libucrtd:errno.obj
 0002:00088400       ___acrt_errno_map_os_error_ptd 100ea400 f   libucrtd:errno.obj
 0002:00088460       ___doserrno                100ea460 f   libucrtd:errno.obj
 0002:00088490       __errno                    100ea490 f   libucrtd:errno.obj
 0002:000884c0       __get_doserrno             100ea4c0 f   libucrtd:errno.obj
 0002:00088570       __get_errno                100ea570 f   libucrtd:errno.obj
 0002:00088620       __set_doserrno             100ea620 f   libucrtd:errno.obj
 0002:00088660       __set_errno                100ea660 f   libucrtd:errno.obj
 0002:000886c0       ??$?B$$A6GHPA_WKJ@Z@__crt_fast_encoded_nullptr_t@@QBEP6GHPA_WKJ@ZXZ 100ea6c0 f i libucrtd:winapi_thunks.obj
 0002:00088820       ??$__crt_fast_decode_pointer@P6GHPA_WKJ@Z@@YAP6GHPA_WKJ@ZQ6GH0KJ@Z@Z 100ea820 f i libucrtd:winapi_thunks.obj
 0002:00088860       ??$__crt_fast_decode_pointer@PAX@@YAPAXQAX@Z 100ea860 f i libucrtd:winapi_thunks.obj
 0002:000888a0       ??$__crt_fast_encode_pointer@P6GHPA_WKJ@Z@@YAP6GHPA_WKJ@ZQ6GH0KJ@Z@Z 100ea8a0 f i libucrtd:winapi_thunks.obj
 0002:00089560       _GetCurrentThreadEffectiveToken 100eb560 f i libucrtd:winapi_thunks.obj
 0002:00089570       ___acrt_AppPolicyGetProcessTerminationMethodInternal@4 100eb570 f   libucrtd:winapi_thunks.obj
 0002:000895d0       ___acrt_AppPolicyGetShowDeveloperDiagnosticInternal@4 100eb5d0 f   libucrtd:winapi_thunks.obj
 0002:00089630       ___acrt_AppPolicyGetThreadInitializationTypeInternal@4 100eb630 f   libucrtd:winapi_thunks.obj
 0002:00089690       ___acrt_AppPolicyGetWindowingModelInternal@4 100eb690 f   libucrtd:winapi_thunks.obj
 0002:000896f0       ___acrt_AreFileApisANSI@0  100eb6f0 f   libucrtd:winapi_thunks.obj
 0002:00089730       ___acrt_CompareStringEx@36 100eb730 f   libucrtd:winapi_thunks.obj
 0002:000897f0       ___acrt_EnumSystemLocalesEx@16 100eb7f0 f   libucrtd:winapi_thunks.obj
 0002:00089870       ___acrt_FlsAlloc@4         100eb870 f   libucrtd:winapi_thunks.obj
 0002:000898c0       ___acrt_FlsFree@4          100eb8c0 f   libucrtd:winapi_thunks.obj
 0002:00089920       ___acrt_FlsGetValue@4      100eb920 f   libucrtd:winapi_thunks.obj
 0002:00089980       ___acrt_FlsSetValue@8      100eb980 f   libucrtd:winapi_thunks.obj
 0002:000899e0       ___acrt_GetDateFormatEx@28 100eb9e0 f   libucrtd:winapi_thunks.obj
 0002:00089a80       ___acrt_GetEnabledXStateFeatures@0 100eba80 f   libucrtd:winapi_thunks.obj
 0002:00089ac0       ___acrt_GetLocaleInfoEx@16 100ebac0 f   libucrtd:winapi_thunks.obj
 0002:00089b40       ___acrt_GetSystemTimePreciseAsFileTime@4 100ebb40 f   libucrtd:winapi_thunks.obj
 0002:00089ba0       ___acrt_GetTimeFormatEx@24 100ebba0 f   libucrtd:winapi_thunks.obj
 0002:00089c40       ___acrt_GetUserDefaultLocaleName@8 100ebc40 f   libucrtd:winapi_thunks.obj
 0002:00089cb0       ___acrt_GetXStateFeaturesMask@8 100ebcb0 f   libucrtd:winapi_thunks.obj
 0002:00089d10       ___acrt_InitializeCriticalSectionEx@12 100ebd10 f   libucrtd:winapi_thunks.obj
 0002:00089d80       ___acrt_IsValidLocaleName@4 100ebd80 f   libucrtd:winapi_thunks.obj
 0002:00089df0       ___acrt_LCIDToLocaleName@16 100ebdf0 f   libucrtd:winapi_thunks.obj
 0002:00089e60       ___acrt_LCMapStringEx@36   100ebe60 f   libucrtd:winapi_thunks.obj
 0002:00089f00       ___acrt_LocaleNameToLCID@8 100ebf00 f   libucrtd:winapi_thunks.obj
 0002:00089f60       ___acrt_LocateXStateFeature@12 100ebf60 f   libucrtd:winapi_thunks.obj
 0002:00089fc0       ___acrt_MessageBoxA@16     100ebfc0 f   libucrtd:winapi_thunks.obj
 0002:0008a020       ___acrt_MessageBoxW@16     100ec020 f   libucrtd:winapi_thunks.obj
 0002:0008a080       ___acrt_RoInitialize@4     100ec080 f   libucrtd:winapi_thunks.obj
 0002:0008a0d0       ___acrt_RoUninitialize@0   100ec0d0 f   libucrtd:winapi_thunks.obj
 0002:0008a110       ___acrt_RtlGenRandom@8     100ec110 f   libucrtd:winapi_thunks.obj
 0002:0008a170       ___acrt_SetThreadStackGuarantee@4 100ec170 f   libucrtd:winapi_thunks.obj
 0002:0008a1c0       ___acrt_can_show_message_box 100ec1c0 f   libucrtd:winapi_thunks.obj
 0002:0008a200       ___acrt_can_use_vista_locale_apis 100ec200 f   libucrtd:winapi_thunks.obj
 0002:0008a230       ___acrt_can_use_xstate_apis 100ec230 f   libucrtd:winapi_thunks.obj
 0002:0008a260       ___acrt_eagerly_load_locale_apis 100ec260 f   libucrtd:winapi_thunks.obj
 0002:0008a2b0       ___acrt_get_parent_window  100ec2b0 f   libucrtd:winapi_thunks.obj
 0002:0008a340       ___acrt_initialize_winapi_thunks 100ec340 f   libucrtd:winapi_thunks.obj
 0002:0008a3c0       ___acrt_is_interactive     100ec3c0 f   libucrtd:winapi_thunks.obj
 0002:0008a4a0       ___acrt_uninitialize_winapi_thunks 100ec4a0 f   libucrtd:winapi_thunks.obj
 0002:0008a590       __chdrive                  100ec590 f   libucrtd:drive.obj
 0002:0008a6c0       __getdrive                 100ec6c0 f   libucrtd:drive.obj
 0002:0008a870       ??$?0$0BAE@@?$__crt_win32_buffer@_WU__crt_win32_buffer_internal_dynamic_resizing@@@@QAE@AAY0BAE@_W@Z 100ec870 f i libucrtd:fullpath.obj
 0002:0008a8d0       ??$__acrt_convert_wcs_mbs_cp@_WDV<lambda_0fec1a7b3f42a53036604e18c2d5e07e>@@U__crt_win32_buffer_no_resizing@@@@YAHQB_WAAV?$__crt_win32_buffer@DU__crt_win32_buffer_no_resizing@@@@ABV<lambda_0fec1a7b3f42a53036604e18c2d5e07e>@@I@Z 100ec8d0 f i libucrtd:fullpath.obj
 0002:0008aa60       ??$__acrt_convert_wcs_mbs_cp@_WDV<lambda_fecc33a432ccb74a901dff60d61ca385>@@U__crt_win32_buffer_public_dynamic_resizing@@@@YAHQB_WAAV?$__crt_win32_buffer@DU__crt_win32_buffer_public_dynamic_resizing@@@@ABV<lambda_fecc33a432ccb74a901dff60d61ca385>@@I@Z 100eca60 f i libucrtd:fullpath.obj
 0002:0008abf0       ??$__acrt_get_full_path_name_narrow_acp_or_utf8@U__crt_win32_buffer_no_resizing@@@@YAHQBDAAV?$__crt_win32_buffer@DU__crt_win32_buffer_no_resizing@@@@@Z 100ecbf0 f i libucrtd:fullpath.obj
 0002:0008ade0       ??$__acrt_get_full_path_name_narrow_acp_or_utf8@U__crt_win32_buffer_public_dynamic_resizing@@@@YAHQBDAAV?$__crt_win32_buffer@DU__crt_win32_buffer_public_dynamic_resizing@@@@@Z 100ecde0 f i libucrtd:fullpath.obj
 0002:0008afd0       ??$__acrt_get_full_path_name_wide@U__crt_win32_buffer_internal_dynamic_resizing@@@@YAHQB_WAAV?$__crt_win32_buffer@_WU__crt_win32_buffer_internal_dynamic_resizing@@@@@Z 100ecfd0 f i libucrtd:fullpath.obj
 0002:0008b000       ??$__acrt_get_full_path_name_wide@U__crt_win32_buffer_no_resizing@@@@YAHQB_WAAV?$__crt_win32_buffer@_WU__crt_win32_buffer_no_resizing@@@@@Z 100ed000 f i libucrtd:fullpath.obj
 0002:0008b030       ??$__acrt_get_full_path_name_wide@U__crt_win32_buffer_public_dynamic_resizing@@@@YAHQB_WAAV?$__crt_win32_buffer@_WU__crt_win32_buffer_public_dynamic_resizing@@@@@Z 100ed030 f i libucrtd:fullpath.obj
 0002:0008b060       ??$__acrt_wcs_to_mbs_cp@U__crt_win32_buffer_no_resizing@@@@YAHQB_WAAV?$__crt_win32_buffer@DU__crt_win32_buffer_no_resizing@@@@I@Z 100ed060 f i libucrtd:fullpath.obj
 0002:0008b090       ??$__acrt_wcs_to_mbs_cp@U__crt_win32_buffer_public_dynamic_resizing@@@@YAHQB_WAAV?$__crt_win32_buffer@DU__crt_win32_buffer_public_dynamic_resizing@@@@I@Z 100ed090 f i libucrtd:fullpath.obj
 0002:0008b0c0       ??$call_win32_function@V<lambda_0d87af4cf61654f651d26e3c6a4f13fc>@@@?$__crt_win32_buffer@_WU__crt_win32_buffer_public_dynamic_resizing@@@@QAEHABV<lambda_0d87af4cf61654f651d26e3c6a4f13fc>@@@Z 100ed0c0 f i libucrtd:fullpath.obj
 0002:0008b1c0       ??$call_win32_function@V<lambda_33d632c04396b3de813369f94278cf6d>@@@?$__crt_win32_buffer@_WU__crt_win32_buffer_no_resizing@@@@QAEHABV<lambda_33d632c04396b3de813369f94278cf6d>@@@Z 100ed1c0 f i libucrtd:fullpath.obj
 0002:0008b2c0       ??$call_win32_function@V<lambda_44f1df80ccead0226c26eac3423fba1d>@@@?$__crt_win32_buffer@_WU__crt_win32_buffer_internal_dynamic_resizing@@@@QAEHABV<lambda_44f1df80ccead0226c26eac3423fba1d>@@@Z 100ed2c0 f i libucrtd:fullpath.obj
 0002:0008b6a0       ??$get_full_path_name@ABQBDAAV?$__crt_win32_buffer@DU__crt_win32_buffer_no_resizing@@@@@?$__crt_char_traits@D@@SAHABQBDAAV?$__crt_win32_buffer@DU__crt_win32_buffer_no_resizing@@@@@Z 100ed6a0 f i libucrtd:fullpath.obj
 0002:0008b700       ??$get_full_path_name@ABQBDAAV?$__crt_win32_buffer@DU__crt_win32_buffer_public_dynamic_resizing@@@@@?$__crt_char_traits@D@@SAHABQBDAAV?$__crt_win32_buffer@DU__crt_win32_buffer_public_dynamic_resizing@@@@@Z 100ed700 f i libucrtd:fullpath.obj
 0002:0008b760       ??$get_full_path_name@ABQB_WAAV?$__crt_win32_buffer@_WU__crt_win32_buffer_no_resizing@@@@@?$__crt_char_traits@_W@@SAHABQB_WAAV?$__crt_win32_buffer@_WU__crt_win32_buffer_no_resizing@@@@@Z 100ed760 f i libucrtd:fullpath.obj
 0002:0008b7c0       ??$get_full_path_name@ABQB_WAAV?$__crt_win32_buffer@_WU__crt_win32_buffer_public_dynamic_resizing@@@@@?$__crt_char_traits@_W@@SAHABQB_WAAV?$__crt_win32_buffer@_WU__crt_win32_buffer_public_dynamic_resizing@@@@@Z 100ed7c0 f i libucrtd:fullpath.obj
 0002:0008b820       ??$tgetcwd@ABQADH@?$__crt_char_traits@D@@SAPADABQAD$$QAH@Z 100ed820 f i libucrtd:fullpath.obj
 0002:0008b850       ??$tgetcwd@ABQA_WH@?$__crt_char_traits@_W@@SAPA_WABQA_W$$QAH@Z 100ed850 f i libucrtd:fullpath.obj
 0002:0008b880       ??0<lambda_0d87af4cf61654f651d26e3c6a4f13fc>@@QAE@ABQB_W@Z 100ed880 f i libucrtd:fullpath.obj
 0002:0008b8b0       ??0<lambda_33d632c04396b3de813369f94278cf6d>@@QAE@ABQB_W@Z 100ed8b0 f i libucrtd:fullpath.obj
 0002:0008b8e0       ??0<lambda_44f1df80ccead0226c26eac3423fba1d>@@QAE@ABQB_W@Z 100ed8e0 f i libucrtd:fullpath.obj
 0002:0008b910       ??0?$__crt_win32_buffer@DU__crt_win32_buffer_no_resizing@@@@QAE@QADI@Z 100ed910 f i libucrtd:fullpath.obj
 0002:0008b970       ??0?$__crt_win32_buffer@DU__crt_win32_buffer_public_dynamic_resizing@@@@QAE@ABV__crt_win32_buffer_debug_info@@@Z 100ed970 f i libucrtd:fullpath.obj
 0002:0008b9f0       ??0?$__crt_win32_buffer@_WU__crt_win32_buffer_no_resizing@@@@QAE@QA_WI@Z 100ed9f0 f i libucrtd:fullpath.obj
 0002:0008ba50       ??0?$__crt_win32_buffer@_WU__crt_win32_buffer_public_dynamic_resizing@@@@QAE@ABV__crt_win32_buffer_debug_info@@@Z 100eda50 f i libucrtd:fullpath.obj
 0002:0008bad0       ??0__crt_win32_buffer_debug_info@@QAE@HQBDH@Z 100edad0 f i libucrtd:fullpath.obj
 0002:0008bb10       ??1?$__crt_win32_buffer@DU__crt_win32_buffer_no_resizing@@@@QAE@XZ 100edb10 f i libucrtd:fullpath.obj
 0002:0008bb70       ??1?$__crt_win32_buffer@DU__crt_win32_buffer_public_dynamic_resizing@@@@QAE@XZ 100edb70 f i libucrtd:fullpath.obj
 0002:0008bbd0       ??1?$__crt_win32_buffer@_WU__crt_win32_buffer_no_resizing@@@@QAE@XZ 100edbd0 f i libucrtd:fullpath.obj
 0002:0008bc30       ??1?$__crt_win32_buffer@_WU__crt_win32_buffer_public_dynamic_resizing@@@@QAE@XZ 100edc30 f i libucrtd:fullpath.obj
 0002:0008bc90       ??R<lambda_0d87af4cf61654f651d26e3c6a4f13fc>@@QBEKPA_WK@Z 100edc90 f i libucrtd:fullpath.obj
 0002:0008bcc0       ??R<lambda_0fec1a7b3f42a53036604e18c2d5e07e>@@QBEHIQB_WQADI@Z 100edcc0 f i libucrtd:fullpath.obj
 0002:0008bd00       ??R<lambda_33d632c04396b3de813369f94278cf6d>@@QBEKPA_WK@Z 100edd00 f i libucrtd:fullpath.obj
 0002:0008bd30       ??R<lambda_44f1df80ccead0226c26eac3423fba1d>@@QBEKPA_WK@Z 100edd30 f i libucrtd:fullpath.obj
 0002:0008bd60       ??R<lambda_fecc33a432ccb74a901dff60d61ca385>@@QBEHIQB_WQADI@Z 100edd60 f i libucrtd:fullpath.obj
 0002:0008bda0       ?_deallocate@?$__crt_win32_buffer@DU__crt_win32_buffer_no_resizing@@@@AAEXXZ 100edda0 f i libucrtd:fullpath.obj
 0002:0008be00       ?_deallocate@?$__crt_win32_buffer@DU__crt_win32_buffer_public_dynamic_resizing@@@@AAEXXZ 100ede00 f i libucrtd:fullpath.obj
 0002:0008be60       ?_deallocate@?$__crt_win32_buffer@_WU__crt_win32_buffer_no_resizing@@@@AAEXXZ 100ede60 f i libucrtd:fullpath.obj
 0002:0008bec0       ?_deallocate@?$__crt_win32_buffer@_WU__crt_win32_buffer_public_dynamic_resizing@@@@AAEXXZ 100edec0 f i libucrtd:fullpath.obj
 0002:0008bf20       ?_reset_no_dealloc@?$__crt_win32_buffer@DU__crt_win32_buffer_public_dynamic_resizing@@@@AAEXXZ 100edf20 f i libucrtd:fullpath.obj
 0002:0008bf60       ?_reset_no_dealloc@?$__crt_win32_buffer@_WU__crt_win32_buffer_public_dynamic_resizing@@@@AAEXXZ 100edf60 f i libucrtd:fullpath.obj
 0002:0008bfa0       ?allocate@?$__crt_win32_buffer@DU__crt_win32_buffer_no_resizing@@@@QAEHI@Z 100edfa0 f i libucrtd:fullpath.obj
 0002:0008c020       ?allocate@?$__crt_win32_buffer@DU__crt_win32_buffer_public_dynamic_resizing@@@@QAEHI@Z 100ee020 f i libucrtd:fullpath.obj
 0002:0008c0a0       ?allocate@?$__crt_win32_buffer@_WU__crt_win32_buffer_no_resizing@@@@QAEHI@Z 100ee0a0 f i libucrtd:fullpath.obj
 0002:0008c130       ?allocate@?$__crt_win32_buffer@_WU__crt_win32_buffer_public_dynamic_resizing@@@@QAEHI@Z 100ee130 f i libucrtd:fullpath.obj
 0002:0008c1c0       ?allocate@__crt_win32_buffer_no_resizing@@SAHQAPAXIABV__crt_win32_buffer_empty_debug_info@@@Z 100ee1c0 f i libucrtd:fullpath.obj
 0002:0008c1e0       ?allocate@__crt_win32_buffer_public_dynamic_resizing@@SAHQAPAXIABV__crt_win32_buffer_debug_info@@@Z 100ee1e0 f i libucrtd:fullpath.obj
 0002:0008c260       ?block_use@__crt_win32_buffer_debug_info@@QBEHXZ 100ee260 f i libucrtd:fullpath.obj
 0002:0008c280       ?capacity@?$__crt_win32_buffer@DU__crt_win32_buffer_no_resizing@@@@QBEIXZ 100ee280 f i libucrtd:fullpath.obj
 0002:0008c2a0       ?capacity@?$__crt_win32_buffer@DU__crt_win32_buffer_public_dynamic_resizing@@@@QBEIXZ 100ee2a0 f i libucrtd:fullpath.obj
 0002:0008c2c0       ?data@?$__crt_win32_buffer@DU__crt_win32_buffer_no_resizing@@@@QAEPADXZ 100ee2c0 f i libucrtd:fullpath.obj
 0002:0008c2e0       ?data@?$__crt_win32_buffer@DU__crt_win32_buffer_public_dynamic_resizing@@@@QAEPADXZ 100ee2e0 f i libucrtd:fullpath.obj
 0002:0008c300       ?deallocate@__crt_win32_buffer_no_resizing@@SAXQAXABV__crt_win32_buffer_empty_debug_info@@@Z 100ee300 f i libucrtd:fullpath.obj
 0002:0008c310       ?deallocate@__crt_win32_buffer_public_dynamic_resizing@@SAXQAXABV__crt_win32_buffer_debug_info@@@Z 100ee310 f i libucrtd:fullpath.obj
 0002:0008c340       ?debug_info@?$__crt_win32_buffer@DU__crt_win32_buffer_no_resizing@@@@QBEABV__crt_win32_buffer_empty_debug_info@@XZ 100ee340 f i libucrtd:fullpath.obj
 0002:0008c360       ?debug_info@?$__crt_win32_buffer@DU__crt_win32_buffer_public_dynamic_resizing@@@@QBEABV__crt_win32_buffer_debug_info@@XZ 100ee360 f i libucrtd:fullpath.obj
 0002:0008c380       ?debug_info@?$__crt_win32_buffer@_WU__crt_win32_buffer_no_resizing@@@@QBEABV__crt_win32_buffer_empty_debug_info@@XZ 100ee380 f i libucrtd:fullpath.obj
 0002:0008c3a0       ?debug_info@?$__crt_win32_buffer@_WU__crt_win32_buffer_public_dynamic_resizing@@@@QBEABV__crt_win32_buffer_debug_info@@XZ 100ee3a0 f i libucrtd:fullpath.obj
 0002:0008c3c0       ?detach@?$__crt_win32_buffer@DU__crt_win32_buffer_public_dynamic_resizing@@@@QAEPADXZ 100ee3c0 f i libucrtd:fullpath.obj
 0002:0008c490       ?detach@?$__crt_win32_buffer@_WU__crt_win32_buffer_public_dynamic_resizing@@@@QAEPA_WXZ 100ee490 f i libucrtd:fullpath.obj
 0002:0008c560       ?file_name@__crt_win32_buffer_debug_info@@QBEPBDXZ 100ee560 f i libucrtd:fullpath.obj
 0002:0008c580       ?line_number@__crt_win32_buffer_debug_info@@QBEHXZ 100ee580 f i libucrtd:fullpath.obj
 0002:0008c5a0       ?set_to_nullptr@?$__crt_win32_buffer@DU__crt_win32_buffer_no_resizing@@@@QAEXXZ 100ee5a0 f i libucrtd:fullpath.obj
 0002:0008c5e0       ?set_to_nullptr@?$__crt_win32_buffer@DU__crt_win32_buffer_public_dynamic_resizing@@@@QAEXXZ 100ee5e0 f i libucrtd:fullpath.obj
 0002:0008c620       ?size@?$__crt_win32_buffer@DU__crt_win32_buffer_no_resizing@@@@QAEXI@Z 100ee620 f i libucrtd:fullpath.obj
 0002:0008c640       ?size@?$__crt_win32_buffer@DU__crt_win32_buffer_public_dynamic_resizing@@@@QAEXI@Z 100ee640 f i libucrtd:fullpath.obj
 0002:0008c660       __fullpath                 100ee660 f   libucrtd:fullpath.obj
 0002:0008c690       __fullpath_dbg             100ee690 f   libucrtd:fullpath.obj
 0002:0008c6c0       __wfullpath                100ee6c0 f   libucrtd:fullpath.obj
 0002:0008c6f0       __wfullpath_dbg            100ee6f0 f   libucrtd:fullpath.obj
 0002:0008d8b0       ??1?$__crt_simd_cleanup_guard@$00@@QAE@XZ 100ef8b0 f i libucrtd:strnlen.obj
 0002:0008d8d0       ??1?$__crt_simd_cleanup_guard@$0A@@@QAE@XZ 100ef8d0 f i libucrtd:strnlen.obj
 0002:0008d8e0       ?compare_equals@?$__crt_simd_traits@$00E@@SA?AT__m256i@@T2@0@Z 100ef8e0 f i libucrtd:strnlen.obj
 0002:0008d930       ?compare_equals@?$__crt_simd_traits@$00G@@SA?AT__m256i@@T2@0@Z 100ef930 f i libucrtd:strnlen.obj
 0002:0008d980       ?compare_equals@?$__crt_simd_traits@$0A@E@@SA?AT__m128i@@T2@0@Z 100ef980 f i libucrtd:strnlen.obj
 0002:0008d9d0       ?compare_equals@?$__crt_simd_traits@$0A@G@@SA?AT__m128i@@T2@0@Z 100ef9d0 f i libucrtd:strnlen.obj
 0002:0008da20       ?compute_byte_mask@?$__crt_simd_pack_traits@$00@@SAHT__m256i@@@Z 100efa20 f i libucrtd:strnlen.obj
 0002:0008da60       ?compute_byte_mask@?$__crt_simd_pack_traits@$0A@@@SAHT__m128i@@@Z 100efa60 f i libucrtd:strnlen.obj
 0002:0008daa0       ?get_zero_pack@?$__crt_simd_pack_traits@$00@@SA?AT__m256i@@XZ 100efaa0 f i libucrtd:strnlen.obj
 0002:0008dae0       ?get_zero_pack@?$__crt_simd_pack_traits@$0A@@@SA?AT__m128i@@XZ 100efae0 f i libucrtd:strnlen.obj
 0002:0008db20       _strnlen                   100efb20 f   libucrtd:strnlen.obj
 0002:0008db40       _wcslen                    100efb40 f   libucrtd:strnlen.obj
 0002:0008db60       _wcsnlen                   100efb60 f   libucrtd:strnlen.obj
 0002:0008db80       _wcspbrk                   100efb80 f   libucrtd:wcspbrk.obj
 0002:0008dc00       ___ascii_wcsicmp           100efc00 f   libucrtd:wcsicmp.obj
 0002:0008dc90       __towlower_fast_internal   100efc90 f i libucrtd:wcsicmp.obj
 0002:0008dce0       __towlower_internal        100efce0 f i libucrtd:wcsicmp.obj
 0002:0008dd30       __wcsicmp                  100efd30 f   libucrtd:wcsicmp.obj
 0002:0008deb0       __wcsicmp_l                100efeb0 f   libucrtd:wcsicmp.obj
 0002:0008e200       ___acrt_MultiByteToWideChar 100f0200 f   libucrtd:multibytetowidechar.obj
 0002:0008e260       ??$?RU__acrt_ptd@@@__crt_internal_free_policy@@QBEXQBU__acrt_ptd@@@Z 100f0260 f i libucrtd:per_thread_data.obj
 0002:0008e960       ??0?$__crt_unique_heap_ptr@U__acrt_ptd@@U__crt_internal_free_policy@@@@QAE@QAU__acrt_ptd@@@Z 100f0960 f i libucrtd:per_thread_data.obj
 0002:0008e980       ??1?$__crt_unique_heap_ptr@U__acrt_ptd@@U__crt_internal_free_policy@@@@QAE@XZ 100f0980 f i libucrtd:per_thread_data.obj
 0002:0008e9a0       ??B?$__crt_unique_heap_ptr@U__acrt_ptd@@U__crt_internal_free_policy@@@@QBE_NXZ 100f09a0 f i libucrtd:per_thread_data.obj
 0002:0008eda0       ?dangerous_get_state_array@?$dual_state_global@PAU__crt_locale_data@@@__crt_state_management@@QAEPAPAU__crt_locale_data@@XZ 100f0da0 f i libucrtd:per_thread_data.obj
 0002:0008efc0       ?detach@?$__crt_unique_heap_ptr@U__acrt_ptd@@U__crt_internal_free_policy@@@@QAEPAU__acrt_ptd@@XZ 100f0fc0 f i libucrtd:per_thread_data.obj
 0002:0008eff0       ?get@?$__crt_unique_heap_ptr@U__acrt_ptd@@U__crt_internal_free_policy@@@@QBEPAU__acrt_ptd@@XZ 100f0ff0 f i libucrtd:per_thread_data.obj
 0002:0008f1e0       ?is_valid@?$__crt_unique_heap_ptr@U__acrt_ptd@@U__crt_internal_free_policy@@@@QBE_NXZ 100f11e0 f i libucrtd:per_thread_data.obj
 0002:0008f220       ?release@?$__crt_unique_heap_ptr@U__acrt_ptd@@U__crt_internal_free_policy@@@@QAEXXZ 100f1220 f i libucrtd:per_thread_data.obj
 0002:0008f330       ?value@?$dual_state_global@PAU__crt_locale_data@@@__crt_state_management@@QAEAAPAU__crt_locale_data@@XZ 100f1330 f i libucrtd:per_thread_data.obj
 0002:0008f350       ___acrt_freeptd            100f1350 f   libucrtd:per_thread_data.obj
 0002:0008f390       ___acrt_getptd             100f1390 f   libucrtd:per_thread_data.obj
 0002:0008f3c0       ___acrt_getptd_head        100f13c0 f   libucrtd:per_thread_data.obj
 0002:0008f3f0       ___acrt_getptd_noexit      100f13f0 f   libucrtd:per_thread_data.obj
 0002:0008f400       ___acrt_getptd_noexit_explicit 100f1400 f   libucrtd:per_thread_data.obj
 0002:0008f420       ___acrt_initialize_ptd     100f1420 f   libucrtd:per_thread_data.obj
 0002:0008f470       ___acrt_uninitialize_ptd   100f1470 f   libucrtd:per_thread_data.obj
 0002:0008f4a0       ___threadhandle            100f14a0 f   libucrtd:per_thread_data.obj
 0002:0008f4b0       ___threadid                100f14b0 f   libucrtd:per_thread_data.obj
 0002:0008f4c0       ?value@?$dual_state_global@PAU__crt_multibyte_data@@@__crt_state_management@@QAEAAPAU__crt_multibyte_data@@XZ 100f14c0 f i libucrtd:locale_update.obj
 0002:0008f4e0       ?value_explicit@?$dual_state_global@PAU__crt_locale_data@@@__crt_state_management@@QAEAAPAU__crt_locale_data@@I@Z 100f14e0 f i libucrtd:locale_update.obj
 0002:0008f500       ?value_explicit@?$dual_state_global@PAU__crt_multibyte_data@@@__crt_state_management@@QAEAAPAU__crt_multibyte_data@@I@Z 100f1500 f i libucrtd:locale_update.obj
 0002:0008f520       ___acrt_should_sync_with_global_locale 100f1520 f i libucrtd:locale_update.obj
 0002:0008f560       ___acrt_update_locale_info 100f1560 f   libucrtd:locale_update.obj
 0002:0008f5b0       ___acrt_update_locale_info_explicit 100f15b0 f   libucrtd:locale_update.obj
 0002:0008f600       ___acrt_update_multibyte_info 100f1600 f   libucrtd:locale_update.obj
 0002:0008f650       ___acrt_update_multibyte_info_explicit 100f1650 f   libucrtd:locale_update.obj
 0002:0008f6a0       ??$?RU__crt_lowio_handle_data@@@__crt_internal_free_policy@@QBEXQBU__crt_lowio_handle_data@@@Z 100f16a0 f i libucrtd:osfinfo.obj
 0002:0008f6d0       ??0?$__crt_unique_heap_ptr@U__crt_lowio_handle_data@@U__crt_internal_free_policy@@@@QAE@QAU__crt_lowio_handle_data@@@Z 100f16d0 f i libucrtd:osfinfo.obj
 0002:0008f6f0       ??1?$__crt_unique_heap_ptr@U__crt_lowio_handle_data@@U__crt_internal_free_policy@@@@QAE@XZ 100f16f0 f i libucrtd:osfinfo.obj
 0002:0008f710       ??B?$__crt_unique_heap_ptr@U__crt_lowio_handle_data@@U__crt_internal_free_policy@@@@QBE_NXZ 100f1710 f i libucrtd:osfinfo.obj
 0002:0008f730       ?detach@?$__crt_unique_heap_ptr@U__crt_lowio_handle_data@@U__crt_internal_free_policy@@@@QAEPAU__crt_lowio_handle_data@@XZ 100f1730 f i libucrtd:osfinfo.obj
 0002:0008f760       ?get@?$__crt_unique_heap_ptr@U__crt_lowio_handle_data@@U__crt_internal_free_policy@@@@QBEPAU__crt_lowio_handle_data@@XZ 100f1760 f i libucrtd:osfinfo.obj
 0002:0008f780       ?is_valid@?$__crt_unique_heap_ptr@U__crt_lowio_handle_data@@U__crt_internal_free_policy@@@@QBE_NXZ 100f1780 f i libucrtd:osfinfo.obj
 0002:0008f7c0       ?release@?$__crt_unique_heap_ptr@U__crt_lowio_handle_data@@U__crt_internal_free_policy@@@@QAEXXZ 100f17c0 f i libucrtd:osfinfo.obj
 0002:0008f7f0       ___acrt_lowio_create_handle_array 100f17f0 f   libucrtd:osfinfo.obj
 0002:0008f9a0       ___acrt_lowio_destroy_handle_array 100f19a0 f   libucrtd:osfinfo.obj
 0002:0008fa10       ___acrt_lowio_ensure_fh_exists 100f1a10 f   libucrtd:osfinfo.obj
 0002:0008fbc0       ___acrt_lowio_lock_fh      100f1bc0 f   libucrtd:osfinfo.obj
 0002:0008fbf0       ___acrt_lowio_set_os_handle 100f1bf0 f   libucrtd:osfinfo.obj
 0002:0008fd00       ___acrt_lowio_unlock_fh    100f1d00 f   libucrtd:osfinfo.obj
 0002:0008fd30       __alloc_osfhnd             100f1d30 f   libucrtd:osfinfo.obj
 0002:0008ff80       __free_osfhnd              100f1f80 f   libucrtd:osfinfo.obj
 0002:000900a0       __get_osfhandle            100f20a0 f   libucrtd:osfinfo.obj
 0002:00090280       __open_osfhandle           100f2280 f   libucrtd:osfinfo.obj
 0002:00090500       ??$__crt_time_elapsed_leap_years@H@@YAHH@Z 100f2500 f i libucrtd:loctotime.obj
 0002:00090560       ??$__crt_time_is_leap_year@H@@YA_NH@Z 100f2560 f i libucrtd:loctotime.obj
 0002:00090cc0       ?__crt_time_is_day_valid@@YA_NHHH@Z 100f2cc0 f i libucrtd:loctotime.obj
 0002:00090d40       ___loctotime32_t           100f2d40 f   libucrtd:loctotime.obj
 0002:00090d80       ___loctotime64_t           100f2d80 f   libucrtd:loctotime.obj
 0002:00090dd0       ??$?RU__crt_locale_data@@@__crt_internal_free_policy@@QBEXQBU__crt_locale_data@@@Z 100f2dd0 f i libucrtd:wsetlocale.obj
 0002:00090e00       ??$?RU__crt_locale_pointers@@@__crt_internal_free_policy@@QBEXQBU__crt_locale_pointers@@@Z 100f2e00 f i libucrtd:wsetlocale.obj
 0002:00090e30       ??$?RU__crt_multibyte_data@@@__crt_internal_free_policy@@QBEXQBU__crt_multibyte_data@@@Z 100f2e30 f i libucrtd:wsetlocale.obj
 0002:00091700       ??0?$__crt_unique_heap_ptr@U__crt_locale_data@@U__crt_internal_free_policy@@@@QAE@QAU__crt_locale_data@@@Z 100f3700 f i libucrtd:wsetlocale.obj
 0002:00091720       ??0?$__crt_unique_heap_ptr@U__crt_locale_pointers@@U__crt_internal_free_policy@@@@QAE@QAU__crt_locale_pointers@@@Z 100f3720 f i libucrtd:wsetlocale.obj
 0002:00091740       ??0?$__crt_unique_heap_ptr@U__crt_multibyte_data@@U__crt_internal_free_policy@@@@QAE@QAU__crt_multibyte_data@@@Z 100f3740 f i libucrtd:wsetlocale.obj
 0002:00091760       ??0_expandlocale_locale_name_cache@@QAE@QA_WIQAU__crt_qualified_locale_data@@@Z 100f3760 f i libucrtd:wsetlocale.obj
 0002:000917f0       ??1?$__crt_unique_heap_ptr@U__crt_locale_data@@U__crt_internal_free_policy@@@@QAE@XZ 100f37f0 f i libucrtd:wsetlocale.obj
 0002:00091810       ??1?$__crt_unique_heap_ptr@U__crt_locale_pointers@@U__crt_internal_free_policy@@@@QAE@XZ 100f3810 f i libucrtd:wsetlocale.obj
 0002:00091830       ??1?$__crt_unique_heap_ptr@U__crt_multibyte_data@@U__crt_internal_free_policy@@@@QAE@XZ 100f3830 f i libucrtd:wsetlocale.obj
 0002:00091850       ??1_expandlocale_locale_name_cache@@QAE@XZ 100f3850 f i libucrtd:wsetlocale.obj
 0002:000918d0       ??B?$__crt_unique_heap_ptr@U__crt_locale_data@@U__crt_internal_free_policy@@@@QBE_NXZ 100f38d0 f i libucrtd:wsetlocale.obj
 0002:000918f0       ??B?$__crt_unique_heap_ptr@U__crt_locale_pointers@@U__crt_internal_free_policy@@@@QBE_NXZ 100f38f0 f i libucrtd:wsetlocale.obj
 0002:00091910       ??B?$__crt_unique_heap_ptr@U__crt_multibyte_data@@U__crt_internal_free_policy@@@@QBE_NXZ 100f3910 f i libucrtd:wsetlocale.obj
 0002:00091e20       ?commit_locale_name@_expandlocale_locale_name_cache@@QAEXQB_WI@Z 100f3e20 f i libucrtd:wsetlocale.obj
 0002:00091ea0       ?commit_locale_name_cache_already_updated@_expandlocale_locale_name_cache@@QAEXQB_WI@Z 100f3ea0 f i libucrtd:wsetlocale.obj
 0002:00091f10       ?detach@?$__crt_unique_heap_ptr@U__crt_locale_data@@U__crt_internal_free_policy@@@@QAEPAU__crt_locale_data@@XZ 100f3f10 f i libucrtd:wsetlocale.obj
 0002:00091f40       ?detach@?$__crt_unique_heap_ptr@U__crt_locale_pointers@@U__crt_internal_free_policy@@@@QAEPAU__crt_locale_pointers@@XZ 100f3f40 f i libucrtd:wsetlocale.obj
 0002:00091f70       ?detach@?$__crt_unique_heap_ptr@U__crt_multibyte_data@@U__crt_internal_free_policy@@@@QAEPAU__crt_multibyte_data@@XZ 100f3f70 f i libucrtd:wsetlocale.obj
 0002:00091fa0       ?get@?$__crt_unique_heap_ptr@U__crt_locale_data@@U__crt_internal_free_policy@@@@QBEPAU__crt_locale_data@@XZ 100f3fa0 f i libucrtd:wsetlocale.obj
 0002:00091fc0       ?get@?$__crt_unique_heap_ptr@U__crt_locale_pointers@@U__crt_internal_free_policy@@@@QBEPAU__crt_locale_pointers@@XZ 100f3fc0 f i libucrtd:wsetlocale.obj
 0002:00091fe0       ?get@?$__crt_unique_heap_ptr@U__crt_multibyte_data@@U__crt_internal_free_policy@@@@QBEPAU__crt_multibyte_data@@XZ 100f3fe0 f i libucrtd:wsetlocale.obj
 0002:00092000       ?is_valid@?$__crt_unique_heap_ptr@U__crt_locale_data@@U__crt_internal_free_policy@@@@QBE_NXZ 100f4000 f i libucrtd:wsetlocale.obj
 0002:00092040       ?is_valid@?$__crt_unique_heap_ptr@U__crt_locale_pointers@@U__crt_internal_free_policy@@@@QBE_NXZ 100f4040 f i libucrtd:wsetlocale.obj
 0002:00092080       ?is_valid@?$__crt_unique_heap_ptr@U__crt_multibyte_data@@U__crt_internal_free_policy@@@@QBE_NXZ 100f4080 f i libucrtd:wsetlocale.obj
 0002:000920c0       ?release@?$__crt_unique_heap_ptr@U__crt_locale_data@@U__crt_internal_free_policy@@@@QAEXXZ 100f40c0 f i libucrtd:wsetlocale.obj
 0002:000920f0       ?release@?$__crt_unique_heap_ptr@U__crt_locale_pointers@@U__crt_internal_free_policy@@@@QAEXXZ 100f40f0 f i libucrtd:wsetlocale.obj
 0002:00092120       ?release@?$__crt_unique_heap_ptr@U__crt_multibyte_data@@U__crt_internal_free_policy@@@@QAEXXZ 100f4120 f i libucrtd:wsetlocale.obj
 0002:00092150       ___acrt_copy_locale_name   100f4150 f   libucrtd:wsetlocale.obj
 0002:00092220       ___acrt_set_locale_changed 100f4220 f   libucrtd:wsetlocale.obj
 0002:00092240       ___acrt_uninitialize_locale 100f4240 f   libucrtd:wsetlocale.obj
 0002:00092270       ___lc_lctowcs              100f4270 f   libucrtd:wsetlocale.obj
 0002:00092350       ___lc_wcstolc              100f4350 f   libucrtd:wsetlocale.obj
 0002:00092610       __configthreadlocale       100f4610 f   libucrtd:wsetlocale.obj
 0002:000927e0       __create_locale            100f47e0 f   libucrtd:wsetlocale.obj
 0002:00092fa0       __free_locale              100f4fa0 f   libucrtd:wsetlocale.obj
 0002:00093120       __get_current_locale       100f5120 f   libucrtd:wsetlocale.obj
 0002:00093230       __wcreate_locale           100f5230 f   libucrtd:wsetlocale.obj
 0002:00093510       __wcscats                  100f5510 f   libucrtd:wsetlocale.obj
 0002:000935b0       __wsetlocale               100f55b0 f   libucrtd:wsetlocale.obj
 0002:00095260       ___p___mb_cur_max          100f7260 f   libucrtd:nlsdata.obj
 0002:00095610       ___acrt_initialize_lowio   100f7610 f   libucrtd:ioinit.obj
 0002:000956d0       ___acrt_uninitialize_lowio 100f76d0 f   libucrtd:ioinit.obj
 0002:00095740       ??0__crt_stdio_stream@@QAE@QAU__crt_stdio_stream_data@@@Z 100f7740 f i libucrtd:closeall.obj
 0002:00095760       ?is_in_use@__crt_stdio_stream@@QBE_NXZ 100f7760 f i libucrtd:closeall.obj
 0002:000957a0       __fcloseall                100f77a0 f   libucrtd:closeall.obj
 0002:00096180       ?__acrt_stdio_reset_buffer@@YAXV__crt_stdio_stream@@@Z 100f8180 f i libucrtd:fflush.obj
 0002:000963b0       ?has_all_of@__crt_stdio_stream@@QBE_NJ@Z 100f83b0 f i libucrtd:fflush.obj
 0002:000964a0       ?set_flags@__crt_stdio_stream@@QBE_NJ@Z 100f84a0 f i libucrtd:fflush.obj
 0002:00096500       ?unset_flags@__crt_stdio_stream@@QBE_NJ@Z 100f8500 f i libucrtd:fflush.obj
 0002:00096560       ___acrt_stdio_flush_nolock 100f8560 f   libucrtd:fflush.obj
 0002:00096670       __fflush_nolock            100f8670 f   libucrtd:fflush.obj
 0002:000966c0       __flushall                 100f86c0 f   libucrtd:fflush.obj
 0002:000966e0       _fflush                    100f86e0 f   libucrtd:fflush.obj
 0002:00096780       ?has_any_of@__crt_stdio_stream@@QBE_NJ@Z 100f8780 f i libucrtd:_freebuf.obj
 0002:000967c0       ?has_crt_buffer@__crt_stdio_stream@@QBE_NXZ 100f87c0 f i libucrtd:_freebuf.obj
 0002:000967e0       ___acrt_stdio_free_buffer_nolock 100f87e0 f   libucrtd:_freebuf.obj
 0002:000968c0       __CrtGetDebugFillThreshold 100f88c0 f   libucrtd:debug_fill_threshold.obj
 0002:000968d0       __CrtSetDebugFillThreshold 100f88d0 f   libucrtd:debug_fill_threshold.obj
 0002:00096900       ?__acrt_fp_classify@@YA?AW4__acrt_fp_class@@ABN@Z 100f8900 f i libucrtd:cvt.obj
 0002:00096a60       ?__acrt_fp_is_negative@@YA_NABN@Z 100f8a60 f i libucrtd:cvt.obj
 0002:000980e0       ?strrchr@@YAPADQADH@Z      100fa0e0 f i libucrtd:cvt.obj
 0002:00098100       ___acrt_fp_format          100fa100 f   libucrtd:cvt.obj
 0002:000986a0       ?value_or@?$cached@H@__crt_cached_ptd_host@@QBEHH@Z 100fa6a0 f i libucrtd:wctomb.obj
 0002:000986d0       __wctomb_internal          100fa6d0 f   libucrtd:wctomb.obj
 0002:00098b30       __wctomb_l                 100fab30 f   libucrtd:wctomb.obj
 0002:00098bd0       __wctomb_s_l               100fabd0 f   libucrtd:wctomb.obj
 0002:00098c30       _wctomb                    100fac30 f   libucrtd:wctomb.obj
 0002:00098cc0       _wctomb_s                  100facc0 f   libucrtd:wctomb.obj
 0002:00098d20       __mbtowc_internal          100fad20 f   libucrtd:mbtowc.obj
 0002:00099050       __mbtowc_l                 100fb050 f   libucrtd:mbtowc.obj
 0002:000990a0       _mbtowc                    100fb0a0 f   libucrtd:mbtowc.obj
 0002:000990f0       ?lowio_handle@__crt_stdio_stream@@QBEHXZ 100fb0f0 f i libucrtd:fileno.obj
 0002:00099120       __fileno                   100fb120 f   libucrtd:fileno.obj
 0002:000991f0       __get_printf_count_output  100fb1f0 f   libucrtd:printf_count_output.obj
 0002:00099230       __set_printf_count_output  100fb230 f   libucrtd:printf_count_output.obj
 0002:000994b0       __fputwc_nolock            100fb4b0 f   libucrtd:fputwc.obj
 0002:00099500       __fputwc_nolock_internal   100fb500 f   libucrtd:fputwc.obj
 0002:00099790       __fputwchar                100fb790 f   libucrtd:fputwc.obj
 0002:000997c0       __putwc_nolock             100fb7c0 f   libucrtd:fputwc.obj
 0002:000997e0       _fputwc                    100fb7e0 f   libucrtd:fputwc.obj
 0002:00099830       _putwc                     100fb830 f   libucrtd:fputwc.obj
 0002:00099850       _putwchar                  100fb850 f   libucrtd:fputwc.obj
 0002:00099b60       __fputc_nolock             100fbb60 f   libucrtd:fputc.obj
 0002:00099bb0       __fputc_nolock_internal    100fbbb0 f   libucrtd:fputc.obj
 0002:00099c60       __fputchar                 100fbc60 f   libucrtd:fputc.obj
 0002:00099c90       __putc_nolock              100fbc90 f   libucrtd:fputc.obj
 0002:00099cb0       _fputc                     100fbcb0 f   libucrtd:fputc.obj
 0002:00099d00       _putc                      100fbd00 f   libucrtd:fputc.obj
 0002:00099d20       _putchar                   100fbd20 f   libucrtd:fputc.obj
 0002:00099d40       ?has_any_buffer@__crt_stdio_stream@@QBE_NXZ 100fbd40 f i libucrtd:_sftbuf.obj
 0002:00099d60       ?has_temporary_buffer@__crt_stdio_stream@@QBE_NXZ 100fbd60 f i libucrtd:_sftbuf.obj
 0002:00099d80       ___acrt_should_use_temporary_buffer 100fbd80 f   libucrtd:_sftbuf.obj
 0002:00099de0       ___acrt_stdio_begin_temporary_buffering_nolock 100fbde0 f   libucrtd:_sftbuf.obj
 0002:0009a020       ___acrt_stdio_end_temporary_buffering_nolock 100fc020 f   libucrtd:_sftbuf.obj
 0002:0009a0c0       __CrtGetReportHook         100fc0c0 f   libucrtd:dbgrptt.obj
 0002:0009a0d0       __CrtSetReportFile         100fc0d0 f   libucrtd:dbgrptt.obj
 0002:0009a200       __CrtSetReportHook         100fc200 f   libucrtd:dbgrptt.obj
 0002:0009a230       __CrtSetReportMode         100fc230 f   libucrtd:dbgrptt.obj
 0002:0009a3c0       __VCrtDbgReportA           100fc3c0 f   libucrtd:dbgrptt.obj
 0002:0009aec0       __VCrtDbgReportW           100fcec0 f   libucrtd:dbgrptt.obj
 0002:0009bb60       __snprintf_s               100fdb60 f i libucrtd:dbgrptt.obj
 0002:0009bbb0       __vsnprintf_s              100fdbb0 f i libucrtd:dbgrptt.obj
 0002:0009bbe0       __vsnprintf_s_l            100fdbe0 f i libucrtd:dbgrptt.obj
 0002:0009bc50       ?size@?$__crt_win32_buffer@DU__crt_win32_buffer_no_resizing@@@@QBEIXZ 100fdc50 f i libucrtd:getmodulefilenamea.obj
 0002:0009bc70       ___acrt_GetModuleFileNameA 100fdc70 f   libucrtd:getmodulefilenamea.obj
 0002:0009c020       ??$message_box@$$TABQBDABQBDK@?$__crt_char_traits@D@@SAH$$QA$$TABQBD1$$QAK@Z 100fe020 f i libucrtd:crtmbox.obj
 0002:0009c050       ??$message_box@$$TABQB_WABQB_WK@?$__crt_char_traits@_W@@SAH$$QA$$TABQB_W1$$QAK@Z 100fe050 f i libucrtd:crtmbox.obj
 0002:0009c080       ??$message_box@PAUHWND__@@ABQBDABQBDABI@?$__crt_char_traits@D@@SAH$$QAPAUHWND__@@ABQBD1ABI@Z 100fe080 f i libucrtd:crtmbox.obj
 0002:0009c0b0       ??$message_box@PAUHWND__@@ABQB_WABQB_WABI@?$__crt_char_traits@_W@@SAH$$QAPAUHWND__@@ABQB_W1ABI@Z 100fe0b0 f i libucrtd:crtmbox.obj
 0002:0009c0e0       ??$output_debug_string@ABQBD@?$__crt_char_traits@D@@SAXABQBD@Z 100fe0e0 f i libucrtd:crtmbox.obj
 0002:0009c100       ??$output_debug_string@ABQB_W@?$__crt_char_traits@_W@@SAXABQB_W@Z 100fe100 f i libucrtd:crtmbox.obj
 0002:0009c120       ___acrt_show_narrow_message_box 100fe120 f   libucrtd:crtmbox.obj
 0002:0009c150       ___acrt_show_wide_message_box 100fe150 f   libucrtd:crtmbox.obj
 0002:0009c180       ??$__crt_fast_decode_pointer@P6AHPAU_exception@@@Z@@YAP6AHPAU_exception@@@ZQ6AH0@Z@Z 100fe180 f i libucrtd:matherr.obj
 0002:0009c1c0       ??$__crt_fast_encode_pointer@P6AHPAU_exception@@@Z@@YAP6AHPAU_exception@@@ZQ6AH0@Z@Z 100fe1c0 f i libucrtd:matherr.obj
 0002:0009c200       ?initialize@?$dual_state_global@P6AHPAU_exception@@@Z@__crt_state_management@@QAEXQ6AHPAU_exception@@@Z@Z 100fe200 f i libucrtd:matherr.obj
 0002:0009c250       ?value@?$dual_state_global@P6AHPAU_exception@@@Z@__crt_state_management@@QAEAAP6AHPAU_exception@@@ZXZ 100fe250 f i libucrtd:matherr.obj
 0002:0009c270       ___acrt_has_user_matherr   100fe270 f   libucrtd:matherr.obj
 0002:0009c2c0       ___acrt_initialize_user_matherr 100fe2c0 f   libucrtd:matherr.obj
 0002:0009c2e0       ___acrt_invoke_user_matherr 100fe2e0 f   libucrtd:matherr.obj
 0002:0009c340       ___setusermatherr          100fe340 f   libucrtd:matherr.obj
 0002:0009c380       ___fpe_flt_rounds          100fe380 f   libucrtd:fegetround.obj
 0002:0009c400       _fegetround                100fe400 f   libucrtd:fegetround.obj
 0002:0009c420       __add_exp                  100fe420 f   libucrtd:util.obj
 0002:0009c460       __decomp                   100fe460 f   libucrtd:util.obj
 0002:0009c5d0       __get_exp                  100fe5d0 f   libucrtd:util.obj
 0002:0009c610       __set_bexp                 100fe610 f   libucrtd:util.obj
 0002:0009c650       __set_exp                  100fe650 f   libucrtd:util.obj
 0002:0009c6a0       __sptype                   100fe6a0 f   libucrtd:util.obj
 0002:0009c780       ??$__acrt_convert_wcs_mbs_cp@_WDV<lambda_28bda7af82a03b66c1cb3803a755f95d>@@U__crt_win32_buffer_internal_dynamic_resizing@@@@YAHQB_WAAV?$__crt_win32_buffer@DU__crt_win32_buffer_internal_dynamic_resizing@@@@ABV<lambda_28bda7af82a03b66c1cb3803a755f95d>@@I@Z 100fe780 f i libucrtd:argv_wildcards.obj
 0002:0009c910       ??$__acrt_wcs_to_mbs_cp@U__crt_win32_buffer_internal_dynamic_resizing@@@@YAHQB_WAAV?$__crt_win32_buffer@DU__crt_win32_buffer_internal_dynamic_resizing@@@@I@Z 100fe910 f i libucrtd:argv_wildcards.obj
 0002:0009dcc0       ??$tcsncpy_s@AAPADIAAPADABI@?$__crt_char_traits@D@@SAHAAPAD$$QAI0ABI@Z 100ffcc0 f i libucrtd:argv_wildcards.obj
 0002:0009dcf0       ??$tcsncpy_s@AAPA_WIAAPA_WABI@?$__crt_char_traits@_W@@SAHAAPA_W$$QAI0ABI@Z 100ffcf0 f i libucrtd:argv_wildcards.obj
 0002:0009dd20       ??$tcsncpy_s@PADABIABQBDABI@?$__crt_char_traits@D@@SAH$$QAPADABIABQBD1@Z 100ffd20 f i libucrtd:argv_wildcards.obj
 0002:0009dd50       ??$tcsncpy_s@PADIABQBDABI@?$__crt_char_traits@D@@SAH$$QAPAD$$QAIABQBDABI@Z 100ffd50 f i libucrtd:argv_wildcards.obj
 0002:0009dd80       ??$tcsncpy_s@PA_WABIABQB_WABI@?$__crt_char_traits@_W@@SAH$$QAPA_WABIABQB_W1@Z 100ffd80 f i libucrtd:argv_wildcards.obj
 0002:0009ddb0       ??$tcsncpy_s@PA_WIABQB_WABI@?$__crt_char_traits@_W@@SAH$$QAPA_W$$QAIABQB_WABI@Z 100ffdb0 f i libucrtd:argv_wildcards.obj
 0002:0009dde0       ??$tcspbrk@AAPADAAY02$$CBD@?$__crt_char_traits@D@@SAPADAAPADAAY02$$CBD@Z 100ffde0 f i libucrtd:argv_wildcards.obj
 0002:0009de40       ??$tcspbrk@AAPA_WAAY02$$CB_W@?$__crt_char_traits@_W@@SAPA_WAAPA_WAAY02$$CB_W@Z 100ffe40 f i libucrtd:argv_wildcards.obj
 0002:0009dea0       ??0?$__crt_unique_handle_t@U__crt_findfile_traits@@@@QAE@QAX@Z 100ffea0 f i libucrtd:argv_wildcards.obj
 0002:0009dec0       ??0?$__crt_win32_buffer@DU__crt_win32_buffer_internal_dynamic_resizing@@@@QAE@XZ 100ffec0 f i libucrtd:argv_wildcards.obj
 0002:0009dfa0       ??1?$__crt_unique_handle_t@U__crt_findfile_traits@@@@QAE@XZ 100fffa0 f i libucrtd:argv_wildcards.obj
 0002:0009dfc0       ??1?$__crt_win32_buffer@DU__crt_win32_buffer_internal_dynamic_resizing@@@@QAE@XZ 100fffc0 f i libucrtd:argv_wildcards.obj
 0002:0009e140       ??R<lambda_28bda7af82a03b66c1cb3803a755f95d>@@QBEHIQB_WQADI@Z 10100140 f i libucrtd:argv_wildcards.obj
 0002:0009e2a0       ?_deallocate@?$__crt_win32_buffer@DU__crt_win32_buffer_internal_dynamic_resizing@@@@AAEXXZ 101002a0 f i libucrtd:argv_wildcards.obj
 0002:0009e300       ?allocate@?$__crt_win32_buffer@DU__crt_win32_buffer_internal_dynamic_resizing@@@@QAEHI@Z 10100300 f i libucrtd:argv_wildcards.obj
 0002:0009e4a0       ?capacity@?$__crt_win32_buffer@DU__crt_win32_buffer_internal_dynamic_resizing@@@@QBEIXZ 101004a0 f i libucrtd:argv_wildcards.obj
 0002:0009e4c0       ?close@?$__crt_unique_handle_t@U__crt_findfile_traits@@@@QAEXXZ 101004c0 f i libucrtd:argv_wildcards.obj
 0002:0009e500       ?close@__crt_findfile_traits@@SA_NPAX@Z 10100500 f i libucrtd:argv_wildcards.obj
 0002:0009e540       ?data@?$__crt_win32_buffer@DU__crt_win32_buffer_internal_dynamic_resizing@@@@QAEPADXZ 10100540 f i libucrtd:argv_wildcards.obj
 0002:0009e560       ?debug_info@?$__crt_win32_buffer@DU__crt_win32_buffer_internal_dynamic_resizing@@@@QBEABV__crt_win32_buffer_empty_debug_info@@XZ 10100560 f i libucrtd:argv_wildcards.obj
 0002:0009e920       ?get@?$__crt_unique_handle_t@U__crt_findfile_traits@@@@QBEPAXXZ 10100920 f i libucrtd:argv_wildcards.obj
 0002:0009e9a0       ?get_invalid_value@__crt_findfile_traits@@SAPAXXZ 101009a0 f i libucrtd:argv_wildcards.obj
 0002:0009ea40       ?set_to_nullptr@?$__crt_win32_buffer@DU__crt_win32_buffer_internal_dynamic_resizing@@@@QAEXXZ 10100a40 f i libucrtd:argv_wildcards.obj
 0002:0009ea80       ?size@?$__crt_win32_buffer@DU__crt_win32_buffer_internal_dynamic_resizing@@@@QAEXI@Z 10100a80 f i libucrtd:argv_wildcards.obj
 0002:0009eb00       ?strpbrk@@YAPADQADQBD@Z    10100b00 f i libucrtd:argv_wildcards.obj
 0002:0009eb20       ?wcspbrk@@YAPA_WPA_WPB_W@Z 10100b20 f i libucrtd:argv_wildcards.obj
 0002:0009eb40       ___acrt_expand_narrow_argv_wildcards 10100b40 f   libucrtd:argv_wildcards.obj
 0002:0009eb60       ___acrt_expand_wide_argv_wildcards 10100b60 f   libucrtd:argv_wildcards.obj
 0002:0009ecb0       ??$initialize_from_array@$$BY10BAA@E@?$dual_state_global@PAE@__crt_state_management@@QAAXAAY10BAA@E@Z 10100cb0 f i libucrtd:mbctype.obj
 0002:0009ed10       ??$initialize_from_array@$$BY10BAB@E@?$dual_state_global@PAE@__crt_state_management@@QAAXAAY10BAB@E@Z 10100d10 f i libucrtd:mbctype.obj
 0002:0009f050       ?dangerous_get_state_array@?$dual_state_global@PAE@__crt_state_management@@QAEPAPAEXZ 10101050 f i libucrtd:mbctype.obj
 0002:0009f070       ?dangerous_get_state_array@?$dual_state_global@PAU__crt_multibyte_data@@@__crt_state_management@@QAEPAPAU__crt_multibyte_data@@XZ 10101070 f i libucrtd:mbctype.obj
 0002:0009f180       ?initialize@?$dual_state_global@PAU__crt_multibyte_data@@@__crt_state_management@@QAEXQAU__crt_multibyte_data@@@Z 10101180 f i libucrtd:mbctype.obj
 0002:0009fb20       ?value@?$dual_state_global@PAE@__crt_state_management@@QAEAAPAEXZ 10101b20 f i libucrtd:mbctype.obj
 0002:0009fb40       ___acrt_initialize_multibyte 10101b40 f   libucrtd:mbctype.obj
 0002:0009fc10       ___acrt_update_thread_multibyte_data 10101c10 f   libucrtd:mbctype.obj
 0002:0009fc50       ___p__mbcasemap            10101c50 f   libucrtd:mbctype.obj
 0002:0009fc70       ___p__mbctype              10101c70 f   libucrtd:mbctype.obj
 0002:0009fc90       __getmbcp                  10101c90 f   libucrtd:mbctype.obj
 0002:0009fd20       __setmbcp                  10101d20 f   libucrtd:mbctype.obj
 0002:0009fd70       __setmbcp_nolock           10101d70 f   libucrtd:mbctype.obj
 0002:000a0480       __ismbbalnum               10102480 f   libucrtd:ismbbyte.obj
 0002:000a04b0       __ismbbalnum_l             101024b0 f   libucrtd:ismbbyte.obj
 0002:000a04e0       __ismbbalpha               101024e0 f   libucrtd:ismbbyte.obj
 0002:000a0510       __ismbbalpha_l             10102510 f   libucrtd:ismbbyte.obj
 0002:000a0540       __ismbbblank               10102540 f   libucrtd:ismbbyte.obj
 0002:000a0580       __ismbbblank_l             10102580 f   libucrtd:ismbbyte.obj
 0002:000a05c0       __ismbbgraph               101025c0 f   libucrtd:ismbbyte.obj
 0002:000a05f0       __ismbbgraph_l             101025f0 f   libucrtd:ismbbyte.obj
 0002:000a0620       __ismbbkalnum              10102620 f   libucrtd:ismbbyte.obj
 0002:000a0640       __ismbbkalnum_l            10102640 f   libucrtd:ismbbyte.obj
 0002:000a0670       __ismbbkana                10102670 f   libucrtd:ismbbyte.obj
 0002:000a0690       __ismbbkana_l              10102690 f   libucrtd:ismbbyte.obj
 0002:000a0720       __ismbbkprint              10102720 f   libucrtd:ismbbyte.obj
 0002:000a0740       __ismbbkprint_l            10102740 f   libucrtd:ismbbyte.obj
 0002:000a0770       __ismbbkpunct              10102770 f   libucrtd:ismbbyte.obj
 0002:000a0790       __ismbbkpunct_l            10102790 f   libucrtd:ismbbyte.obj
 0002:000a07c0       __ismbblead                101027c0 f   libucrtd:ismbbyte.obj
 0002:000a07e0       __ismbblead_l              101027e0 f   libucrtd:ismbbyte.obj
 0002:000a0810       __ismbbprint               10102810 f   libucrtd:ismbbyte.obj
 0002:000a0840       __ismbbprint_l             10102840 f   libucrtd:ismbbyte.obj
 0002:000a0870       __ismbbpunct               10102870 f   libucrtd:ismbbyte.obj
 0002:000a0890       __ismbbpunct_l             10102890 f   libucrtd:ismbbyte.obj
 0002:000a08c0       __ismbbtrail               101028c0 f   libucrtd:ismbbyte.obj
 0002:000a08e0       __ismbbtrail_l             101028e0 f   libucrtd:ismbbyte.obj
 0002:000a0910       ___acrt_initialize_command_line 10102910 f   libucrtd:argv_data.obj
 0002:000a0940       ___acrt_uninitialize_command_line 10102940 f   libucrtd:argv_data.obj
 0002:000a0950       ___p___argc                10102950 f   libucrtd:argv_data.obj
 0002:000a0960       ___p___argv                10102960 f   libucrtd:argv_data.obj
 0002:000a0970       ___p___wargv               10102970 f   libucrtd:argv_data.obj
 0002:000a0980       ___p__acmdln               10102980 f   libucrtd:argv_data.obj
 0002:000a0990       ___p__pgmptr               10102990 f   libucrtd:argv_data.obj
 0002:000a09a0       ___p__wcmdln               101029a0 f   libucrtd:argv_data.obj
 0002:000a09b0       ___p__wpgmptr              101029b0 f   libucrtd:argv_data.obj
 0002:000a09c0       __get_pgmptr               101029c0 f   libucrtd:argv_data.obj
 0002:000a0b20       __get_wpgmptr              10102b20 f   libucrtd:argv_data.obj
 0002:000a0d50       ___acrt_WideCharToMultiByte 10102d50 f   libucrtd:widechartomultibyte.obj
 0002:000a0fc0       ___dcrt_get_narrow_environment_from_os 10102fc0 f   libucrtd:get_environment_from_os.obj
 0002:000a1190       ___dcrt_get_wide_environment_from_os 10103190 f   libucrtd:get_environment_from_os.obj
 0002:000a27d0       ??$get_or_create_environment_nolock@$$V@?$__crt_char_traits@D@@SAPAPADXZ 101047d0 f i libucrtd:setenv.obj
 0002:000a27e0       ??$get_or_create_environment_nolock@$$V@?$__crt_char_traits@_W@@SAPAPA_WXZ 101047e0 f i libucrtd:setenv.obj
 0002:000a27f0       ??$set_environment_variable@ABQADQAD@?$__crt_char_traits@D@@SAHABQAD$$QBQAD@Z 101047f0 f i libucrtd:setenv.obj
 0002:000a2820       ??$set_environment_variable@ABQA_WQA_W@?$__crt_char_traits@_W@@SAHABQA_W$$QBQA_W@Z 10104820 f i libucrtd:setenv.obj
 0002:000a2840       ??$tcschr@ABQADD@?$__crt_char_traits@D@@SAPADABQAD$$QAD@Z 10104840 f i libucrtd:setenv.obj
 0002:000a28a0       ??$tcschr@ABQA_WD@?$__crt_char_traits@_W@@SAPA_WABQA_W$$QAD@Z 101048a0 f i libucrtd:setenv.obj
 0002:000a2910       ??$tcscpy_s@AAPADABIAAPAD@?$__crt_char_traits@D@@SAHAAPADABI0@Z 10104910 f i libucrtd:setenv.obj
 0002:000a2940       ??$tcscpy_s@AAPA_WABIAAPA_W@?$__crt_char_traits@_W@@SAHAAPA_WABI0@Z 10104940 f i libucrtd:setenv.obj
 0002:000a2970       ??$tcscpy_s@ABQADABIABQAD@?$__crt_char_traits@D@@SAHABQADABI0@Z 10104970 f i libucrtd:setenv.obj
 0002:000a29a0       ??$tcscpy_s@ABQA_WABIABQA_W@?$__crt_char_traits@_W@@SAHABQA_WABI0@Z 101049a0 f i libucrtd:setenv.obj
 0002:000a29d0       ??$tcslen@ABQAD@?$__crt_char_traits@D@@SAIABQAD@Z 101049d0 f i libucrtd:setenv.obj
 0002:000a29f0       ??$tcslen@ABQA_W@?$__crt_char_traits@_W@@SAIABQA_W@Z 101049f0 f i libucrtd:setenv.obj
 0002:000a2a10       ??$tcsnicoll@ABQBDAAPADABI@?$__crt_char_traits@D@@SAHABQBDAAPADABI@Z 10104a10 f i libucrtd:setenv.obj
 0002:000a2a40       ??$tcsnicoll@ABQB_WAAPA_WABI@?$__crt_char_traits@_W@@SAHABQB_WAAPA_WABI@Z 10104a40 f i libucrtd:setenv.obj
 0002:000a2a70       ??$tcsnlen@PADH@?$__crt_char_traits@D@@SAI$$QAPAD$$QAH@Z 10104a70 f i libucrtd:setenv.obj
 0002:000a2aa0       ??$tcsnlen@PA_WH@?$__crt_char_traits@_W@@SAI$$QAPA_W$$QAH@Z 10104aa0 f i libucrtd:setenv.obj
 0002:000a2b70       ?strchr@@YAPADQADH@Z       10104b70 f i libucrtd:setenv.obj
 0002:000a2b90       ?wcschr@@YAPA_WPA_W_W@Z    10104b90 f i libucrtd:setenv.obj
 0002:000a2bb0       ___dcrt_set_variable_in_narrow_environment_nolock 10104bb0 f   libucrtd:setenv.obj
 0002:000a2bd0       ___dcrt_set_variable_in_wide_environment_nolock 10104bd0 f   libucrtd:setenv.obj
 0002:000a2bf0       ___acrt_getheap            10104bf0 f   libucrtd:heap_handle.obj
 0002:000a2c40       ___acrt_initialize_heap    10104c40 f   libucrtd:heap_handle.obj
 0002:000a2c70       ___acrt_uninitialize_heap  10104c70 f   libucrtd:heap_handle.obj
 0002:000a2c90       __get_heap_handle          10104c90 f   libucrtd:heap_handle.obj
 0002:000a2ce0       ___acrt_execute_initializers 10104ce0 f   libucrtd:shared_initialization.obj
 0002:000a2dd0       ___acrt_execute_uninitializers 10104dd0 f   libucrtd:shared_initialization.obj
 0002:000a2e50       ??$?B$$A6AHI@Z@__crt_fast_encoded_nullptr_t@@QBEP6AHI@ZXZ 10104e50 f i libucrtd:new_handler.obj
 0002:000a2e70       ??$__crt_fast_decode_pointer@P6AHI@Z@@YAP6AHI@ZQ6AHI@Z@Z 10104e70 f i libucrtd:new_handler.obj
 0002:000a2eb0       ??$__crt_fast_encode_pointer@P6AHI@Z@@YAP6AHI@ZQ6AHI@Z@Z 10104eb0 f i libucrtd:new_handler.obj
 0002:000a2ef0       ?_set_new_handler@@YAP6AHI@ZH@Z 10104ef0 f   libucrtd:new_handler.obj
 0002:000a2f60       ?initialize@?$dual_state_global@P6AHI@Z@__crt_state_management@@QAEXQ6AHI@Z@Z 10104f60 f i libucrtd:new_handler.obj
 0002:000a2fb0       ?value@?$dual_state_global@P6AHI@Z@__crt_state_management@@QAEAAP6AHI@ZXZ 10104fb0 f i libucrtd:new_handler.obj
 0002:000a2fd0       ___acrt_initialize_new_handler 10104fd0 f   libucrtd:new_handler.obj
 0002:000a2ff0       __callnewh                 10104ff0 f   libucrtd:new_handler.obj
 0002:000a3050       __query_new_handler        10105050 f   libucrtd:new_handler.obj
 0002:000a3110       __set_new_handler          10105110 f   libucrtd:new_handler.obj
 0002:000a31f0       __mbsdec                   101051f0 f   libucrtd:mbsdec.obj
 0002:000a3210       __mbsdec_l                 10105210 f   libucrtd:mbsdec.obj
 0002:000a3960       _wcsncpy_s                 10105960 f   libucrtd:wcsncpy_s.obj
 0002:000a3eb0       _strncpy_s                 10105eb0 f   libucrtd:strncpy_s.obj
 0002:000a3ee0       ??$__crt_interlocked_read@H@@YAHPDH@Z 10105ee0 f i libucrtd:setmode.obj
 0002:000a3f00       ?value@?$dual_state_global@H@__crt_state_management@@QAEAAHXZ 10105f00 f i libucrtd:setmode.obj
 0002:000a3f20       __get_fmode                10105f20 f   libucrtd:setmode.obj
 0002:000a3ff0       __set_fmode                10105ff0 f   libucrtd:setmode.obj
 0002:000a40d0       __setmode                  101060d0 f   libucrtd:setmode.obj
 0002:000a4430       __setmode_nolock           10106430 f   libucrtd:setmode.obj
 0002:000a48b0       ??0__crt_seek_guard@@QAE@H_J@Z 101068b0 f i libucrtd:chsize.obj
 0002:000a4940       ??1__crt_seek_guard@@QAE@XZ 10106940 f i libucrtd:chsize.obj
 0002:000a4db0       ?check@?$cached@K@__crt_cached_ptd_host@@QBE_NK@Z 10106db0 f i libucrtd:chsize.obj
 0002:000a4e00       __chsize                   10106e00 f   libucrtd:chsize.obj
 0002:000a4e40       __chsize_nolock            10106e40 f   libucrtd:chsize.obj
 0002:000a4e90       __chsize_nolock_internal   10106e90 f   libucrtd:chsize.obj
 0002:000a51f0       __chsize_s                 101071f0 f   libucrtd:chsize.obj
 0002:000a5240       __umask                    10107240 f   libucrtd:umask.obj
 0002:000a5280       __umask_s                  10107280 f   libucrtd:umask.obj
 0002:000a53e0       __isatty                   101073e0 f   libucrtd:isatty.obj
 0002:000a5560       ?__mbrtowc_utf8@__crt_mbstring@@YAIPA_WPBDIPAU_Mbstatet@@AAV__crt_cached_ptd_host@@@Z 10107560 f   libucrtd:mbrtowc.obj
 0002:000a55d0       ?__mbsrtowcs_utf8@__crt_mbstring@@YAIPA_WPAPBDIPAU_Mbstatet@@AAV__crt_cached_ptd_host@@@Z 101075d0 f   libucrtd:mbrtowc.obj
 0002:000a6480       _btowc                     10108480 f   libucrtd:mbrtowc.obj
 0002:000a6530       _mbrlen                    10108530 f   libucrtd:mbrtowc.obj
 0002:000a65b0       _mbrtowc                   101085b0 f   libucrtd:mbrtowc.obj
 0002:000a6680       _mbsrtowcs                 10108680 f   libucrtd:mbrtowc.obj
 0002:000a66d0       _mbsrtowcs_s               101086d0 f   libucrtd:mbrtowc.obj
 0002:000a6980       __putwch                   10108980 f   libucrtd:putwch.obj
 0002:000a69b0       __putwch_nolock            101089b0 f   libucrtd:putwch.obj
 0002:000a6a00       __putwch_nolock_internal   10108a00 f   libucrtd:putwch.obj
 0002:000a6a20       __chvalidator              10108a20 f   libucrtd:isctype.obj
 0002:000a6a80       __chvalidator_l            10108a80 f   libucrtd:isctype.obj
 0002:000a6b20       __isctype                  10108b20 f   libucrtd:isctype.obj
 0002:000a6b70       __isctype_l                10108b70 f   libucrtd:isctype.obj
 0002:000a6d70       __free_base                10108d70 f   libucrtd:free_base.obj
 0002:000a6dd0       __realloc_base             10108dd0 f   libucrtd:realloc_base.obj
 0002:000a6f00       __expand                   10108f00 f   libucrtd:expand.obj
 0002:000a6f30       __expand_base              10108f30 f   libucrtd:expand.obj
 0002:000a70b0       ?value@?$dual_state_global@J@__crt_state_management@@QAEAAJXZ 101090b0 f i libucrtd:new_mode.obj
 0002:000a70d0       __query_new_mode           101090d0 f   libucrtd:new_mode.obj
 0002:000a70f0       __set_new_mode             101090f0 f   libucrtd:new_mode.obj
 0002:000a71c0       __CrtDefaultAllocHook      101091c0 f   libucrtd:debug_heap_hook.obj
 0002:000a73e0       ___acrt_report_runtime_error 101093e0 f   libucrtd:report_runtime_error.obj
 0002:000a7650       __query_app_type           10109650 f   libucrtd:report_runtime_error.obj
 0002:000a7660       __set_app_type             10109660 f   libucrtd:report_runtime_error.obj
 0002:000a7680       __iswctype_l               10109680 f   libucrtd:iswctype.obj
 0002:000a76a0       _iswctype                  101096a0 f   libucrtd:iswctype.obj
 0002:000a7750       __fFEXP                    10109750 f   libucrtd:87tran.obj
 0002:000a77a7       __rtinfpopse               101097a7     libucrtd:87tran.obj
 0002:000a77a9       __rtinfnpopse              101097a9     libucrtd:87tran.obj
 0002:000a77b9       __fFLN                     101097b9     libucrtd:87tran.obj
 0002:000a786e       __rtinfpop                 1010986e     libucrtd:87tran.obj
 0002:000a7870       __rtinfnpop                10109870     libucrtd:87tran.obj
 0002:000a7880       __rtforexpinf              10109880 f   libucrtd:87tran.obj
 0002:000a788d       __ffexpm1                  1010988d     libucrtd:87tran.obj
 0002:000a79c0       __trandisp1                101099c0 f   libucrtd:87disp.obj
 0002:000a7a35       __trandisp2                10109a35 f   libucrtd:87disp.obj
 0002:000a7acf       __rttospopde               10109acf     libucrtd:87disp.obj
 0002:000a7ad4       __rttospop                 10109ad4     libucrtd:87disp.obj
 0002:000a7ae0       __rtnospop                 10109ae0 f   libucrtd:87disp.obj
 0002:000a7af0       __rttosnpop                10109af0 f   libucrtd:87disp.obj
 0002:000a7af1       __rtnospopde               10109af1     libucrtd:87disp.obj
 0002:000a7af8       __rtzeropop                10109af8     libucrtd:87disp.obj
 0002:000a7afa       __rtzeronpop               10109afa     libucrtd:87disp.obj
 0002:000a7b00       __rtzerospop               10109b00 f   libucrtd:87disp.obj
 0002:000a7b0d       __rtonepop                 10109b0d     libucrtd:87disp.obj
 0002:000a7b10       __rtonenpop                10109b10 f   libucrtd:87disp.obj
 0002:000a7b20       __tosnan1                  10109b20 f   libucrtd:87disp.obj
 0002:000a7b50       __nosnan2                  10109b50 f   libucrtd:87disp.obj
 0002:000a7b60       __tosnan2                  10109b60 f   libucrtd:87disp.obj
 0002:000a7b90       __nan2                     10109b90 f   libucrtd:87disp.obj
 0002:000a7bd0       __rtindfpop                10109bd0 f   libucrtd:87disp.obj
 0002:000a7bd2       __rtindfnpop               10109bd2     libucrtd:87disp.obj
 0002:000a7be3       __rttosnpopde              10109be3     libucrtd:87disp.obj
 0002:000a7bf0       __rtatan2inf               10109bf0 f   libucrtd:87disp.obj
 0002:000a7c0d       __rtchsifneg               10109c0d     libucrtd:87disp.obj
 0002:000a7cb0       ___setfflag                10109cb0 f   libucrtd:fp_flags.obj
 0002:000a7ce0       __startTwoArgErrorHandling 10109ce0 f   libucrtd:genexcep.obj
 0002:000a7cf7       __startOneArgErrorHandling 10109cf7 f   libucrtd:genexcep.obj
 0002:000a7d50       __twoToTOS                 10109d50 f   libucrtd:common.obj
 0002:000a7d65       __load_CW                  10109d65 f   libucrtd:common.obj
 0002:000a7d7c       __convertTOStoQNaN         10109d7c f   libucrtd:common.obj
 0002:000a7d95       __fload_withFB             10109d95 f   libucrtd:common.obj
 0002:000a7dd8       __checkTOS_withFB          10109dd8 f   libucrtd:common.obj
 0002:000a7dee       __fast_exit                10109dee f   libucrtd:common.obj
 0002:000a7dfb       __math_exit                10109dfb f   libucrtd:common.obj
 0002:000a7e25       __check_overflow_exit      10109e25 f   libucrtd:common.obj
 0002:000a7e39       __check_range_exit         10109e39 f   libucrtd:common.obj
 0002:000a7f40       __d_inttype                10109f40 f   libucrtd:powhlp.obj
 0002:000a7ff0       __powhlp                   10109ff0 f   libucrtd:powhlp.obj
 0002:000a8200       ___libm_error_support      1010a200 f   libucrtd:libm_error.obj
 0002:000a8930       ___libm_setusermatherr     1010a930 f   libucrtd:libm_error.obj
 0002:000a8aa0       ___acrt_DownlevelLCIDToLocaleName 1010aaa0 f   libucrtd:lcidtoname_downlevel.obj
 0002:000a8ba0       ___acrt_DownlevelLocaleNameToLCID 1010aba0 f   libucrtd:lcidtoname_downlevel.obj
 0002:000a9440       ??$get_full_path_name@AAY03DAAV?$__crt_win32_buffer@DU__crt_win32_buffer_no_resizing@@@@@?$__crt_char_traits@D@@SAHAAY03DAAV?$__crt_win32_buffer@DU__crt_win32_buffer_no_resizing@@@@@Z 1010b440 f i libucrtd:getcwd.obj
 0002:000a94a0       ??$get_full_path_name@AAY03DAAV?$__crt_win32_buffer@DU__crt_win32_buffer_public_dynamic_resizing@@@@@?$__crt_char_traits@D@@SAHAAY03DAAV?$__crt_win32_buffer@DU__crt_win32_buffer_public_dynamic_resizing@@@@@Z 1010b4a0 f i libucrtd:getcwd.obj
 0002:000a9500       ??$get_full_path_name@AAY03_WAAV?$__crt_win32_buffer@_WU__crt_win32_buffer_no_resizing@@@@@?$__crt_char_traits@_W@@SAHAAY03_WAAV?$__crt_win32_buffer@_WU__crt_win32_buffer_no_resizing@@@@@Z 1010b500 f i libucrtd:getcwd.obj
 0002:000a9560       ??$get_full_path_name@AAY03_WAAV?$__crt_win32_buffer@_WU__crt_win32_buffer_public_dynamic_resizing@@@@@?$__crt_char_traits@_W@@SAHAAY03_WAAV?$__crt_win32_buffer@_WU__crt_win32_buffer_public_dynamic_resizing@@@@@Z 1010b560 f i libucrtd:getcwd.obj
 0002:000a9700       __getcwd                   1010b700 f   libucrtd:getcwd.obj
 0002:000a9730       __getcwd_dbg               1010b730 f   libucrtd:getcwd.obj
 0002:000a9760       __getdcwd                  1010b760 f   libucrtd:getcwd.obj
 0002:000a9790       __getdcwd_dbg              1010b790 f   libucrtd:getcwd.obj
 0002:000a97c0       __wgetcwd                  1010b7c0 f   libucrtd:getcwd.obj
 0002:000a97f0       __wgetcwd_dbg              1010b7f0 f   libucrtd:getcwd.obj
 0002:000a9820       __wgetdcwd                 1010b820 f   libucrtd:getcwd.obj
 0002:000a9850       __wgetdcwd_dbg             1010b850 f   libucrtd:getcwd.obj
 0002:000a99d0       __towlower_l               1010b9d0 f   libucrtd:towlower.obj
 0002:000a9b60       _towlower                  1010bb60 f   libucrtd:towlower.obj
 0002:000a9b80       ___pctype_func             1010bb80 f   libucrtd:ctype.obj
 0002:000a9bc0       ___pwctype_func            1010bbc0 f   libucrtd:ctype.obj
 0002:000a9bd0       ___acrt_add_locale_ref     1010bbd0 f   libucrtd:locale_refcounting.obj
 0002:000a9d20       ___acrt_free_locale        1010bd20 f   libucrtd:locale_refcounting.obj
 0002:000aa0a0       ___acrt_locale_add_lc_time_reference 1010c0a0 f   libucrtd:locale_refcounting.obj
 0002:000aa0e0       ___acrt_locale_free_lc_time_if_unreferenced 1010c0e0 f   libucrtd:locale_refcounting.obj
 0002:000aa140       ___acrt_locale_release_lc_time_reference 1010c140 f   libucrtd:locale_refcounting.obj
 0002:000aa180       ___acrt_release_locale_ref 1010c180 f   libucrtd:locale_refcounting.obj
 0002:000aa2d0       ___acrt_update_thread_locale_data 1010c2d0 f   libucrtd:locale_refcounting.obj
 0002:000aa3e0       __updatetlocinfoEx_nolock  1010c3e0 f   libucrtd:locale_refcounting.obj
 0002:000aa480       ?dangerous_get_state_array@?$dual_state_global@PAPAD@__crt_state_management@@QAEPAPAPADXZ 1010c480 f i libucrtd:timeset.obj
 0002:000aa4a0       ?dangerous_get_state_array@?$dual_state_global@PAPA_W@__crt_state_management@@QAEPAPAPA_WXZ 1010c4a0 f i libucrtd:timeset.obj
 0002:000aa4c0       ?initialize@?$dual_state_global@H@__crt_state_management@@QAEXH@Z 1010c4c0 f i libucrtd:timeset.obj
 0002:000aa510       ?initialize@?$dual_state_global@J@__crt_state_management@@QAEXJ@Z 1010c510 f i libucrtd:timeset.obj
 0002:000aa560       ___acrt_initialize_timeset 1010c560 f   libucrtd:timeset.obj
 0002:000aa640       ___daylight                1010c640 f   libucrtd:timeset.obj
 0002:000aa660       ___dstbias                 1010c660 f   libucrtd:timeset.obj
 0002:000aa680       ___timezone                1010c680 f   libucrtd:timeset.obj
 0002:000aa6a0       ___tzname                  1010c6a0 f   libucrtd:timeset.obj
 0002:000aa6c0       ___wide_tzname             1010c6c0 f   libucrtd:timeset.obj
 0002:000aa6e0       __get_daylight             1010c6e0 f   libucrtd:timeset.obj
 0002:000aa7a0       __get_dstbias              1010c7a0 f   libucrtd:timeset.obj
 0002:000aa860       __get_timezone             1010c860 f   libucrtd:timeset.obj
 0002:000aa920       __get_tzname               1010c920 f   libucrtd:timeset.obj
 0002:000ab000       ?_set_daylight@@YAXH@Z     1010d000 f i libucrtd:tzset.obj
 0002:000ab020       ?_set_dstbias@@YAXJ@Z      1010d020 f i libucrtd:tzset.obj
 0002:000ab040       ?_set_timezone@@YAXJ@Z     1010d040 f i libucrtd:tzset.obj
 0002:000ab320       ?dangerous_get_state_array@?$dual_state_global@J@__crt_state_management@@QAEPAJXZ 1010d320 f i libucrtd:tzset.obj
 0002:000abea0       ___tzset                   1010dea0 f   libucrtd:tzset.obj
 0002:000abf90       __isindst                  1010df90 f   libucrtd:tzset.obj
 0002:000ac040       __tzset                    1010e040 f   libucrtd:tzset.obj
 0002:000ac0d0       ??$?RG@__crt_internal_free_policy@@QBEXQBG@Z 1010e0d0 f i libucrtd:initctype.obj
 0002:000ac100       ??$?RJ@__crt_internal_free_policy@@QBEXQBJ@Z 1010e100 f i libucrtd:initctype.obj
 0002:000ac130       ??0?$__crt_unique_heap_ptr@GU__crt_internal_free_policy@@@@QAE@QAG@Z 1010e130 f i libucrtd:initctype.obj
 0002:000ac150       ??0?$__crt_unique_heap_ptr@JU__crt_internal_free_policy@@@@QAE@QAJ@Z 1010e150 f i libucrtd:initctype.obj
 0002:000ac170       ??1?$__crt_unique_heap_ptr@GU__crt_internal_free_policy@@@@QAE@XZ 1010e170 f i libucrtd:initctype.obj
 0002:000ac190       ??1?$__crt_unique_heap_ptr@JU__crt_internal_free_policy@@@@QAE@XZ 1010e190 f i libucrtd:initctype.obj
 0002:000ac1b0       ?detach@?$__crt_unique_heap_ptr@GU__crt_internal_free_policy@@@@QAEPAGXZ 1010e1b0 f i libucrtd:initctype.obj
 0002:000ac1e0       ?detach@?$__crt_unique_heap_ptr@JU__crt_internal_free_policy@@@@QAEPAJXZ 1010e1e0 f i libucrtd:initctype.obj
 0002:000ac210       ?release@?$__crt_unique_heap_ptr@GU__crt_internal_free_policy@@@@QAEXXZ 1010e210 f i libucrtd:initctype.obj
 0002:000ac240       ?release@?$__crt_unique_heap_ptr@JU__crt_internal_free_policy@@@@QAEXXZ 1010e240 f i libucrtd:initctype.obj
 0002:000ac270       ____lc_codepage_func       1010e270 f   libucrtd:initctype.obj
 0002:000ac2b0       ____lc_collate_cp_func     1010e2b0 f   libucrtd:initctype.obj
 0002:000ac2f0       ____lc_locale_name_func    1010e2f0 f   libucrtd:initctype.obj
 0002:000ac340       ____mb_cur_max_func        1010e340 f   libucrtd:initctype.obj
 0002:000ac380       ____mb_cur_max_l_func      1010e380 f   libucrtd:initctype.obj
 0002:000ac3c0       ___acrt_locale_initialize_ctype 1010e3c0 f   libucrtd:initctype.obj
 0002:000acd20       ??$?RUlconv@@@__crt_internal_free_policy@@QBEXQBUlconv@@@Z 1010ed20 f i libucrtd:initmon.obj
 0002:000acd50       ??0?$__crt_unique_heap_ptr@Ulconv@@U__crt_internal_free_policy@@@@QAE@QAUlconv@@@Z 1010ed50 f i libucrtd:initmon.obj
 0002:000acd70       ??1?$__crt_unique_heap_ptr@Ulconv@@U__crt_internal_free_policy@@@@QAE@XZ 1010ed70 f i libucrtd:initmon.obj
 0002:000acd90       ?detach@?$__crt_unique_heap_ptr@Ulconv@@U__crt_internal_free_policy@@@@QAEPAUlconv@@XZ 1010ed90 f i libucrtd:initmon.obj
 0002:000acdc0       ?release@?$__crt_unique_heap_ptr@Ulconv@@U__crt_internal_free_policy@@@@QAEXXZ 1010edc0 f i libucrtd:initmon.obj
 0002:000acdf0       ___acrt_locale_free_monetary 1010edf0 f   libucrtd:initmon.obj
 0002:000ad000       ___acrt_locale_initialize_monetary 1010f000 f   libucrtd:initmon.obj
 0002:000ad850       ___acrt_locale_free_numeric 1010f850 f   libucrtd:initnum.obj
 0002:000ad930       ___acrt_locale_initialize_numeric 1010f930 f   libucrtd:initnum.obj
 0002:000ade90       ??$?RU__crt_lc_time_data@@@__crt_internal_free_policy@@QBEXQBU__crt_lc_time_data@@@Z 1010fe90 f i libucrtd:inittime.obj
 0002:000adf80       ??0?$__crt_unique_heap_ptr@U__crt_lc_time_data@@U__crt_internal_free_policy@@@@QAE@QAU__crt_lc_time_data@@@Z 1010ff80 f i libucrtd:inittime.obj
 0002:000adfa0       ??1?$__crt_unique_heap_ptr@U__crt_lc_time_data@@U__crt_internal_free_policy@@@@QAE@XZ 1010ffa0 f i libucrtd:inittime.obj
 0002:000adfc0       ??B?$__crt_unique_heap_ptr@U__crt_lc_time_data@@U__crt_internal_free_policy@@@@QBE_NXZ 1010ffc0 f i libucrtd:inittime.obj
 0002:000adfe0       ?detach@?$__crt_unique_heap_ptr@U__crt_lc_time_data@@U__crt_internal_free_policy@@@@QAEPAU__crt_lc_time_data@@XZ 1010ffe0 f i libucrtd:inittime.obj
 0002:000ae060       ?get@?$__crt_unique_heap_ptr@U__crt_lc_time_data@@U__crt_internal_free_policy@@@@QBEPAU__crt_lc_time_data@@XZ 10110060 f i libucrtd:inittime.obj
 0002:000ae650       ?is_valid@?$__crt_unique_heap_ptr@U__crt_lc_time_data@@U__crt_internal_free_policy@@@@QBE_NXZ 10110650 f i libucrtd:inittime.obj
 0002:000ae690       ?release@?$__crt_unique_heap_ptr@U__crt_lc_time_data@@U__crt_internal_free_policy@@@@QAEXXZ 10110690 f i libucrtd:inittime.obj
 0002:000ae6c0       ___acrt_locale_free_time   101106c0 f   libucrtd:inittime.obj
 0002:000ae860       ___acrt_locale_initialize_time 10110860 f   libucrtd:inittime.obj
 0002:000aee20       _wcscat_s                  10110e20 f   libucrtd:wcscat_s.obj
 0002:000af460       _wcsncat_s                 10111460 f   libucrtd:wcsncat_s.obj
 0002:000af490       _wcscmp                    10111490 f   libucrtd:wcscmp.obj
 0002:000af530       _wcscspn                   10111530 f   libucrtd:wcscspn.obj
 0002:000af5c0       ??0?$__crt_scoped_stack_ptr@_W@@QAE@U?$__crt_scoped_stack_ptr_tag@_W@@@Z 101115c0 f i libucrtd:getstringtypea.obj
 0002:000af5e0       ??0?$__crt_scoped_stack_ptr_tag@_W@@QAE@QA_W@Z 101115e0 f i libucrtd:getstringtypea.obj
 0002:000af600       ??1?$__crt_scoped_stack_ptr@_W@@QAE@XZ 10111600 f i libucrtd:getstringtypea.obj
 0002:000af630       ?get@?$__crt_scoped_stack_ptr@_W@@QBEPA_WXZ 10111630 f i libucrtd:getstringtypea.obj
 0002:000af650       __MallocaComputeSize       10111650 f i libucrtd:getstringtypea.obj
 0002:000af690       __MarkAllocaS              10111690 f i libucrtd:getstringtypea.obj
 0002:000af6c0       ___acrt_GetStringTypeA     101116c0 f   libucrtd:getstringtypea.obj
 0002:000af8f0       __freea_crt                101118f0 f i libucrtd:getstringtypea.obj
 0002:000b07a0       ___acrt_get_qualified_locale 101127a0 f   libucrtd:get_qualified_locale.obj
 0002:000b1bd0       ___acrt_get_qualified_locale_downlevel 10113bd0 f   libucrtd:getqloc_downlevel.obj
 0002:000b1f30       _localeconv                10113f30 f   libucrtd:localeconv.obj
 0002:000b22e0       __fclose_nolock            101142e0 f   libucrtd:fclose.obj
 0002:000b2330       _fclose                    10114330 f   libucrtd:fclose.obj
 0002:000b2670       __commit                   10114670 f   libucrtd:commit.obj
 0002:000b29f0       ___acrt_fp_strflt_to_string 101149f0 f   libucrtd:_fptostr.obj
 0002:000b3670       ??0big_integer@__crt_strtox@@QAE@ABU01@@Z 10115670 f i libucrtd:cfout.obj
 0002:000b36c0       ??0big_integer@__crt_strtox@@QAE@XZ 101156c0 f i libucrtd:cfout.obj
 0002:000b3790       ??4big_integer@__crt_strtox@@QAEAAU01@ABU01@@Z 10115790 f i libucrtd:cfout.obj
 0002:000b37e0       ??8__crt_strtox@@YA_NABUbig_integer@0@0@Z 101157e0 f i libucrtd:cfout.obj
 0002:000b3850       ??9__crt_strtox@@YA_NABUbig_integer@0@0@Z 10115850 f i libucrtd:cfout.obj
 0002:000b38a0       ?add_carry@__crt_strtox@@YAIAAIII@Z 101158a0 f i libucrtd:cfout.obj
 0002:000b38f0       ?add_multiply_carry@__crt_strtox@@YAIAAIIII@Z 101158f0 f i libucrtd:cfout.obj
 0002:000b3940       ?bit_scan_reverse@__crt_strtox@@YAII@Z 10115940 f i libucrtd:cfout.obj
 0002:000b3980       ?count_sequential_high_zeroes@__crt_strtox@@YAII@Z 10115980 f i libucrtd:cfout.obj
 0002:000b39d0       ?divide@__crt_strtox@@YA_KAAUbig_integer@1@ABU21@@Z 101159d0 f i libucrtd:cfout.obj
 0002:000b46d0       ?is_zero@__crt_strtox@@YA_NABUbig_integer@1@@Z 101166d0 f i libucrtd:cfout.obj
 0002:000b4700       ?make_big_integer@__crt_strtox@@YA?AUbig_integer@1@_K@Z 10116700 f i libucrtd:cfout.obj
 0002:000b47d0       ?make_big_integer_power_of_two@__crt_strtox@@YA?AUbig_integer@1@I@Z 101167d0 f i libucrtd:cfout.obj
 0002:000b48b0       ?multiply@__crt_strtox@@YA_NAAUbig_integer@1@ABU21@@Z 101168b0 f i libucrtd:cfout.obj
 0002:000b4d10       ?multiply@__crt_strtox@@YA_NAAUbig_integer@1@I@Z 10116d10 f i libucrtd:cfout.obj
 0002:000b4e10       ?multiply_64_32@__crt_strtox@@YA_K_KI@Z 10116e10 f i libucrtd:cfout.obj
 0002:000b4e30       ?multiply_by_power_of_ten@__crt_strtox@@YA_NAAUbig_integer@1@I@Z 10116e30 f i libucrtd:cfout.obj
 0002:000b5030       ?multiply_core@__crt_strtox@@YAIQAIII@Z 10117030 f i libucrtd:cfout.obj
 0002:000b50b0       ?shift_left@__crt_strtox@@YA_NAAUbig_integer@1@I@Z 101170b0 f i libucrtd:cfout.obj
 0002:000b5450       ___acrt_fltout             10117450 f   libucrtd:cfout.obj
 0002:000b5950       ?__c32rtomb_utf8@__crt_mbstring@@YAIPAD_UPAU_Mbstatet@@AAV__crt_cached_ptd_host@@@Z 10117950 f   libucrtd:c32rtomb.obj
 0002:000b5bb0       _c32rtomb                  10117bb0 f   libucrtd:c32rtomb.obj
 0002:000b6530       ?has_big_buffer@__crt_stdio_stream@@QBE_NXZ 10118530 f i libucrtd:_flsbuf.obj
 0002:000b6660       ___acrt_stdio_flush_and_write_narrow_nolock 10118660 f   libucrtd:_flsbuf.obj
 0002:000b66a0       ___acrt_stdio_flush_and_write_wide_nolock 101186a0 f   libucrtd:_flsbuf.obj
 0002:000b7c10       __i64toa                   10119c10 f   libucrtd:xtoa.obj
 0002:000b7c80       __i64toa_s                 10119c80 f   libucrtd:xtoa.obj
 0002:000b7cf0       __i64tow                   10119cf0 f   libucrtd:xtoa.obj
 0002:000b7d60       __i64tow_s                 10119d60 f   libucrtd:xtoa.obj
 0002:000b7dd0       __itoa                     10119dd0 f   libucrtd:xtoa.obj
 0002:000b7e30       __itoa_s                   10119e30 f   libucrtd:xtoa.obj
 0002:000b7e90       __itow                     10119e90 f   libucrtd:xtoa.obj
 0002:000b7ef0       __itow_s                   10119ef0 f   libucrtd:xtoa.obj
 0002:000b7f50       __ltoa                     10119f50 f   libucrtd:xtoa.obj
 0002:000b7fb0       __ltoa_s                   10119fb0 f   libucrtd:xtoa.obj
 0002:000b8010       __ltow                     1011a010 f   libucrtd:xtoa.obj
 0002:000b8070       __ltow_s                   1011a070 f   libucrtd:xtoa.obj
 0002:000b80d0       __ui64toa                  1011a0d0 f   libucrtd:xtoa.obj
 0002:000b8100       __ui64toa_s                1011a100 f   libucrtd:xtoa.obj
 0002:000b8130       __ui64tow                  1011a130 f   libucrtd:xtoa.obj
 0002:000b8160       __ui64tow_s                1011a160 f   libucrtd:xtoa.obj
 0002:000b8190       __ultoa                    1011a190 f   libucrtd:xtoa.obj
 0002:000b81c0       __ultoa_s                  1011a1c0 f   libucrtd:xtoa.obj
 0002:000b81f0       __ultow                    1011a1f0 f   libucrtd:xtoa.obj
 0002:000b8220       __ultow_s                  1011a220 f   libucrtd:xtoa.obj
 0002:000b8b40       __mbstowcs_l               1011ab40 f   libucrtd:mbstowcs.obj
 0002:000b8b90       __mbstowcs_s_l             1011ab90 f   libucrtd:mbstowcs.obj
 0002:000b8bf0       _mbstowcs                  1011abf0 f   libucrtd:mbstowcs.obj
 0002:000b8c40       _mbstowcs_s                1011ac40 f   libucrtd:mbstowcs.obj
 0002:000b9770       __wcstombs_l               1011b770 f   libucrtd:wcstombs.obj
 0002:000b97c0       __wcstombs_s_l             1011b7c0 f   libucrtd:wcstombs.obj
 0002:000b9820       _wcstombs                  1011b820 f   libucrtd:wcstombs.obj
 0002:000b9870       _wcstombs_s                1011b870 f   libucrtd:wcstombs.obj
 0002:000b98d0       ___acrt_OutputDebugStringA@4 1011b8d0 f   libucrtd:outputdebugstringa.obj
 0002:000b9980       ??$__acrt_fenv_shift_bits@W4__acrt_fenv_abstract_control@@@@YA?AW4__acrt_fenv_abstract_control@@W40@0I@Z 1011b980 f i libucrtd:_fenvutils.obj
 0002:000b99b0       ??$__acrt_fenv_shift_bits@W4__acrt_fenv_abstract_status@@@@YA?AW4__acrt_fenv_abstract_status@@W40@0I@Z 1011b9b0 f i libucrtd:_fenvutils.obj
 0002:000b99e0       ??$__acrt_fenv_translate_bit@W4__acrt_fenv_abstract_control@@W4__acrt_fenv_machine_sse_control@@@@YA?AW4__acrt_fenv_abstract_control@@W4__acrt_fenv_machine_sse_control@@0W40@1@Z 1011b9e0 f i libucrtd:_fenvutils.obj
 0002:000b9a30       ??$__acrt_fenv_translate_bit@W4__acrt_fenv_abstract_control@@W4__acrt_fenv_machine_x87_control@@@@YA?AW4__acrt_fenv_abstract_control@@W4__acrt_fenv_machine_x87_control@@0W40@1@Z 1011ba30 f i libucrtd:_fenvutils.obj
 0002:000b9a80       ??$__acrt_fenv_translate_bit@W4__acrt_fenv_abstract_status@@W4__acrt_fenv_machine_sse_status@@@@YA?AW4__acrt_fenv_abstract_status@@W4__acrt_fenv_machine_sse_status@@0W40@1@Z 1011ba80 f i libucrtd:_fenvutils.obj
 0002:000b9ad0       ??$__acrt_fenv_translate_bit@W4__acrt_fenv_abstract_status@@W4__acrt_fenv_machine_x87_status@@@@YA?AW4__acrt_fenv_abstract_status@@W4__acrt_fenv_machine_x87_status@@0W40@1@Z 1011bad0 f i libucrtd:_fenvutils.obj
 0002:000b9b20       ??$__acrt_fenv_translate_bit@W4__acrt_fenv_machine_sse_control@@W4__acrt_fenv_abstract_control@@@@YA?AW4__acrt_fenv_machine_sse_control@@W4__acrt_fenv_abstract_control@@0W40@1@Z 1011bb20 f i libucrtd:_fenvutils.obj
 0002:000b9b70       ??$__acrt_fenv_translate_bit@W4__acrt_fenv_machine_sse_status@@W4__acrt_fenv_abstract_status@@@@YA?AW4__acrt_fenv_machine_sse_status@@W4__acrt_fenv_abstract_status@@0W40@1@Z 1011bb70 f i libucrtd:_fenvutils.obj
 0002:000b9bc0       ??$__acrt_fenv_translate_bit@W4__acrt_fenv_machine_x87_control@@W4__acrt_fenv_abstract_control@@@@YA?AW4__acrt_fenv_machine_x87_control@@W4__acrt_fenv_abstract_control@@0W40@1@Z 1011bbc0 f i libucrtd:_fenvutils.obj
 0002:000b9c10       ??$__acrt_fenv_translate_bit@W4__acrt_fenv_machine_x87_status@@W4__acrt_fenv_abstract_status@@@@YA?AW4__acrt_fenv_machine_x87_status@@W4__acrt_fenv_abstract_status@@0W40@1@Z 1011bc10 f i libucrtd:_fenvutils.obj
 0002:000b9c60       ??$__acrt_fenv_unshift_bits@W4__acrt_fenv_abstract_control@@@@YA?AW4__acrt_fenv_abstract_control@@W40@0I@Z 1011bc60 f i libucrtd:_fenvutils.obj
 0002:000b9c90       ??$__acrt_fenv_unshift_bits@W4__acrt_fenv_abstract_status@@@@YA?AW4__acrt_fenv_abstract_status@@W40@0I@Z 1011bc90 f i libucrtd:_fenvutils.obj
 0002:000ba950       ??I@YA?AW4__acrt_fenv_abstract_control@@W40@0@Z 1011c950 f i libucrtd:_fenvutils.obj
 0002:000ba960       ??I@YA?AW4__acrt_fenv_abstract_status@@W40@0@Z 1011c960 f i libucrtd:_fenvutils.obj
 0002:000ba970       ??I@YA?AW4__acrt_fenv_machine_sse_control@@W40@0@Z 1011c970 f i libucrtd:_fenvutils.obj
 0002:000ba990       ??I@YA?AW4__acrt_fenv_machine_sse_status@@W40@0@Z 1011c990 f i libucrtd:_fenvutils.obj
 0002:000ba9a0       ??I@YA?AW4__acrt_fenv_machine_x87_control@@W40@0@Z 1011c9a0 f i libucrtd:_fenvutils.obj
 0002:000ba9c0       ??I@YA?AW4__acrt_fenv_machine_x87_status@@W40@0@Z 1011c9c0 f i libucrtd:_fenvutils.obj
 0002:000ba9d0       ??U@YA?AW4__acrt_fenv_abstract_control@@W40@0@Z 1011c9d0 f i libucrtd:_fenvutils.obj
 0002:000ba9e0       ??U@YA?AW4__acrt_fenv_abstract_status@@W40@0@Z 1011c9e0 f i libucrtd:_fenvutils.obj
 0002:000ba9f0       ??U@YA?AW4__acrt_fenv_machine_sse_control@@W40@0@Z 1011c9f0 f i libucrtd:_fenvutils.obj
 0002:000baa10       ??U@YA?AW4__acrt_fenv_machine_x87_control@@W40@0@Z 1011ca10 f i libucrtd:_fenvutils.obj
 0002:000baa30       ??_5@YAAAW4__acrt_fenv_abstract_control@@AAW40@W40@@Z 1011ca30 f i libucrtd:_fenvutils.obj
 0002:000baa50       ??_5@YAAAW4__acrt_fenv_abstract_status@@AAW40@W40@@Z 1011ca50 f i libucrtd:_fenvutils.obj
 0002:000baa70       ??_5@YAAAW4__acrt_fenv_machine_sse_control@@AAW40@W40@@Z 1011ca70 f i libucrtd:_fenvutils.obj
 0002:000baaa0       ??_5@YAAAW4__acrt_fenv_machine_sse_status@@AAW40@W40@@Z 1011caa0 f i libucrtd:_fenvutils.obj
 0002:000baac0       ??_5@YAAAW4__acrt_fenv_machine_x87_control@@AAW40@W40@@Z 1011cac0 f i libucrtd:_fenvutils.obj
 0002:000baaf0       ??_5@YAAAW4__acrt_fenv_machine_x87_status@@AAW40@W40@@Z 1011caf0 f i libucrtd:_fenvutils.obj
 0002:000bab10       ?__acrt_fenv_shift_abstract_sse_control@@YA?AW4__acrt_fenv_abstract_control@@W41@@Z 1011cb10 f i libucrtd:_fenvutils.obj
 0002:000bab70       ?__acrt_fenv_shift_abstract_sse_status@@YA?AW4__acrt_fenv_abstract_status@@W41@@Z 1011cb70 f i libucrtd:_fenvutils.obj
 0002:000bab90       ?__acrt_fenv_shift_abstract_x87_control@@YA?AW4__acrt_fenv_abstract_control@@W41@@Z 1011cb90 f i libucrtd:_fenvutils.obj
 0002:000babf0       ?__acrt_fenv_shift_abstract_x87_status@@YA?AW4__acrt_fenv_abstract_status@@W41@@Z 1011cbf0 f i libucrtd:_fenvutils.obj
 0002:000bac10       ?__acrt_fenv_unshift_abstract_sse_control@@YA?AW4__acrt_fenv_abstract_control@@W41@@Z 1011cc10 f i libucrtd:_fenvutils.obj
 0002:000bac70       ?__acrt_fenv_unshift_abstract_sse_status@@YA?AW4__acrt_fenv_abstract_status@@W41@@Z 1011cc70 f i libucrtd:_fenvutils.obj
 0002:000bac90       ?__acrt_fenv_unshift_abstract_x87_control@@YA?AW4__acrt_fenv_abstract_control@@W41@@Z 1011cc90 f i libucrtd:_fenvutils.obj
 0002:000bacf0       ?__acrt_fenv_unshift_abstract_x87_status@@YA?AW4__acrt_fenv_abstract_status@@W41@@Z 1011ccf0 f i libucrtd:_fenvutils.obj
 0002:000bb3e0       ___acrt_fenv_expand_round_control 1011d3e0 f   libucrtd:_fenvutils.obj
 0002:000bb440       ___acrt_fenv_get_common_round_control 1011d440 f   libucrtd:_fenvutils.obj
 0002:000bb4b0       ___acrt_fenv_get_control   1011d4b0 f   libucrtd:_fenvutils.obj
 0002:000bb560       ___acrt_fenv_get_fp_status_word_from_exception_mask 1011d560 f   libucrtd:_fenvutils.obj
 0002:000bb5c0       ___acrt_fenv_get_status    1011d5c0 f   libucrtd:_fenvutils.obj
 0002:000bb660       ___acrt_fenv_set_control   1011d660 f   libucrtd:_fenvutils.obj
 0002:000bb6b0       ___acrt_fenv_set_status    1011d6b0 f   libucrtd:_fenvutils.obj
 0002:000bb860       _qsort                     1011d860 f   libucrtd:qsort.obj
 0002:000bc100       _strpbrk                   1011e100 f   libucrtd:strpbrk.obj
 0002:000bc150       ??B?$__crt_scoped_stack_ptr@_W@@QBE_NXZ 1011e150 f i libucrtd:lcmapstringa.obj
 0002:000bc660       ___acrt_LCMapStringA       1011e660 f   libucrtd:lcmapstringa.obj
 0002:000bc710       __wcsnicoll                1011e710 f   libucrtd:wcsnicol.obj
 0002:000bc940       __wcsnicoll_l              1011e940 f   libucrtd:wcsnicol.obj
 0002:000bcc20       __strnicoll                1011ec20 f   libucrtd:strnicol.obj
 0002:000bcc80       __strnicoll_l              1011ec80 f   libucrtd:strnicol.obj
 0002:000bcff0       ___acrt_SetEnvironmentVariableA 1011eff0 f   libucrtd:setenvironmentvariablea.obj
 0002:000bd0f0       ?dangerous_get_state_array@?$dual_state_global@H@__crt_state_management@@QAEPAHXZ 1011f0f0 f i libucrtd:txtmode.obj
 0002:000bd110       ___acrt_initialize_fmode   1011f110 f   libucrtd:txtmode.obj
 0002:000bd180       ___p__fmode                1011f180 f   libucrtd:txtmode.obj
 0002:000bd1a0       ?__mbrtoc32_utf8@__crt_mbstring@@YAIPA_UPBDIPAU_Mbstatet@@AAV__crt_cached_ptd_host@@@Z 1011f1a0 f   libucrtd:mbrtoc32.obj
 0002:000bd550       _mbrtoc32                  1011f550 f   libucrtd:mbrtoc32.obj
 0002:000bd6e0       ___dcrt_lowio_ensure_console_output_initialized 1011f6e0 f   libucrtd:initcon.obj
 0002:000bd710       ___dcrt_terminate_console_output 1011f710 f   libucrtd:initcon.obj
 0002:000bd740       ___dcrt_write_console      1011f740 f   libucrtd:initcon.obj
 0002:000bd780       __malloc_base              1011f780 f   libucrtd:malloc_base.obj
 0002:000bd830       __set_error_mode           1011f830 f   libucrtd:set_error_mode.obj
 0002:000bd920       ___acrt_GetStringTypeW     1011f920 f   libucrtd:getstringtypew.obj
 0002:000bd950       __87except                 1011f950 f   libucrtd:87except.obj
 0002:000bdbc0       __frnd                     1011fbc0 f   libucrtd:frnd.obj
 0002:000bdbe0       __chgsign                  1011fbe0 f   libucrtd:ieeemisc.obj
 0002:000bdc20       __chgsignf                 1011fc20 f   libucrtd:ieeemisc.obj
 0002:000bdc70       __copysign                 1011fc70 f   libucrtd:ieeemisc.obj
 0002:000bdcb0       __copysignf                1011fcb0 f   libucrtd:ieeemisc.obj
 0002:000bdd10       __finite                   1011fd10 f   libucrtd:ieeemisc.obj
 0002:000bdd40       __fpclass                  1011fd40 f   libucrtd:ieeemisc.obj
 0002:000bde70       __isnan                    1011fe70 f   libucrtd:ieeemisc.obj
 0002:000bded0       __logb                     1011fed0 f   libucrtd:ieeemisc.obj
 0002:000be030       __nextafter                10120030 f   libucrtd:ieeemisc.obj
 0002:000be060       __scalb                    10120060 f   libucrtd:ieeemisc.obj
 0002:000be090       ___ascii_wcsnicmp          10120090 f   libucrtd:wcsnicmp.obj
 0002:000be140       __wcsnicmp                 10120140 f   libucrtd:wcsnicmp.obj
 0002:000be2d0       __wcsnicmp_l               101202d0 f   libucrtd:wcsnicmp.obj
 0002:000be570       ___acrt_LCMapStringW       10120570 f   libucrtd:lcmapstringw.obj
 0002:000be5f0       ??$parse_integer_from_string@JDPAPAD@__crt_strtox@@YAJQBDQAPADHQAU__crt_locale_pointers@@@Z 101205f0 f i libucrtd:strtox.obj
 0002:000be660       ??$parse_integer_from_string@J_WPAPA_W@__crt_strtox@@YAJQB_WQAPA_WHQAU__crt_locale_pointers@@@Z 10120660 f i libucrtd:strtox.obj
 0002:000be6d0       ??$parse_integer_from_string@KDPAPAD@__crt_strtox@@YAKQBDQAPADHQAU__crt_locale_pointers@@@Z 101206d0 f i libucrtd:strtox.obj
 0002:000be740       ??$parse_integer_from_string@K_WPAPA_W@__crt_strtox@@YAKQB_WQAPA_WHQAU__crt_locale_pointers@@@Z 10120740 f i libucrtd:strtox.obj
 0002:000be7b0       ??$parse_integer_from_string@_JDPAPAD@__crt_strtox@@YA_JQBDQAPADHQAU__crt_locale_pointers@@@Z 101207b0 f i libucrtd:strtox.obj
 0002:000be820       ??$parse_integer_from_string@_J_WPAPA_W@__crt_strtox@@YA_JQB_WQAPA_WHQAU__crt_locale_pointers@@@Z 10120820 f i libucrtd:strtox.obj
 0002:000be890       ??$parse_integer_from_string@_KDPAPAD@__crt_strtox@@YA_KQBDQAPADHQAU__crt_locale_pointers@@@Z 10120890 f i libucrtd:strtox.obj
 0002:000be900       ??$parse_integer_from_string@_K_WPAPA_W@__crt_strtox@@YA_KQB_WQAPA_WHQAU__crt_locale_pointers@@@Z 10120900 f i libucrtd:strtox.obj
 0002:000be970       __strtoi64                 10120970 f   libucrtd:strtox.obj
 0002:000be9a0       __strtoi64_l               101209a0 f   libucrtd:strtox.obj
 0002:000be9d0       __strtoimax_l              101209d0 f   libucrtd:strtox.obj
 0002:000bea00       __strtol_l                 10120a00 f   libucrtd:strtox.obj
 0002:000bea30       __strtoll_l                10120a30 f   libucrtd:strtox.obj
 0002:000bea60       __strtoui64                10120a60 f   libucrtd:strtox.obj
 0002:000bea90       __strtoui64_l              10120a90 f   libucrtd:strtox.obj
 0002:000beac0       __strtoul_l                10120ac0 f   libucrtd:strtox.obj
 0002:000beaf0       __strtoull_l               10120af0 f   libucrtd:strtox.obj
 0002:000beb20       __strtoumax_l              10120b20 f   libucrtd:strtox.obj
 0002:000beb50       __wcstoi64                 10120b50 f   libucrtd:strtox.obj
 0002:000beb80       __wcstoi64_l               10120b80 f   libucrtd:strtox.obj
 0002:000bebb0       __wcstoimax_l              10120bb0 f   libucrtd:strtox.obj
 0002:000bebe0       __wcstol_l                 10120be0 f   libucrtd:strtox.obj
 0002:000bec10       __wcstoll_l                10120c10 f   libucrtd:strtox.obj
 0002:000bec40       __wcstoui64                10120c40 f   libucrtd:strtox.obj
 0002:000bec70       __wcstoui64_l              10120c70 f   libucrtd:strtox.obj
 0002:000beca0       __wcstoul_l                10120ca0 f   libucrtd:strtox.obj
 0002:000becd0       __wcstoull_l               10120cd0 f   libucrtd:strtox.obj
 0002:000bed00       __wcstoumax_l              10120d00 f   libucrtd:strtox.obj
 0002:000bed30       _strtoimax                 10120d30 f   libucrtd:strtox.obj
 0002:000bed60       _strtol                    10120d60 f   libucrtd:strtox.obj
 0002:000bed90       _strtoll                   10120d90 f   libucrtd:strtox.obj
 0002:000bedc0       _strtoul                   10120dc0 f   libucrtd:strtox.obj
 0002:000bedf0       _strtoull                  10120df0 f   libucrtd:strtox.obj
 0002:000bee20       _strtoumax                 10120e20 f   libucrtd:strtox.obj
 0002:000bee50       _wcstoimax                 10120e50 f   libucrtd:strtox.obj
 0002:000bee80       _wcstol                    10120e80 f   libucrtd:strtox.obj
 0002:000beeb0       _wcstoll                   10120eb0 f   libucrtd:strtox.obj
 0002:000beee0       _wcstoul                   10120ee0 f   libucrtd:strtox.obj
 0002:000bef10       _wcstoull                  10120f10 f   libucrtd:strtox.obj
 0002:000bef40       _wcstoumax                 10120f40 f   libucrtd:strtox.obj
 0002:000c01d0       ??$tcscpy_s@AAPADABIABQBD@?$__crt_char_traits@D@@SAHAAPADABIABQBD@Z 101221d0 f i libucrtd:getenv.obj
 0002:000c0200       ??$tcscpy_s@AAPA_WABIABQB_W@?$__crt_char_traits@_W@@SAHAAPA_WABIABQB_W@Z 10122200 f i libucrtd:getenv.obj
 0002:000c0230       ??$tcscpy_s@ABQADABIABQBD@?$__crt_char_traits@D@@SAHABQADABIABQBD@Z 10122230 f i libucrtd:getenv.obj
 0002:000c0260       ??$tcscpy_s@ABQA_WABIABQB_W@?$__crt_char_traits@_W@@SAHABQA_WABIABQB_W@Z 10122260 f i libucrtd:getenv.obj
 0002:000c0290       ??$tcsnicoll@AAPADABQBDABI@?$__crt_char_traits@D@@SAHAAPADABQBDABI@Z 10122290 f i libucrtd:getenv.obj
 0002:000c02c0       ??$tcsnicoll@AAPA_WABQB_WABI@?$__crt_char_traits@_W@@SAHAAPA_WABQB_WABI@Z 101222c0 f i libucrtd:getenv.obj
 0002:000c02f0       ??$tcsnlen@ABQBDH@?$__crt_char_traits@D@@SAIABQBD$$QAH@Z 101222f0 f i libucrtd:getenv.obj
 0002:000c0320       ??$tcsnlen@ABQB_WH@?$__crt_char_traits@_W@@SAIABQB_W$$QAH@Z 10122320 f i libucrtd:getenv.obj
 0002:000c0350       __dupenv_s                 10122350 f   libucrtd:getenv.obj
 0002:000c0380       __dupenv_s_dbg             10122380 f   libucrtd:getenv.obj
 0002:000c03b0       __wdupenv_s                101223b0 f   libucrtd:getenv.obj
 0002:000c03e0       __wdupenv_s_dbg            101223e0 f   libucrtd:getenv.obj
 0002:000c0410       __wgetenv                  10122410 f   libucrtd:getenv.obj
 0002:000c0430       __wgetenv_s                10122430 f   libucrtd:getenv.obj
 0002:000c0460       _getenv                    10122460 f   libucrtd:getenv.obj
 0002:000c0480       _getenv_s                  10122480 f   libucrtd:getenv.obj
 0002:000c0690       ___acrt_GetLocaleInfoA     10122690 f   libucrtd:getlocaleinfoa.obj
 0002:000c0b30       ??$?RU__crt_stdio_stream_data@@@__crt_internal_free_policy@@QBEXQBU__crt_stdio_stream_data@@@Z 10122b30 f i libucrtd:stream.obj
 0002:000c0b60       ??0?$__crt_unique_heap_ptr@U__crt_stdio_stream_data@@U__crt_internal_free_policy@@@@QAE@QAU__crt_stdio_stream_data@@@Z 10122b60 f i libucrtd:stream.obj
 0002:000c0b80       ??0__crt_stdio_stream@@QAE@XZ 10122b80 f i libucrtd:stream.obj
 0002:000c0ba0       ??1?$__crt_unique_heap_ptr@U__crt_stdio_stream_data@@U__crt_internal_free_policy@@@@QAE@XZ 10122ba0 f i libucrtd:stream.obj
 0002:000c0bc0       ?__acrt_stdio_allocate_stream@@YA?AV__crt_stdio_stream@@XZ 10122bc0 f   libucrtd:stream.obj
 0002:000c0cf0       ?__acrt_stdio_free_stream@@YAXV__crt_stdio_stream@@@Z 10122cf0 f   libucrtd:stream.obj
 0002:000c0d90       ?deallocate@__crt_stdio_stream@@QAEXXZ 10122d90 f i libucrtd:stream.obj
 0002:000c0db0       ?detach@?$__crt_unique_heap_ptr@U__crt_stdio_stream_data@@U__crt_internal_free_policy@@@@QAEPAU__crt_stdio_stream_data@@XZ 10122db0 f i libucrtd:stream.obj
 0002:000c0f70       ?lock@__crt_stdio_stream@@QBEXXZ 10122f70 f i libucrtd:stream.obj
 0002:000c0fa0       ?release@?$__crt_unique_heap_ptr@U__crt_stdio_stream_data@@U__crt_internal_free_policy@@@@QAEXXZ 10122fa0 f i libucrtd:stream.obj
 0002:000c0fd0       ?try_allocate@__crt_stdio_stream@@QAE_NXZ 10122fd0 f i libucrtd:stream.obj
 0002:000c1030       ?unlock@__crt_stdio_stream@@QBEXXZ 10123030 f i libucrtd:stream.obj
 0002:000c1060       _log10                     10123060 f   libucrtd:log10.obj
 0002:000c10c0       _ceil                      101230c0 f   libucrtd:ceil_pentium4.obj
 0002:000c1100       __ceil_pentium4            10123100 f   libucrtd:ceil_pentium4.obj
 0002:000c1230       _fegetenv                  10123230 f   libucrtd:fegetenv.obj
 0002:000c1260       _fesetenv                  10123260 f   libucrtd:fesetenv.obj
 0002:000c12e0       _feholdexcept              101232e0 f   libucrtd:feholdexcept.obj
 0002:000c1360       ?reset_and_return@__crt_mbstring@@YAIIPAU_Mbstatet@@@Z 10123360 f   libucrtd:common_utf8.obj
 0002:000c1390       ?return_illegal_sequence@__crt_mbstring@@YAIPAU_Mbstatet@@AAV__crt_cached_ptd_host@@@Z 10123390 f   libucrtd:common_utf8.obj
 0002:000c13e0       ___acrt_stdio_allocate_buffer_nolock 101233e0 f   libucrtd:_getbuf.obj
 0002:000c1550       ?__wcsrtombs_utf8@__crt_mbstring@@YAIPADPAPB_WIPAU_Mbstatet@@AAV__crt_cached_ptd_host@@@Z 10123550 f   libucrtd:wcrtomb.obj
 0002:000c1f80       _wcrtomb                   10123f80 f   libucrtd:wcrtomb.obj
 0002:000c1ff0       _wcrtomb_s                 10123ff0 f   libucrtd:wcrtomb.obj
 0002:000c2050       _wcsrtombs                 10124050 f   libucrtd:wcrtomb.obj
 0002:000c20a0       _wcsrtombs_s               101240a0 f   libucrtd:wcrtomb.obj
 0002:000c25a0       _wctob                     101245a0 f   libucrtd:wcrtomb.obj
 0002:000c2690       ___strncnt                 10124690 f   libucrtd:strncnt.obj
 0002:000c26f0       ___acrt_CompareStringW     101246f0 f   libucrtd:comparestringw.obj
 0002:000c27c0       __strnicmp                 101247c0 f   libucrtd:strnicmp.obj
 0002:000c29f0       __strnicmp_l               101249f0 f   libucrtd:strnicmp.obj
 0002:000c32b0       ___acrt_CompareStringA     101252b0 f   libucrtd:comparestringa.obj
 0002:000c3320       _ldexp                     10125320 f   libucrtd:ldexp.obj
 0002:000c36d0       _nextafter                 101256d0 f   libucrtd:nextafter.obj
 0002:000c3700       __CIlog10                  10125700 f   libucrtd:log10_impl.obj
 0002:000c373b       __CIlog10_default          1012573b f   libucrtd:log10_impl.obj
 0002:000c374f       __log10_default            1012574f     libucrtd:log10_impl.obj
 0002:000c3860       __CIlog10_pentium4         10125860 f   libucrtd:log10_pentium4.obj
 0002:000c3878       __log10_pentium4           10125878     libucrtd:log10_pentium4.obj
 0002:000c3ba0       __ceil_default             10125ba0 f   libucrtd:ceil.obj
 0002:000c3d00       ?__c16rtomb_utf8@__crt_mbstring@@YAIPAD_SPAU_Mbstatet@@AAV__crt_cached_ptd_host@@@Z 10125d00 f   libucrtd:c16rtomb.obj
 0002:000c3f80       _c16rtomb                  10125f80 f   libucrtd:c16rtomb.obj
 0002:000c3fd0       ___ascii_strnicmp          10125fd0 f   libucrtd:_strnicm.obj
 0002:000c4050       _nexttoward                10126050 f   libucrtd:nexttoward.obj
 0002:000c45a0       __d_int                    101265a0 f   libucrtd:_test.obj
 0002:000c48f0       __dtest                    101268f0 f   libucrtd:_test.obj
 0002:000c4a50       __fd_int                   10126a50 f   libucrtd:_test.obj
 0002:000c4ca0       __fdtest                   10126ca0 f   libucrtd:_test.obj
 0002:000c4da0       __fperrraise               10126da0 f   libucrtd:_test.obj
 0002:000c4de0       __ld_int                   10126de0 f   libucrtd:_test.obj
 0002:000c4e00       __ldtest                   10126e00 f   libucrtd:_test.obj
 0002:000c4e20       ??_4@YAAAW4__acrt_fenv_abstract_status@@AAW40@W40@@Z 10126e20 f i libucrtd:fegetexceptflag.obj
 0002:000c4e40       _fegetexceptflag           10126e40 f   libucrtd:fegetexceptflag.obj
 0002:000c4ea0       ??S@YA?AW4__acrt_fenv_abstract_status@@W40@@Z 10126ea0 f i libucrtd:fesetexceptflag.obj
 0002:000c4eb0       _fesetexceptflag           10126eb0 f   libucrtd:fesetexceptflag.obj
 0002:000c4fb0       _fetestexcept              10126fb0 f   libucrtd:fetestexcept.obj
 0002:000c4fe0       _GetPrivateProfileStringA@24 10126fe0 f   kernel32:KERNEL32.dll
 0002:000c4fe6       _IsDebuggerPresent@0       10126fe6 f   kernel32:KERNEL32.dll
 0002:000c4fec       _RaiseException@16         10126fec f   kernel32:KERNEL32.dll
 0002:000c4ff2       _MultiByteToWideChar@24    10126ff2 f   kernel32:KERNEL32.dll
 0002:000c4ff8       _WideCharToMultiByte@32    10126ff8 f   kernel32:KERNEL32.dll
 0002:000c4ffe       _QueryPerformanceCounter@4 10126ffe f   kernel32:KERNEL32.dll
 0002:000c5004       _GetCurrentProcessId@0     10127004 f   kernel32:KERNEL32.dll
 0002:000c500a       _GetCurrentThreadId@0      1012700a f   kernel32:KERNEL32.dll
 0002:000c5010       _GetSystemTimeAsFileTime@4 10127010 f   kernel32:KERNEL32.dll
 0002:000c5016       _InitializeSListHead@4     10127016 f   kernel32:KERNEL32.dll
 0002:000c501c       _UnhandledExceptionFilter@4 1012701c f   kernel32:KERNEL32.dll
 0002:000c5022       _SetUnhandledExceptionFilter@4 10127022 f   kernel32:KERNEL32.dll
 0002:000c5028       _GetStartupInfoW@4         10127028 f   kernel32:KERNEL32.dll
 0002:000c502e       _IsProcessorFeaturePresent@4 1012702e f   kernel32:KERNEL32.dll
 0002:000c5034       _GetModuleHandleW@4        10127034 f   kernel32:KERNEL32.dll
 0002:000c503a       _GetCurrentProcess@0       1012703a f   kernel32:KERNEL32.dll
 0002:000c5040       _TerminateProcess@8        10127040 f   kernel32:KERNEL32.dll
 0002:000c5046       _GetLastError@0            10127046 f   kernel32:KERNEL32.dll
 0002:000c504c       _HeapAlloc@12              1012704c f   kernel32:KERNEL32.dll
 0002:000c5052       _HeapFree@12               10127052 f   kernel32:KERNEL32.dll
 0002:000c5058       _GetProcessHeap@0          10127058 f   kernel32:KERNEL32.dll
 0002:000c505e       _VirtualQuery@12           1012705e f   kernel32:KERNEL32.dll
 0002:000c5064       _FreeLibrary@4             10127064 f   kernel32:KERNEL32.dll
 0002:000c506a       _GetProcAddress@8          1012706a f   kernel32:KERNEL32.dll
 0002:000c5070       _InterlockedPushEntrySList@8 10127070 f   kernel32:KERNEL32.dll
 0002:000c5076       _InterlockedFlushSList@4   10127076 f   kernel32:KERNEL32.dll
 0002:000c507c       _GetModuleFileNameW@12     1012707c f   kernel32:KERNEL32.dll
 0002:000c5082       _LoadLibraryExW@12         10127082 f   kernel32:KERNEL32.dll
 0002:000c5088       _RtlUnwind@16              10127088 f   kernel32:KERNEL32.dll
 0002:000c508e       _SetLastError@4            1012708e f   kernel32:KERNEL32.dll
 0002:000c5094       _EnterCriticalSection@4    10127094 f   kernel32:KERNEL32.dll
 0002:000c509a       _LeaveCriticalSection@4    1012709a f   kernel32:KERNEL32.dll
 0002:000c50a0       _DeleteCriticalSection@4   101270a0 f   kernel32:KERNEL32.dll
 0002:000c50a6       _InitializeCriticalSectionAndSpinCount@8 101270a6 f   kernel32:KERNEL32.dll
 0002:000c50ac       _TlsAlloc@0                101270ac f   kernel32:KERNEL32.dll
 0002:000c50b2       _TlsGetValue@4             101270b2 f   kernel32:KERNEL32.dll
 0002:000c50b8       _TlsSetValue@8             101270b8 f   kernel32:KERNEL32.dll
 0002:000c50be       _TlsFree@4                 101270be f   kernel32:KERNEL32.dll
 0002:000c50c4       _EncodePointer@4           101270c4 f   kernel32:KERNEL32.dll
 0002:000c50ca       _ExitProcess@4             101270ca f   kernel32:KERNEL32.dll
 0002:000c50d0       _GetModuleHandleExW@12     101270d0 f   kernel32:KERNEL32.dll
 0002:000c50d6       _CreateFileW@28            101270d6 f   kernel32:KERNEL32.dll
 0002:000c50dc       _GetDriveTypeW@4           101270dc f   kernel32:KERNEL32.dll
 0002:000c50e2       _GetFileInformationByHandle@8 101270e2 f   kernel32:KERNEL32.dll
 0002:000c50e8       _GetFileType@4             101270e8 f   kernel32:KERNEL32.dll
 0002:000c50ee       _CloseHandle@4             101270ee f   kernel32:KERNEL32.dll
 0002:000c50f4       _PeekNamedPipe@24          101270f4 f   kernel32:KERNEL32.dll
 0002:000c50fa       _SystemTimeToTzSpecificLocalTime@12 101270fa f   kernel32:KERNEL32.dll
 0002:000c5100       _FileTimeToSystemTime@8    10127100 f   kernel32:KERNEL32.dll
 0002:000c5106       _SetFilePointerEx@20       10127106 f   kernel32:KERNEL32.dll
 0002:000c510c       _ReadFile@20               1012710c f   kernel32:KERNEL32.dll
 0002:000c5112       _GetConsoleMode@8          10127112 f   kernel32:KERNEL32.dll
 0002:000c5118       _ReadConsoleW@20           10127118 f   kernel32:KERNEL32.dll
 0002:000c511e       _WriteFile@20              1012711e f   kernel32:KERNEL32.dll
 0002:000c5124       _GetConsoleOutputCP@0      10127124 f   kernel32:KERNEL32.dll
 0002:000c512a       _HeapValidate@12           1012712a f   kernel32:KERNEL32.dll
 0002:000c5130       _GetSystemInfo@4           10127130 f   kernel32:KERNEL32.dll
 0002:000c5136       _SetConsoleCtrlHandler@8   10127136 f   kernel32:KERNEL32.dll
 0002:000c513c       _GetDateFormatW@24         1012713c f   kernel32:KERNEL32.dll
 0002:000c5142       _GetTimeFormatW@24         10127142 f   kernel32:KERNEL32.dll
 0002:000c5148       _CompareStringW@24         10127148 f   kernel32:KERNEL32.dll
 0002:000c514e       _LCMapStringW@24           1012714e f   kernel32:KERNEL32.dll
 0002:000c5154       _GetLocaleInfoW@16         10127154 f   kernel32:KERNEL32.dll
 0002:000c515a       _IsValidLocale@8           1012715a f   kernel32:KERNEL32.dll
 0002:000c5160       _GetUserDefaultLCID@0      10127160 f   kernel32:KERNEL32.dll
 0002:000c5166       _EnumSystemLocalesW@8      10127166 f   kernel32:KERNEL32.dll
 0002:000c516c       _SetCurrentDirectoryW@4    1012716c f   kernel32:KERNEL32.dll
 0002:000c5172       _GetCurrentDirectoryW@8    10127172 f   kernel32:KERNEL32.dll
 0002:000c5178       _GetFullPathNameW@16       10127178 f   kernel32:KERNEL32.dll
 0002:000c517e       _GetCurrentThread@0        1012717e f   kernel32:KERNEL32.dll
 0002:000c5184       _SetStdHandle@8            10127184 f   kernel32:KERNEL32.dll
 0002:000c518a       _GetStdHandle@4            1012718a f   kernel32:KERNEL32.dll
 0002:000c5190       _OutputDebugStringW@4      10127190 f   kernel32:KERNEL32.dll
 0002:000c5196       _WriteConsoleW@20          10127196 f   kernel32:KERNEL32.dll
 0002:000c519c       _FindClose@4               1012719c f   kernel32:KERNEL32.dll
 0002:000c51a2       _FindFirstFileExW@24       101271a2 f   kernel32:KERNEL32.dll
 0002:000c51a8       _FindNextFileW@8           101271a8 f   kernel32:KERNEL32.dll
 0002:000c51ae       _IsValidCodePage@4         101271ae f   kernel32:KERNEL32.dll
 0002:000c51b4       _GetACP@0                  101271b4 f   kernel32:KERNEL32.dll
 0002:000c51ba       _GetOEMCP@0                101271ba f   kernel32:KERNEL32.dll
 0002:000c51c0       _GetCPInfo@8               101271c0 f   kernel32:KERNEL32.dll
 0002:000c51c6       _GetCommandLineA@0         101271c6 f   kernel32:KERNEL32.dll
 0002:000c51cc       _GetCommandLineW@0         101271cc f   kernel32:KERNEL32.dll
 0002:000c51d2       _GetEnvironmentStringsW@0  101271d2 f   kernel32:KERNEL32.dll
 0002:000c51d8       _FreeEnvironmentStringsW@4 101271d8 f   kernel32:KERNEL32.dll
 0002:000c51de       _SetEnvironmentVariableW@8 101271de f   kernel32:KERNEL32.dll
 0002:000c51e4       _SetEndOfFile@4            101271e4 f   kernel32:KERNEL32.dll
 0002:000c51ea       _HeapReAlloc@16            101271ea f   kernel32:KERNEL32.dll
 0002:000c51f0       _HeapSize@12               101271f0 f   kernel32:KERNEL32.dll
 0002:000c51f6       _HeapQueryInformation@20   101271f6 f   kernel32:KERNEL32.dll
 0002:000c51fc       _DecodePointer@4           101271fc f   kernel32:KERNEL32.dll
 0002:000c5202       _GetTimeZoneInformation@4  10127202 f   kernel32:KERNEL32.dll
 0002:000c5208       _GetStringTypeW@16         10127208 f   kernel32:KERNEL32.dll
 0002:000c520e       _FlushFileBuffers@4        1012720e f   kernel32:KERNEL32.dll
 0002:000c5214       _GetFileSizeEx@8           10127214 f   kernel32:KERNEL32.dll
 0002:000c5220       __FindPESection            10127220 f   LIBCMTD:pesect.obj
 0002:000c52b0       __IsNonwritableInCurrentImage 101272b0 f   LIBCMTD:pesect.obj
 0002:000c5430       __ValidateImageBase        10127430 f   LIBCMTD:pesect.obj
 0002:000c54b0       ??1type_info@@UAE@XZ       101274b0 f   LIBCMTD:std_type_info_static.obj
 0002:000c54d0       ??_Etype_info@@UAEPAXI@Z   101274d0 f i LIBCMTD:std_type_info_static.obj
 0002:000c54d0       ??_Gtype_info@@UAEPAXI@Z   101274d0 f i LIBCMTD:std_type_info_static.obj
 0002:000c5510       __allshl                   10127510 f   LIBCMTD:llshl.obj
 0002:000c5540       __aulldiv                  10127540 f   LIBCMTD:ulldiv.obj
 0002:000c55d0       __aullrem                  101275d0 f   LIBCMTD:ullrem.obj
 0002:000c5670       ??3@YAXPAXI@Z              10127670 f   LIBCMTD:delete_scalar_size.obj
 0002:000c5690       __initialize_default_precision 10127690 f   LIBCMTD:default_precision.obj
 0002:000c56c0       __alldiv                   101276c0 f   LIBCMTD:lldiv.obj
 0002:000c57a0       __allmul                   101277a0 f   LIBCMTD:llmul.obj
 0002:000c57f0       __allrem                   101277f0 f   LIBCMTD:llrem.obj
 0002:000c58d0       __aullshr                  101278d0 f   LIBCMTD:ullshr.obj
 0002:000c5900       __ftol2_sse_excpt          10127900 f   LIBCMTD:ftol2.obj
 0002:000c5910       __ftol2_sse                10127910 f   LIBCMTD:ftol2.obj
 0002:000c5920       __ftoi2                    10127920 f   LIBCMTD:ftol2.obj
 0002:000c59c0       __ftoui2                   101279c0 f   LIBCMTD:ftol2.obj
 0002:000c5a90       __ftol2                    10127a90 f   LIBCMTD:ftol2.obj
 0002:000c5b70       __ftoul2                   10127b70 f   LIBCMTD:ftol2.obj
 0002:000c5c60       __ftoul2_legacy            10127c60 f   LIBCMTD:ftol2.obj
 0002:000c5c90       __alloca_probe_16          10127c90 f   LIBCMTD:alloca16.obj
 0002:000c5ca6       __alloca_probe_8           10127ca6     LIBCMTD:alloca16.obj
 0002:000c5cd0       ??3@YAXPAX@Z               10127cd0 f   LIBCMTD:delete_scalar.obj
 0002:000c5cf0       _wcsrchr                   10127cf0 f   libvcruntimed:wcsrchr.obj
 0002:000c60f0       _memcmp                    101280f0 f   libvcruntimed:memcmp.obj
 0002:000c6bf0       _strrchr                   10128bf0 f   libvcruntimed:strrchr.obj
 0002:000c6d80       _wcschr                    10128d80 f   libvcruntimed:wcschr.obj
 0002:000c6f40       __filter_x86_sse2_floating_point_exception 10128f40 f   LIBCMTD:x86_exception_filter.obj
 0002:000c6f40       __filter_x86_sse2_floating_point_exception_default 10128f40 f   LIBCMTD:x86_exception_filter.obj
 0003:00000000       ___xc_a                    10131000     LIBCMTD:initializers.obj
 0003:00000104       ___xc_z                    10131104     LIBCMTD:initializers.obj
 0003:00000208       ___xi_a                    10131208     LIBCMTD:initializers.obj
 0003:0000030c       ___acrt_stdio_initializer  1013130c     libucrtd:stdio_initializer.obj
 0003:00000310       ___acrt_tran_sse2_initializer 10131310     libucrtd:sse2_initializer.obj
 0003:00000314       ___acrt_multibyte_initializer 10131314     libucrtd:multibyte_initializer.obj
 0003:00000318       ___acrt_timeset_initializer 10131318     libucrtd:timeset_initializer.obj
 0003:0000031c       ___acrt_fmode_initializer  1013131c     libucrtd:fmode_initializer.obj
 0003:00000424       ___xi_z                    10131424     LIBCMTD:initializers.obj
 0003:00000528       ___xp_a                    10131528     LIBCMTD:initializers.obj
 0003:0000062c       ___acrt_locale_terminator  1013162c     libucrtd:locale_initializer.obj
 0003:00000630       ___dcrt_console_output_terminator 10131630     libucrtd:console_output_initializer.obj
 0003:00000738       ___acrt_stdio_terminator   10131738     libucrtd:stdio_initializer.obj
 0003:0000083c       ___xp_z                    1013183c     LIBCMTD:initializers.obj
 0003:00000940       ___xt_a                    10131940     LIBCMTD:initializers.obj
 0003:00000a44       ___xt_z                    10131a44     LIBCMTD:initializers.obj
 0003:00000b50       ??_C@_07PGFIMLCL@Vd_anat@  10131b50     LungAirwayCapacities.obj
 0003:00000b5c       ??_C@_05MFOJNAEH@V_tlc@    10131b5c     LungAirwayCapacities.obj
 0003:00000b64       ??_C@_04BEDGOFLG@V_ic@     10131b64     LungAirwayCapacities.obj
 0003:00000b6c       ??_C@_05CJEBMBCJ@V_frc@    10131b6c     LungAirwayCapacities.obj
 0003:00000b74       ??_C@_05KIMIOPDF@Ht_cm@    10131b74     LungAirwayCapacities.obj
 0003:00000b7c       ??_C@_06GDCELCOG@Crs_pt@   10131b7c     LungAirwayCapacities.obj
 0003:00000b84       ??_C@_0O@KFNLLOMO@FRC_pc_normal@ 10131b84     LungAirwayCapacities.obj
 0003:00000b98       __real@3f20624dd2f1a9fc    10131b98     LungAirwayCapacities.obj
 0003:00000ba8       __real@3f253bd1676640a7    10131ba8     LungAirwayCapacities.obj
 0003:00000bb8       __real@3f48dac258d5842b    10131bb8     LungAirwayCapacities.obj
 0003:00000bc8       __real@3f4f212d77318fc5    10131bc8     LungAirwayCapacities.obj
 0003:00000bd8       __real@3f50624dd2f1a9fc    10131bd8     LungAirwayCapacities.obj
 0003:00000be8       __real@3f5bd1ed9dfdac69    10131be8     LungAirwayCapacities.obj
 0003:00000bf8       __real@3f847ae147ae147b    10131bf8     LungAirwayCapacities.obj
 0003:00000c08       __real@3fe0000000000000    10131c08     LungAirwayCapacities.obj
 0003:00000c18       __real@4002e76c8b439581    10131c18     LungAirwayCapacities.obj
 0003:00000c28       __real@400745a1cac08312    10131c28     LungAirwayCapacities.obj
 0003:00000c38       __real@40084fdf3b645a1d    10131c38     LungAirwayCapacities.obj
 0003:00000c48       __real@4008cac083126e98    10131c48     LungAirwayCapacities.obj
 0003:00000c58       __real@400a624dd2f1a9fc    10131c58     LungAirwayCapacities.obj
 0003:00000c68       __real@404e000000000000    10131c68     LungAirwayCapacities.obj
 0003:00000c80       __xmm@80000000000000008000000000000000 10131c80     LungAirwayCapacities.obj
 0003:00000c98       __real@3feff7ced916872b    10131c98     vsmSimobj32d-vs14:cmdApi.obj
 0003:00000ca8       __real@3fefae147ae147ae    10131ca8     vsmSimobj32d-vs14:integrate.obj
 0003:00000cb8       __real@41efffffffe00000    10131cb8     vsmSimobj32d-vs14:integrate.obj
 0003:00000cd0       __xmm@41f00000000000000000000000000000 10131cd0     vsmSimobj32d-vs14:integrate.obj
 0003:00000ce8       __real@0000000000000000    10131ce8     vsmSimobj32d-vs14:delay.obj
 0003:00000cf8       __real@3fdf5c28f5c28f5c    10131cf8     vsmSimobj32d-vs14:delay.obj
 0003:00000d08       __real@3fdffe5c91d14e3c    10131d08     vsmSimobj32d-vs14:delay.obj
 0003:00000d18       __real@3fefff2e48e8a71e    10131d18     vsmSimobj32d-vs14:delay.obj
 0003:00000d28       __real@4000000000000000    10131d28     vsmSimobj32d-vs14:rk4.obj
 0003:00000d38       __real@4008000000000000    10131d38     vsmSimobj32d-vs14:rk4.obj
 0003:00000d44       __pDefaultRawDllMain       10131d44     LIBCMTD:dll_dllmain.obj
 0003:00000d44       __pRawDllMain              10131d44     LIBCMTD:dll_dllmain.obj
 0003:00000e28       ??_C@_0NN@JMPELKLB@The?5value?5of?5ESP?5was?5not?5proper@ 10131e28     LIBCMTD:error.obj
 0003:00000f38       ??_C@_0BBN@ELNNILBE@A?5cast?5to?5a?5smaller?5data?5type?5h@ 10131f38     LIBCMTD:error.obj
 0003:00001090       ??_C@_0BN@BPOGFMJL@Stack?5memory?5was?5corrupted?$AN?6@ 10132090     LIBCMTD:error.obj
 0003:000010b4       ??_C@_0DG@DAJCDLPN@A?5local?5variable?5was?5used?5befor@ 101320b4     LIBCMTD:error.obj
 0003:000010f4       ??_C@_0CM@JMIDGKLA@Stack?5memory?5around?5_alloca?5was@ 101320f4     LIBCMTD:error.obj
 0003:00001128       ??_C@_0BO@CHIONIOI@Unknown?5Runtime?5Check?5Error?$AN?6@ 10132128     LIBCMTD:error.obj
 0003:00001150       ??_C@_1GM@CNOOJIHC@?$AAR?$AAu?$AAn?$AAt?$AAi?$AAm?$AAe?$AA?5?$AAC?$AAh?$AAe?$AAc?$AAk?$AA?5?$AAE@ 10132150     LIBCMTD:error.obj
 0003:000011d8       ??_C@_1EA@NFKNIFJP@?$AAR?$AAu?$AAn?$AA?9?$AAT?$AAi?$AAm?$AAe?$AA?5?$AAC?$AAh?$AAe?$AAc?$AAk?$AA?5@ 101321d8     LIBCMTD:error.obj
 0003:00001224       ??_C@_0BB@PFFGGCJP@Unknown?5Filename@ 10132224     LIBCMTD:error.obj
 0003:00001238       ??_C@_0BE@GNBOBNCK@Unknown?5Module?5Name@ 10132238     LIBCMTD:error.obj
 0003:00001250       ??_C@_0CA@IODNCDPG@Run?9Time?5Check?5Failure?5?$CD?$CFd?5?9?5?$CFs@ 10132250     LIBCMTD:error.obj
 0003:00001278       ??_C@_0CG@IAFNJNEE@Stack?5corrupted?5near?5unknown?5va@ 10132278     LIBCMTD:error.obj
 0003:000012a8       ??_C@_05MKKEDADM@?$CF?42X?5@ 101322a8     LIBCMTD:error.obj
 0003:000012b0       ??_C@_0EJ@LJKNEOLN@Stack?5area?5around?5_alloca?5memor@ 101322b0     LIBCMTD:error.obj
 0003:00001308       ??_C@_01EEMJAFIK@?6@       10132308     LIBCMTD:error.obj
 0003:0000130c       ??_C@_02LLMPMKNF@?$DO?5@   1013230c     LIBCMTD:error.obj
 0003:00001310       ??_C@_08OMAHNMHJ@?6Data?3?5?$DM@ 10132310     LIBCMTD:error.obj
 0003:0000131c       ??_C@_0CK@DKGBICFE@?6Allocation?5number?5within?5this?5@ 1013231c     LIBCMTD:error.obj
 0003:00001350       ??_C@_07DFDJCKFN@?6Size?3?5@ 10132350     LIBCMTD:error.obj
 0003:0000135c       ??_C@_0N@MHFFIMFG@?6Address?3?50x@ 1013235c     LIBCMTD:error.obj
 0003:00001370       ??_C@_0EI@CLEPFNGI@Stack?5area?5around?5_alloca?5memor@ 10132370     LIBCMTD:error.obj
 0003:000013c8       ??_C@_0BK@ODNDAGKB@?$CFs?$CFs?$CFp?$CFs?$CFzd?$CFs?$CFd?$CFs?$CFs?$CFs?$CFs?$CFs@ 101323c8     LIBCMTD:error.obj
 0003:000013e8       ??_C@_0DE@OHJBPMBP@A?5variable?5is?5being?5used?5withou@ 101323e8     LIBCMTD:error.obj
 0003:00001440       ??_C@_0BJ@HEGAHDFO@Stack?5pointer?5corruption@ 10132440     LIBCMTD:userapi.obj
 0003:00001460       ??_C@_0CK@FEGOIOPB@Cast?5to?5smaller?5type?5causing?5lo@ 10132460     LIBCMTD:userapi.obj
 0003:00001494       ??_C@_0BI@CIGMDCBH@Stack?5memory?5corruption@ 10132494     LIBCMTD:userapi.obj
 0003:000014b0       ??_C@_0CK@CNLNOEPB@Local?5variable?5used?5before?5init@ 101324b0     LIBCMTD:userapi.obj
 0003:000014e4       ??_C@_0BP@OGBCLIBO@Stack?5around?5_alloca?5corrupted@ 101324e4     LIBCMTD:userapi.obj
 0003:00001570       ??_C@_1EI@MLPKHBGE@?$AAa?$AAp?$AAi?$AA?9?$AAm?$AAs?$AA?9?$AAw?$AAi?$AAn?$AA?9?$AAc?$AAo?$AAr?$AAe@ 10132570     LIBCMTD:pdblkup.obj
 0003:000015c8       ??_C@_1BK@JHLNAEJL@?$AAa?$AAd?$AAv?$AAa?$AAp?$AAi?$AA3?$AA2?$AA?4?$AAd?$AAl?$AAl@ 101325c8     LIBCMTD:pdblkup.obj
 0003:000015e8       ??_C@_0O@COHOBMLB@RegOpenKeyExW@ 101325e8     LIBCMTD:pdblkup.obj
 0003:000015f8       ??_C@_0BB@GLNAEDBD@RegQueryValueExW@ 101325f8     LIBCMTD:pdblkup.obj
 0003:0000160c       ??_C@_0M@HLOHPNFA@RegCloseKey@ 1013260c     LIBCMTD:pdblkup.obj
 0003:00001620       ??_C@_1HE@EBEAGLFB@?$AAS?$AAO?$AAF?$AAT?$AAW?$AAA?$AAR?$AAE?$AA?2?$AAW?$AAo?$AAw?$AA6?$AA4?$AA3@ 10132620     LIBCMTD:pdblkup.obj
 0003:000016ac       ??_C@_1BG@EABPBLLF@?$AAP?$AAr?$AAo?$AAd?$AAu?$AAc?$AAt?$AAD?$AAi?$AAr@ 101326ac     LIBCMTD:pdblkup.obj
 0003:000016ec       ??_C@_1BC@JINFINNJ@?$AAM?$AAS?$AAP?$AAD?$AAB?$AA1?$AA4?$AA0@ 101326ec     LIBCMTD:pdblkup.obj
 0003:00001704       ??_C@_0BB@KCIACLNC@PDBOpenValidate5@ 10132704     LIBCMTD:pdblkup.obj
 0003:00001718       ??_C@_01KDCPPGHE@r@        10132718     LIBCMTD:pdblkup.obj
 0003:00001720       ??_C@_0EC@CDJPIOJK@D?3?2a?2_work?21?2s?2src?2vctools?2crt?2@ 10132720     libvcruntimed:std_type_info.obj
 0003:00001770       __pDestructExceptionObject 10132770     libvcruntimed:ehhelpers.obj
 0003:00001bb4       ??_C@_08EHJDFFNH@__based?$CI@ 10132bb4     libvcruntimed:undname.obj
 0003:00001bc0       ??_C@_07KOLFKCDI@__cdecl@  10132bc0     libvcruntimed:undname.obj
 0003:00001bcc       ??_C@_08GHMPAG@__pascal@   10132bcc     libvcruntimed:undname.obj
 0003:00001bd8       ??_C@_09IFJBGAPI@__stdcall@ 10132bd8     libvcruntimed:undname.obj
 0003:00001be4       ??_C@_0L@NPHFGOKO@__thiscall@ 10132be4     libvcruntimed:undname.obj
 0003:00001bf4       ??_C@_0L@JMKHOMEK@__fastcall@ 10132bf4     libvcruntimed:undname.obj
 0003:00001c04       ??_C@_0N@BCKKPABJ@__vectorcall@ 10132c04     libvcruntimed:undname.obj
 0003:00001c14       ??_C@_09HIJEGCPM@__clrcall@ 10132c14     libvcruntimed:undname.obj
 0003:00001c20       ??_C@_06GHPCKEAG@__eabi@   10132c20     libvcruntimed:undname.obj
 0003:00001c28       ??_C@_09IOPIDJLG@__swift_1@ 10132c28     libvcruntimed:undname.obj
 0003:00001c34       ??_C@_09KFNFGKHF@__swift_2@ 10132c34     libvcruntimed:undname.obj
 0003:00001c40       ??_C@_09LMMOFLDE@__swift_3@ 10132c40     libvcruntimed:undname.obj
 0003:00001c4c       ??_C@_07JOMMBBKO@__ptr64@  10132c4c     libvcruntimed:undname.obj
 0003:00001c58       ??_C@_0L@PILCLIHE@__restrict@ 10132c58     libvcruntimed:undname.obj
 0003:00001c68       ??_C@_0M@GFIIJFMG@__unaligned@ 10132c68     libvcruntimed:undname.obj
 0003:00001c78       ??_C@_09DHDLOLLB@restrict?$CI@ 10132c78     libvcruntimed:undname.obj
 0003:00001c84       ??_C@_00CNPNBAHC@@         10132c84     libvcruntimed:undname.obj
 0003:00001c88       ??_C@_04NIHEBCM@?5new@     10132c88     libvcruntimed:undname.obj
 0003:00001c90       ??_C@_07FPCDHGMM@?5delete@ 10132c90     libvcruntimed:undname.obj
 0003:00001c9c       ??_C@_01NEMOKFLO@?$DN@     10132c9c     libvcruntimed:undname.obj
 0003:00001ca0       ??_C@_02GPIOPFAK@?$DO?$DO@ 10132ca0     libvcruntimed:undname.obj
 0003:00001ca4       ??_C@_02FODMEDOG@?$DM?$DM@ 10132ca4     libvcruntimed:undname.obj
 0003:00001ca8       ??_C@_01DCLJPIOD@?$CB@     10132ca8     libvcruntimed:undname.obj
 0003:00001cac       ??_C@_02EGOFBIJA@?$DN?$DN@ 10132cac     libvcruntimed:undname.obj
 0003:00001cb0       ??_C@_02FDNJECIE@?$CB?$DN@ 10132cb0     libvcruntimed:undname.obj
 0003:00001cb4       ??_C@_02GPECMEKF@?$FL?$FN@ 10132cb4     libvcruntimed:undname.obj
 0003:00001cb8       ??_C@_08LHJFAFGD@operator@ 10132cb8     libvcruntimed:undname.obj
 0003:00001cc4       ??_C@_02HBOOOICD@?9?$DO@   10132cc4     libvcruntimed:undname.obj
 0003:00001cc8       ??_C@_01NBENCBCI@?$CK@     10132cc8     libvcruntimed:undname.obj
 0003:00001ccc       ??_C@_02ECNGHCIF@?$CL?$CL@ 10132ccc     libvcruntimed:undname.obj
 0003:00001cd0       ??_C@_02BAABKJLB@?9?9@     10132cd0     libvcruntimed:undname.obj
 0003:00001cd4       ??_C@_01JOAMLHOP@?9@       10132cd4     libvcruntimed:undname.obj
 0003:00001cd8       ??_C@_01MIFGBAGJ@?$CL@     10132cd8     libvcruntimed:undname.obj
 0003:00001cdc       ??_C@_01HNPIGOCE@?$CG@     10132cdc     libvcruntimed:undname.obj
 0003:00001ce0       ??_C@_03MNHNFDLC@?9?$DO?$CK@ 10132ce0     libvcruntimed:undname.obj
 0003:00001ce4       ??_C@_01KMDKNFGN@?1@       10132ce4     libvcruntimed:undname.obj
 0003:00001ce8       ??_C@_01FGNFDNOH@?$CF@     10132ce8     libvcruntimed:undname.obj
 0003:00001cec       ??_C@_01MNNFJEPP@?$DM@     10132cec     libvcruntimed:undname.obj
 0003:00001cf0       ??_C@_02EHCHHCKH@?$DM?$DN@ 10132cf0     libvcruntimed:undname.obj
 0003:00001cf4       ??_C@_01PPODPGHN@?$DO@     10132cf4     libvcruntimed:undname.obj
 0003:00001cf8       ??_C@_02EEKDKGMJ@?$DO?$DN@ 10132cf8     libvcruntimed:undname.obj
 0003:00001cfc       ??_C@_01IHBHIGKO@?0@       10132cfc     libvcruntimed:undname.obj
 0003:00001d00       ??_C@_02HCKGKOFO@?$CI?$CJ@ 10132d00     libvcruntimed:undname.obj
 0003:00001d04       ??_C@_01PJKLJHI@?$HO@      10132d04     libvcruntimed:undname.obj
 0003:00001d08       ??_C@_01JKBOJNNK@?$FO@     10132d08     libvcruntimed:undname.obj
 0003:00001d0c       ??_C@_01DNKMNLPK@?$HM@     10132d0c     libvcruntimed:undname.obj
 0003:00001d10       ??_C@_02PPKAJPJL@?$CG?$CG@ 10132d10     libvcruntimed:undname.obj
 0003:00001d14       ??_C@_02NONPIBCD@?$HM?$HM@ 10132d14     libvcruntimed:undname.obj
 0003:00001d18       ??_C@_02FPIMKNGF@?$CK?$DN@ 10132d18     libvcruntimed:undname.obj
 0003:00001d1c       ??_C@_02FOEOMHFC@?$CL?$DN@ 10132d1c     libvcruntimed:undname.obj
 0003:00001d20       ??_C@_02FKMDLLOA@?9?$DN@   10132d20     libvcruntimed:undname.obj
 0003:00001d24       ??_C@_02FJEHGPIO@?1?$DN@   10132d24     libvcruntimed:undname.obj
 0003:00001d28       ??_C@_02FENAOKFI@?$CF?$DN@ 10132d28     libvcruntimed:undname.obj
 0003:00001d2c       ??_C@_03IKFCCPFF@?$DO?$DO?$DN@ 10132d2c     libvcruntimed:undname.obj
 0003:00001d30       ??_C@_03CDNPDDLA@?$DM?$DM?$DN@ 10132d30     libvcruntimed:undname.obj
 0003:00001d34       ??_C@_02FGJGFEAB@?$CG?$DN@ 10132d34     libvcruntimed:undname.obj
 0003:00001d38       ??_C@_02DHLNPPGH@?$HM?$DN@ 10132d38     libvcruntimed:undname.obj
 0003:00001d3c       ??_C@_02MHEGNOJ@?$FO?$DN@  10132d3c     libvcruntimed:undname.obj
 0003:00001d40       ??_C@_09IFPLHPGF@?$GAvftable?8@ 10132d40     libvcruntimed:undname.obj
 0003:00001d4c       ??_C@_09BLBHBJP@?$GAvbtable?8@ 10132d4c     libvcruntimed:undname.obj
 0003:00001d58       ??_C@_07FEEIOKP@?$GAvcall?8@ 10132d58     libvcruntimed:undname.obj
 0003:00001d64       ??_C@_08LLFFHHDJ@?$GAtypeof?8@ 10132d64     libvcruntimed:undname.obj
 0003:00001d70       ??_C@_0BF@KDPPACIK@?$GAlocal?5static?5guard?8@ 10132d70     libvcruntimed:undname.obj
 0003:00001d8c       ??_C@_08OBABFOLI@?$GAstring?8@ 10132d8c     libvcruntimed:undname.obj
 0003:00001d98       ??_C@_0BD@JDLKDPAB@?$GAvbase?5destructor?8@ 10132d98     libvcruntimed:undname.obj
 0003:00001db0       ??_C@_0BN@DEGPLNFK@?$GAvector?5deleting?5destructor?8@ 10132db0     libvcruntimed:undname.obj
 0003:00001dd4       ??_C@_0BO@OBMKPJIG@?$GAdefault?5constructor?5closure?8@ 10132dd4     libvcruntimed:undname.obj
 0003:00001df8       ??_C@_0BN@IMDCHIKM@?$GAscalar?5deleting?5destructor?8@ 10132df8     libvcruntimed:undname.obj
 0003:00001e1c       ??_C@_0BO@PFGOCPJJ@?$GAvector?5constructor?5iterator?8@ 10132e1c     libvcruntimed:undname.obj
 0003:00001e40       ??_C@_0BN@LFPFMEDL@?$GAvector?5destructor?5iterator?8@ 10132e40     libvcruntimed:undname.obj
 0003:00001e64       ??_C@_0CE@IKBNEHA@?$GAvector?5vbase?5constructor?5itera@ 10132e64     libvcruntimed:undname.obj
 0003:00001e90       ??_C@_0BL@NILFHHPC@?$GAvirtual?5displacement?5map?8@ 10132e90     libvcruntimed:undname.obj
 0003:00001eb0       ??_C@_0CB@JONCMFFK@?$GAeh?5vector?5constructor?5iterator@ 10132eb0     libvcruntimed:undname.obj
 0003:00001ed8       ??_C@_0CA@GCEOPDGL@?$GAeh?5vector?5destructor?5iterator?8@ 10132ed8     libvcruntimed:undname.obj
 0003:00001f00       ??_C@_0CH@OOJPLCPH@?$GAeh?5vector?5vbase?5constructor?5it@ 10132f00     libvcruntimed:undname.obj
 0003:00001f30       ??_C@_0BL@LLKPOHJI@?$GAcopy?5constructor?5closure?8@ 10132f30     libvcruntimed:undname.obj
 0003:00001f50       ??_C@_0BA@KBCDOMBN@?$GAudt?5returning?8@ 10132f50     libvcruntimed:undname.obj
 0003:00001f64       ??_C@_03KLGMFNMG@?$GAEH@   10132f64     libvcruntimed:undname.obj
 0003:00001f68       ??_C@_05KHLCHHI@?$GARTTI@  10132f68     libvcruntimed:undname.obj
 0003:00001f70       ??_C@_0BA@KKLDJDLB@?$GAlocal?5vftable?8@ 10132f70     libvcruntimed:undname.obj
 0003:00001f84       ??_C@_0CE@IIHCMGGL@?$GAlocal?5vftable?5constructor?5clos@ 10132f84     libvcruntimed:undname.obj
 0003:00001fb0       ??_C@_06FHBGPFGH@?5new?$FL?$FN@ 10132fb0     libvcruntimed:undname.obj
 0003:00001fb8       ??_C@_09LBNFPBCA@?5delete?$FL?$FN@ 10132fb8     libvcruntimed:undname.obj
 0003:00001fc4       ??_C@_0P@HJKNJFNN@?$GAomni?5callsig?8@ 10132fc4     libvcruntimed:undname.obj
 0003:00001fd8       ??_C@_0BL@CNOONJFP@?$GAplacement?5delete?5closure?8@ 10132fd8     libvcruntimed:undname.obj
 0003:00001ff8       ??_C@_0BN@CKNJLHMB@?$GAplacement?5delete?$FL?$FN?5closure?8@ 10132ff8     libvcruntimed:undname.obj
 0003:0000201c       ??_C@_0CG@CFDHKGGD@?$GAmanaged?5vector?5constructor?5ite@ 1013301c     libvcruntimed:undname.obj
 0003:0000204c       ??_C@_0CF@IMGKMJNO@?$GAmanaged?5vector?5destructor?5iter@ 1013304c     libvcruntimed:undname.obj
 0003:00002078       ??_C@_0CG@HLDDJMAG@?$GAeh?5vector?5copy?5constructor?5ite@ 10133078     libvcruntimed:undname.obj
 0003:000020a8       ??_C@_0CM@FCBBDIGB@?$GAeh?5vector?5vbase?5copy?5construct@ 101330a8     libvcruntimed:undname.obj
 0003:000020dc       ??_C@_0BL@CLIPGLGB@?$GAdynamic?5initializer?5for?5?8@ 101330dc     libvcruntimed:undname.obj
 0003:000020fc       ??_C@_0CB@PDBIFEP@?$GAdynamic?5atexit?5destructor?5for?5@ 101330fc     libvcruntimed:undname.obj
 0003:00002124       ??_C@_0CD@CGAJBKEJ@?$GAvector?5copy?5constructor?5iterat@ 10133124     libvcruntimed:undname.obj
 0003:00002150       ??_C@_0CJ@GJELGAMM@?$GAvector?5vbase?5copy?5constructor?5@ 10133150     libvcruntimed:undname.obj
 0003:00002184       ??_C@_0CL@FGIJHLCE@?$GAmanaged?5vector?5copy?5constructo@ 10133184     libvcruntimed:undname.obj
 0003:000021b8       ??_C@_0BM@PMGGMLDN@?$GAlocal?5static?5thread?5guard?8@ 101331b8     libvcruntimed:undname.obj
 0003:000021dc       ??_C@_0N@BDNMDMOL@operator?5?$CC?$CC?5@ 101331dc     libvcruntimed:undname.obj
 0003:000021ec       ??_C@_0BC@GGEBGALA@operator?5co_await@ 101331ec     libvcruntimed:undname.obj
 0003:00002204       ??_C@_0M@GAAIMMOH@operator?$DM?$DN?$DO@ 10133204     libvcruntimed:undname.obj
 0003:00002214       ??_C@_0BC@DAFEJGAK@?5Type?5Descriptor?8@ 10133214     libvcruntimed:undname.obj
 0003:0000222c       ??_C@_0BM@LDKODKLH@?5Base?5Class?5Descriptor?5at?5?$CI@ 1013322c     libvcruntimed:undname.obj
 0003:00002250       ??_C@_0BD@LGICGFMM@?5Base?5Class?5Array?8@ 10133250     libvcruntimed:undname.obj
 0003:00002268       ??_C@_0BN@MECKDCOJ@?5Class?5Hierarchy?5Descriptor?8@ 10133268     libvcruntimed:undname.obj
 0003:0000228c       ??_C@_0BK@CFCOFLF@?5Complete?5Object?5Locator?8@ 1013328c     libvcruntimed:undname.obj
 0003:000022ac       ??_C@_0BG@JNJLAMPM@?$GAanonymous?5namespace?8@ 101332ac     libvcruntimed:undname.obj
 0003:000022c6       ?in_place@std@@3Uin_place_t@1@B 101332c6     libvcruntimed:undname.obj
 0003:000022c8       ??_C@_02DKCKIIND@?$CFs@    101332c8     libvcruntimed:undname.obj
 0003:000022cc       ??_C@_11LOCGONAA@@         101332cc     libvcruntimed:undname.obj
 0003:000022d0       ??_C@_04HEJADOOB@CV?3?5@   101332d0     libvcruntimed:undname.obj
 0003:000022d8       ??_C@_03GDILBHBJ@$$h@      101332d8     libvcruntimed:undname.obj
 0003:000022dc       ??_C@_02MOLJINC@?3?3@      101332dc     libvcruntimed:undname.obj
 0003:000022e0       ??_C@_0BE@JAEOCHPE@template?9parameter?9@ 101332e0     libvcruntimed:undname.obj
 0003:000022f8       ??_C@_0BF@LNLGBBNL@?$GAtemplate?9parameter?9@ 101332f8     libvcruntimed:undname.obj
 0003:00002314       ??_C@_0O@KHGCOMHP@generic?9type?9@ 10133314     libvcruntimed:undname.obj
 0003:00002324       ??_C@_0P@ODDENDLM@?$GAgeneric?9type?9@ 10133324     libvcruntimed:undname.obj
 0003:00002338       ??_C@_02OHHJMEON@?8?8@     10133338     libvcruntimed:undname.obj
 0003:0000233c       ??_C@_0BN@IBLMMFAP@?$GAnon?9type?9template?9parameter@ 1013333c     libvcruntimed:undname.obj
 0003:00002360       ??_C@_03DLDNIBIK@?$CFlf@   10133360     libvcruntimed:undname.obj
 0003:00002364       ??_C@_04OFALKAJ@?$DP?$DP_C@ 10133364     libvcruntimed:undname.obj
 0003:0000236c       ??_C@_03KHICJKCI@?4?4?4@   1013336c     libvcruntimed:undname.obj
 0003:00002370       ??_C@_04HIBGFPH@NULL@      10133370     libvcruntimed:undname.obj
 0003:00002378       ??_C@_02DPKJAMEF@?$CFd@    10133378     libvcruntimed:undname.obj
 0003:0000237c       ??_C@_0BK@IHCCFNEL@?$GAtemplate?9type?9parameter?9@ 1013337c     libvcruntimed:undname.obj
 0003:0000239c       ??_C@_0BK@OFCNNNKO@?$GAgeneric?9class?9parameter?9@ 1013339c     libvcruntimed:undname.obj
 0003:000023bc       ??_C@_0BL@NGJBLFIL@?$GAgeneric?9method?9parameter?9@ 101333bc     libvcruntimed:undname.obj
 0003:000023dc       ??_C@_07OHNGEDJK@nullptr@  101333dc     libvcruntimed:undname.obj
 0003:000023e8       ??_C@_06COJIGPIB@lambda@   101333e8     libvcruntimed:undname.obj
 0003:000023f0       ??_C@_04GKJNKENE@void@     101333f0     libvcruntimed:undname.obj
 0003:000023f8       ??_C@_0BE@EODMJLIF@?$GAtemplate?9parameter@ 101333f8     libvcruntimed:undname.obj
 0003:00002410       ??_C@_03OPGICMGF@?$HN?8?5@ 10133410     libvcruntimed:undname.obj
 0003:00002414       ??_C@_02IGFCGPIL@?$HN?8@   10133414     libvcruntimed:undname.obj
 0003:00002418       ??_C@_0N@CBHHHENL@?$GAvtordispex?$HL@ 10133418     libvcruntimed:undname.obj
 0003:00002428       ??_C@_0L@GHPFDFH@?$GAvtordisp?$HL@ 10133428     libvcruntimed:undname.obj
 0003:00002438       ??_C@_0L@HNGCOGAE@?$GAadjustor?$HL@ 10133438     libvcruntimed:undname.obj
 0003:00002448       ??_C@_0CB@KJDOOODE@?$GAlocal?5static?5destructor?5helper@ 10133448     libvcruntimed:undname.obj
 0003:00002470       ??_C@_0DB@ILEFOCIJ@?$GAtemplate?5static?5data?5member?5co@ 10133470     libvcruntimed:undname.obj
 0003:000024ac       ??_C@_0DA@HGFJFBBE@?$GAtemplate?5static?5data?5member?5de@ 101334ac     libvcruntimed:undname.obj
 0003:000024e8       ??_C@_07PGOEDBHP@static?5@ 101334e8     libvcruntimed:undname.obj
 0003:000024f4       ??_C@_08NIEOINHE@virtual?5@ 101334f4     libvcruntimed:undname.obj
 0003:00002500       ??_C@_09LAPHOOG@private?3?5@ 10133500     libvcruntimed:undname.obj
 0003:0000250c       ??_C@_0M@GAIFPFIP@protected?3?5@ 1013350c     libvcruntimed:undname.obj
 0003:0000251c       ??_C@_08GPDDCMKI@public?3?5@ 1013351c     libvcruntimed:undname.obj
 0003:00002528       ??_C@_08KJLFOPNE@?$FLthunk?$FN?3@ 10133528     libvcruntimed:undname.obj
 0003:00002534       ??_C@_0M@DHNBOJMP@extern?5?$CCC?$CC?5@ 10133534     libvcruntimed:undname.obj
 0003:00002544       ??_C@_02KCKGHPCA@?$CJ?5@   10133544     libvcruntimed:undname.obj
 0003:00002548       ??_C@_05CIHEBHNO@char?5@   10133548     libvcruntimed:undname.obj
 0003:00002550       ??_C@_06EHJMALKF@short?5@  10133550     libvcruntimed:undname.obj
 0003:00002558       ??_C@_04LAHKHJMA@int?5@    10133558     libvcruntimed:undname.obj
 0003:00002560       ??_C@_05CJIMAING@long?5@   10133560     libvcruntimed:undname.obj
 0003:00002568       ??_C@_09EBBEKKIH@unsigned?5@ 10133568     libvcruntimed:undname.obj
 0003:00002574       ??_C@_05BEFAKPML@void?5@   10133574     libvcruntimed:undname.obj
 0003:0000257c       ??_C@_09GAIEOBLP@volatile?5@ 1013357c     libvcruntimed:undname.obj
 0003:00002588       ??_C@_08PABEKFH@volatile@  10133588     libvcruntimed:undname.obj
 0003:00002594       ??_C@_0BA@LKIJLKPP@std?3?3nullptr_t?5@ 10133594     libvcruntimed:undname.obj
 0003:000025a8       ??_C@_0P@GCOCNKDM@std?3?3nullptr_t@ 101335a8     libvcruntimed:undname.obj
 0003:000025bc       ??_C@_0L@EGPHHEKN@?$DMellipsis?$DO@ 101335bc     libvcruntimed:undname.obj
 0003:000025cc       ??_C@_04EENFHACM@?0?4?4?4@ 101335cc     libvcruntimed:undname.obj
 0003:000025d4       ??_C@_0M@ELJOJFFH@?0?$DMellipsis?$DO@ 101335d4     libvcruntimed:undname.obj
 0003:000025e4       ??_C@_09DNHFEOJI@?5noexcept@ 101335e4     libvcruntimed:undname.obj
 0003:000025f0       ??_C@_03PBJBJNON@cpu@      101335f0     libvcruntimed:undname.obj
 0003:000025f4       ??_C@_03DCBBJBAA@amp@      101335f4     libvcruntimed:undname.obj
 0003:000025f8       ??_C@_02KEGNLNML@?0?5@     101335f8     libvcruntimed:undname.obj
 0003:000025fc       ??_C@_04ENMBGAPA@char@     101335fc     libvcruntimed:undname.obj
 0003:00002604       ??_C@_05BFKKPKCG@short@    10133604     libvcruntimed:undname.obj
 0003:0000260c       ??_C@_03JBIPMCLC@int@      1013360c     libvcruntimed:undname.obj
 0003:00002610       ??_C@_04GOKPGOLB@long@     10133610     libvcruntimed:undname.obj
 0003:00002618       ??_C@_05KNFBNCOH@float@    10133618     libvcruntimed:undname.obj
 0003:00002620       ??_C@_06BNJCAIGJ@double@   10133620     libvcruntimed:undname.obj
 0003:00002628       ??_C@_04DDKJGDCM@bool@     10133628     libvcruntimed:undname.obj
 0003:00002630       ??_C@_06EBGKOKIG@__int8@   10133630     libvcruntimed:undname.obj
 0003:00002638       ??_C@_07ICFHOGAF@__int16@  10133638     libvcruntimed:undname.obj
 0003:00002644       ??_C@_07OFLPPHGP@__int32@  10133644     libvcruntimed:undname.obj
 0003:00002650       ??_C@_07LFCOJCAC@__int64@  10133650     libvcruntimed:undname.obj
 0003:0000265c       ??_C@_08GAHOLHEO@__int128@ 1013365c     libvcruntimed:undname.obj
 0003:00002668       ??_C@_09EEKGDCPH@?$DMunknown?$DO@ 10133668     libvcruntimed:undname.obj
 0003:00002674       ??_C@_07CFHGOPCN@char8_t@  10133674     libvcruntimed:undname.obj
 0003:00002680       ??_C@_08HBIPOFJB@char16_t@ 10133680     libvcruntimed:undname.obj
 0003:0000268c       ??_C@_08IECNCBKG@char32_t@ 1013368c     libvcruntimed:undname.obj
 0003:00002698       ??_C@_07CLGGIAMF@wchar_t@  10133698     libvcruntimed:undname.obj
 0003:000026a4       ??_C@_04HAPDLBFF@auto@     101336a4     libvcruntimed:undname.obj
 0003:000026ac       ??_C@_0P@LHCGKIGK@decltype?$CIauto?$CJ@ 101336ac     libvcruntimed:undname.obj
 0003:000026c0       ??_C@_05PCNBGHCF@this?5@   101336c0     libvcruntimed:undname.obj
 0003:000026c8       ??_C@_06GCICPBLB@__w64?5@  101336c8     libvcruntimed:undname.obj
 0003:000026d0       ??_C@_07NFANNNEC@UNKNOWN@  101336d0     libvcruntimed:undname.obj
 0003:000026dc       ??_C@_07EDHNAJHC@signed?5@ 101336dc     libvcruntimed:undname.obj
 0003:000026e8       ??_C@_05BNCCCJPP@const@    101336e8     libvcruntimed:undname.obj
 0003:000026f0       ??_C@_09EFNPDFFP@?5volatile@ 101336f0     libvcruntimed:undname.obj
 0003:000026fc       ??_C@_0P@GCIFDJCJ@?$GAunknown?5ecsu?8@ 101336fc     libvcruntimed:undname.obj
 0003:00002710       ??_C@_06MOJHIBMG@union?5@  10133710     libvcruntimed:undname.obj
 0003:00002718       ??_C@_07DIBCDNGL@struct?5@ 10133718     libvcruntimed:undname.obj
 0003:00002724       ??_C@_06LJBABKPM@class?5@  10133724     libvcruntimed:undname.obj
 0003:0000272c       ??_C@_08KOFANOFK@coclass?5@ 1013372c     libvcruntimed:undname.obj
 0003:00002738       ??_C@_0N@DLIEFKNA@cointerface?5@ 10133738     libvcruntimed:undname.obj
 0003:00002748       ??_C@_05LJGMCFOG@enum?5@   10133748     libvcruntimed:undname.obj
 0003:00002750       ??_C@_06LIJLOJAG@const?5@  10133750     libvcruntimed:undname.obj
 0003:00002758       ??_C@_02KJPKDIBN@?$CG?5@   10133758     libvcruntimed:undname.obj
 0003:0000275c       ??_C@_03PCKGMOPB@?$CG?$CG?5@ 1013375c     libvcruntimed:undname.obj
 0003:00002760       ??_C@_0M@EALIELKG@cli?3?3array?$DM@ 10133760     libvcruntimed:undname.obj
 0003:00002770       ??_C@_0O@GKABPPIF@cli?3?3pin_ptr?$DM@ 10133770     libvcruntimed:undname.obj
 0003:00002780       ??_C@_02GOGNNPBN@?$CJ?$FL@ 10133780     libvcruntimed:undname.obj
 0003:00002784       ??_C@_06EEGAIFAK@?$HLflat?$HN@ 10133784     libvcruntimed:undname.obj
 0003:0000278c       ??_C@_05JIBOFOHK@?$HLfor?5@ 1013378c     libvcruntimed:undname.obj
 0003:00002794       ??_C@_02MDINNEEG@s?5@      10133794     libvcruntimed:undname.obj
 0003:0000279c       ??_7DNameNode@@6B@         1013379c     libvcruntimed:undname.obj
 0003:000027b4       ??_7charNode@@6B@          101337b4     libvcruntimed:undname.obj
 0003:000027cc       ??_7pcharNode@@6B@         101337cc     libvcruntimed:undname.obj
 0003:000027e4       ??_7pDNameNode@@6B@        101337e4     libvcruntimed:undname.obj
 0003:000027fc       ??_7DNameStatusNode@@6B@   101337fc     libvcruntimed:undname.obj
 0003:00002814       ??_7pairNode@@6B@          10133814     libvcruntimed:undname.obj
 0003:0000295c       ??_C@_04OKOHEJBO@?5?$DP?$DP?5@ 1013395c     libvcruntimed:undname.obj
 0003:00002964       ?nodes@?1??make@DNameStatusNode@@SAPBV2@W4DNameStatus@@@Z@4QBV2@B 10133964     libvcruntimed:undname.obj
 0003:000029a0       ??_C@_0CG@LKEBOLJI@Cannot?5access?5value?5of?5empty?5op@ 101339a0     libvcruntimed:undname.obj
 0003:000029d0       ??_C@_0DH@MKBJNILF@D?3?2a?2_work?21?2s?2src?2vctools?2crt?2@ 101339d0     libvcruntimed:undname.obj
 0003:00002a18       ??_C@_1GO@MLBEOJIB@?$AAD?$AA?3?$AA?2?$AAa?$AA?2?$AA_?$AAw?$AAo?$AAr?$AAk?$AA?2?$AA1?$AA?2?$AAs?$AA?2@ 10133a18     libvcruntimed:undname.obj
 0003:00002aa0       ??_C@_1FA@DPIDPJCB@?$AA?$CC?$AAC?$AAa?$AAn?$AAn?$AAo?$AAt?$AA?5?$AAa?$AAc?$AAc?$AAe?$AAs?$AAs?$AA?5@ 10133aa0     libvcruntimed:undname.obj
 0003:00002b00       ??_C@_0EK@HNOIOKGA@D?3?2a?2_work?21?2s?2src?2vctools?2crt?2@ 10133b00     libvcruntimed:per_thread_data.obj
 0003:00002b68       ??_C@_1DM@KHCHBNEB@?$AAa?$AAp?$AAi?$AA?9?$AAm?$AAs?$AA?9?$AAw?$AAi?$AAn?$AA?9?$AAc?$AAo?$AAr?$AAe@ 10133b68     libvcruntimed:winapi_downlevel.obj
 0003:00002bb0       ??_C@_1DK@LPPGFMPP@?$AAa?$AAp?$AAi?$AA?9?$AAm?$AAs?$AA?9?$AAw?$AAi?$AAn?$AA?9?$AAc?$AAo?$AAr?$AAe@ 10133bb0     libvcruntimed:winapi_downlevel.obj
 0003:00002bf8       ??_C@_1BC@GDMECMAK@?$AAk?$AAe?$AAr?$AAn?$AAe?$AAl?$AA3?$AA2@ 10133bf8     libvcruntimed:winapi_downlevel.obj
 0003:00002c10       ??_C@_17CNPHIMPH@?$AA?$CF?$AAl?$AAs@ 10133c10     libvcruntimed:winapi_downlevel.obj
 0003:00002c1c       ??_C@_1BA@PFFKHIOG@?$AAa?$AAp?$AAi?$AA?9?$AAm?$AAs?$AA?9@ 10133c1c     libvcruntimed:winapi_downlevel.obj
 0003:00002c30       ??_C@_1EM@LBIFGLGH@?$AAc?$AAa?$AAc?$AAh?$AAe?$AAd?$AA_?$AAh?$AAa?$AAn?$AAd?$AAl?$AAe?$AA?5?$AA?$DN@ 10133c30     libvcruntimed:winapi_downlevel.obj
 0003:00002c90       ??_C@_1JG@EAIBPIGC@?$AAD?$AA?3?$AA?2?$AAa?$AA?2?$AA_?$AAw?$AAo?$AAr?$AAk?$AA?2?$AA1?$AA?2?$AAs?$AA?2@ 10133c90     libvcruntimed:winapi_downlevel.obj
 0003:00002d44       ??_C@_1DI@MAHEDLDB@?$AAc?$AAa?$AAc?$AAh?$AAe?$AAd?$AA_?$AAh?$AAa?$AAn?$AAd?$AAl?$AAe?$AA?5?$AA?$DN@ 10133d44     libvcruntimed:winapi_downlevel.obj
 0003:00002d88       ??_C@_1FC@IBNCGNKL@?$AAc?$AAa?$AAc?$AAh?$AAe?$AAd?$AA_?$AAf?$AAp?$AA?5?$AA?$DN?$AA?$DN?$AA?5?$AAi?$AAn@ 10133d88     libvcruntimed:winapi_downlevel.obj
 0003:00002dec       ??_C@_1CI@GDJBAGLP@?$AAc?$AAa?$AAc?$AAh?$AAe?$AAd?$AA_?$AAf?$AAp?$AA?5?$AA?$DN?$AA?$DN?$AA?5?$AAn?$AAe@ 10133dec     libvcruntimed:winapi_downlevel.obj
 0003:00002e28       ??_C@_08KNHFBNJ@FlsAlloc@  10133e28     libvcruntimed:winapi_downlevel.obj
 0003:00002e40       ??_C@_07PEJMOBNF@FlsFree@  10133e40     libvcruntimed:winapi_downlevel.obj
 0003:00002e58       ??_C@_0M@GDNOONDI@FlsGetValue@ 10133e58     libvcruntimed:winapi_downlevel.obj
 0003:00002e74       ??_C@_0M@JCPCPOEF@FlsSetValue@ 10133e74     libvcruntimed:winapi_downlevel.obj
 0003:00002e90       ??_C@_0BM@HCFOFFN@InitializeCriticalSectionEx@ 10133e90     libvcruntimed:winapi_downlevel.obj
 0003:00002eb8       ??_7exception@std@@6B@     10133eb8     libvcruntimed:frame.obj
 0003:00002ec4       ??_C@_0BC@EOODALEL@Unknown?5exception@ 10133ec4     libvcruntimed:frame.obj
 0003:00002ee0       ??_7bad_exception@std@@6B@ 10133ee0     libvcruntimed:frame.obj
 0003:00002eec       ??_C@_0O@DPKOEFFH@bad?5exception@ 10133eec     libvcruntimed:frame.obj
 0003:00002f00       ??_C@_1FK@OACNEHHA@?$AAt?$AAo?$AA?9?$AA?$DO?$AA_?$AAW?$AAh?$AAa?$AAt?$AA?5?$AA?$DN?$AA?$DN?$AA?5?$AAn?$AAu@ 10133f00     libvcruntimed:std_exception.obj
 0003:00002f70       ??_C@_1IE@BLOAAGCK@?$AAD?$AA?3?$AA?2?$AAa?$AA?2?$AA_?$AAw?$AAo?$AAr?$AAk?$AA?2?$AA1?$AA?2?$AAs?$AA?2@ 10133f70     libvcruntimed:std_exception.obj
 0003:00003018       ??_C@_1GE@KFPKEKCH@?$AAm?$AAi?$AAn?$AAk?$AAe?$AAr?$AAn?$AAe?$AAl?$AA?2?$AAc?$AAr?$AAt?$AAs?$AA?2@ 10134018     libucrtd:ieee87.obj
 0003:00003090       ??_C@_1BO@OFDNCLL@?$AA_?$AAs?$AAe?$AAt?$AA_?$AAc?$AAo?$AAn?$AAt?$AAr?$AAo?$AAl?$AAf?$AAp@ 10134090     libucrtd:ieee87.obj
 0003:000030b8       ??_C@_1GO@OKJGOMCB@?$AA_?$AAc?$AAo?$AAn?$AAt?$AAr?$AAo?$AAl?$AAf?$AAp?$AA_?$AAs?$AA?$CI?$AA?$CI?$AA?$CI@ 101340b8     libucrtd:ieee87.obj
 0003:0000313c       _RtlNtPathSeperatorString  1013413c     libucrtd:exit.obj
 0003:00003148       ??_C@_13FPGAJAPJ@?$AA?2@   10134148     libucrtd:exit.obj
 0003:0000314c       _RtlDosPathSeperatorsString 1013414c     libucrtd:exit.obj
 0003:00003158       ??_C@_15MNCACJLI@?$AA?2?$AA?1@ 10134158     libucrtd:exit.obj
 0003:00003160       _RtlAlternateDosPathSeperatorString 10134160     libucrtd:exit.obj
 0003:0000316c       ??_C@_13CGOKJPIL@?$AA?1@   1013416c     libucrtd:exit.obj
 0003:00003170       ??_C@_1BI@BGOHAHKC@?$AAm?$AAs?$AAc?$AAo?$AAr?$AAe?$AAe?$AA?4?$AAd?$AAl?$AAl@ 10134170     libucrtd:exit.obj
 0003:0000318c       ??_C@_0P@MIGLKIOC@CorExitProcess@ 1013418c     libucrtd:exit.obj
 0003:000031a0       ??_C@_1BM@DGNILAKJ@?$AAt?$AAs?$AA?5?$AA?$CB?$AA?$DN?$AA?5?$AAn?$AAu?$AAl?$AAl?$AAp?$AAt?$AAr@ 101341a0     libucrtd:time.obj
 0003:000031c8       ??_C@_1FK@PHFCCLNI@?$AAm?$AAi?$AAn?$AAk?$AAe?$AAr?$AAn?$AAe?$AAl?$AA?2?$AAc?$AAr?$AAt?$AAs?$AA?2@ 101341c8     libucrtd:time.obj
 0003:00003234       ??_C@_1CI@PADPINCL@?$AAc?$AAo?$AAm?$AAm?$AAo?$AAn?$AA_?$AAt?$AAi?$AAm?$AAe?$AAs?$AAp?$AAe?$AAc@ 10134234     libucrtd:time.obj
 0003:00003264       ??_C@_0DI@DNFGFCIK@minkernel?2crts?2ucrt?2inc?2corecrt@ 10134264     libucrtd:stat.obj
 0003:000032a8       ??_C@_19DOGDICKI@?$AA?4?$AAe?$AAx?$AAe@ 101342a8     libucrtd:stat.obj
 0003:000032b4       ??_C@_19BDKLHPGC@?$AA?4?$AAc?$AAm?$AAd@ 101342b4     libucrtd:stat.obj
 0003:000032c0       ??_C@_19PINKOIBI@?$AA?4?$AAb?$AAa?$AAt@ 101342c0     libucrtd:stat.obj
 0003:000032cc       ??_C@_19CDGLJBOD@?$AA?4?$AAc?$AAo?$AAm@ 101342cc     libucrtd:stat.obj
 0003:000032d8       ??_C@_17BAAFHAL@?$AA?4?$AA?1?$AA?2@ 101342d8     libucrtd:stat.obj
 0003:000032e4       ??_C@_1CE@JMFACANE@?$AAr?$AAe?$AAs?$AAu?$AAl?$AAt?$AA?5?$AA?$CB?$AA?$DN?$AA?5?$AAn?$AAu?$AAl?$AAl?$AAp@ 101342e4     libucrtd:stat.obj
 0003:00003310       ??_C@_1GG@NPBIKGLH@?$AAm?$AAi?$AAn?$AAk?$AAe?$AAr?$AAn?$AAe?$AAl?$AA?2?$AAc?$AAr?$AAt?$AAs?$AA?2@ 10134310     libucrtd:stat.obj
 0003:0000338c       ??_C@_1BI@GDMHHPNL@?$AAc?$AAo?$AAm?$AAm?$AAo?$AAn?$AA_?$AAs?$AAt?$AAa?$AAt@ 1013438c     libucrtd:stat.obj
 0003:000033a8       ??_C@_1CA@DFHJGMAL@?$AAp?$AAa?$AAt?$AAh?$AA?5?$AA?$CB?$AA?$DN?$AA?5?$AAn?$AAu?$AAl?$AAl?$AAp?$AAt?$AAr@ 101343a8     libucrtd:stat.obj
 0003:000033d0       ??_C@_1JE@ECKHFIFP@?$AA?$CI?$AA?$CC?$AAI?$AAn?$AAv?$AAa?$AAl?$AAi?$AAd?$AA?5?$AAf?$AAi?$AAl?$AAe?$AA?5@ 101343d0     libucrtd:stat.obj
 0003:00003484       ??_C@_1BK@FHAMAJIH@?$AAc?$AAo?$AAm?$AAm?$AAo?$AAn?$AA_?$AAf?$AAs?$AAt?$AAa?$AAt@ 10134484     libucrtd:stat.obj
 0003:000034a4       ??_C@_1DC@IJGBHACL@?$AAf?$AAh?$AA?5?$AA?$DO?$AA?$DN?$AA?5?$AA0?$AA?5?$AA?$CG?$AA?$CG?$AA?5?$AAf?$AAh?$AA?5?$AA?$DM@ 101344a4     libucrtd:stat.obj
 0003:000034e0       ??_C@_1CI@ILOIOBLM@?$AA_?$AAo?$AAs?$AAf?$AAi?$AAl?$AAe?$AA?$CI?$AAf?$AAh?$AA?$CJ?$AA?5?$AA?$CG?$AA?5?$AAF@ 101344e0     libucrtd:stat.obj
 0003:00003510       ??_C@_0CP@GDJHIDC@minkernel?2crts?2ucrt?2src?2appcrt?2@ 10134510     libucrtd:_file.obj
 0003:00003548       ??_C@_1DC@OGOLMDEL@?$AAp?$AAu?$AAb?$AAl?$AAi?$AAc?$AA_?$AAs?$AAt?$AAr?$AAe?$AAa?$AAm?$AA?5?$AA?$CB@ 10134548     libucrtd:_file.obj
 0003:00003588       ??_C@_1FO@IEGKHABE@?$AAm?$AAi?$AAn?$AAk?$AAe?$AAr?$AAn?$AAe?$AAl?$AA?2?$AAc?$AAr?$AAt?$AAs?$AA?2@ 10134588     libucrtd:_file.obj
 0003:000035f8       ??_C@_1DI@PJGMCDLC@?$AA_?$AAg?$AAe?$AAt?$AA_?$AAs?$AAt?$AAr?$AAe?$AAa?$AAm?$AA_?$AAb?$AAu?$AAf@ 101345f8     libucrtd:_file.obj
 0003:0000363c       __Fenv1                    1013463c     libucrtd:output.obj
 0003:00003648       ?standard_lookup_table_spectre@__crt_stdio_output@@3V?$spectre_mitigated_lookup_table@Ustate_transition_pair@__crt_stdio_output@@$0IA@@1@B 10134648     libucrtd:output.obj
 0003:00003780       ?format_validation_lookup_table_spectre@__crt_stdio_output@@3V?$spectre_mitigated_lookup_table@Ustate_transition_pair@__crt_stdio_output@@$0IA@@1@B 10134780     libucrtd:output.obj
 0003:000038b8       ??_C@_1BDG@MKBKGHOH@?$AA?$CI?$AA?5?$AA?$CI?$AA_?$AAS?$AAt?$AAr?$AAe?$AAa?$AAm?$AA?4?$AAi?$AAs?$AA_?$AAs@ 101348b8     libucrtd:output.obj
 0003:00003a30       ??_C@_1GC@LCDLABEA@?$AAm?$AAi?$AAn?$AAk?$AAe?$AAr?$AAn?$AAe?$AAl?$AA?2?$AAc?$AAr?$AAt?$AAs?$AA?2@ 10134a30     libucrtd:output.obj
 0003:00003aa8       ??_C@_1II@DIIMCJOK@?$AA_?$AA_?$AAa?$AAc?$AAr?$AAt?$AA_?$AAs?$AAt?$AAd?$AAi?$AAo?$AA_?$AAc?$AAh@ 10134aa8     libucrtd:output.obj
 0003:00003b50       ??_C@_1GE@DPGDJKLM@?$AAm?$AAi?$AAn?$AAk?$AAe?$AAr?$AAn?$AAe?$AAl?$AA?2?$AAc?$AAr?$AAt?$AAs?$AA?2@ 10134b50     libucrtd:output.obj
 0003:00003bc8       ??_C@_1CE@JLIJLEKO@?$AAs?$AAt?$AAr?$AAe?$AAa?$AAm?$AA?5?$AA?$CB?$AA?$DN?$AA?5?$AAn?$AAu?$AAl?$AAl?$AAp@ 10134bc8     libucrtd:output.obj
 0003:00003bf8       ??_C@_1GA@MOBAPGIO@?$AAm?$AAi?$AAn?$AAk?$AAe?$AAr?$AAn?$AAe?$AAl?$AA?2?$AAc?$AAr?$AAt?$AAs?$AA?2@ 10134bf8     libucrtd:output.obj
 0003:00003c6c       ??_C@_1CA@GELIJBMC@?$AAc?$AAo?$AAm?$AAm?$AAo?$AAn?$AA_?$AAv?$AAf?$AAp?$AAr?$AAi?$AAn?$AAt?$AAf@ 10134c6c     libucrtd:output.obj
 0003:00003c94       ??_C@_1CE@EAKLPBKK@?$AAf?$AAo?$AAr?$AAm?$AAa?$AAt?$AA?5?$AA?$CB?$AA?$DN?$AA?5?$AAn?$AAu?$AAl?$AAl?$AAp@ 10134c94     libucrtd:output.obj
 0003:00003cc0       ??_C@_1CA@PIMGHCEK@?$AAc?$AAo?$AAm?$AAm?$AAo?$AAn?$AA_?$AAv?$AAs?$AAp?$AAr?$AAi?$AAn?$AAt?$AAf@ 10134cc0     libucrtd:output.obj
 0003:00003ce8       ??_C@_1EO@EGEEFEFM@?$AAb?$AAu?$AAf?$AAf?$AAe?$AAr?$AA_?$AAc?$AAo?$AAu?$AAn?$AAt?$AA?5?$AA?$DN?$AA?$DN@ 10134ce8     libucrtd:output.obj
 0003:00003d48       ??_C@_1CE@JEILLNB@?$AAc?$AAo?$AAm?$AAm?$AAo?$AAn?$AA_?$AAv?$AAs?$AAp?$AAr?$AAi?$AAn?$AAt?$AAf@ 10134d48     libucrtd:output.obj
 0003:00003d78       ??_C@_1EM@OAFHAOLH@?$AAb?$AAu?$AAf?$AAf?$AAe?$AAr?$AA?5?$AA?$CB?$AA?$DN?$AA?5?$AAn?$AAu?$AAl?$AAl?$AAp@ 10134d78     libucrtd:output.obj
 0003:00003dd4       ??_C@_1DA@HPBFKMEB@?$AA?$CI?$AA?$CC?$AAB?$AAu?$AAf?$AAf?$AAe?$AAr?$AA?5?$AAt?$AAo?$AAo?$AA?5?$AAs?$AAm@ 10134dd4     libucrtd:output.obj
 0003:00003e10       ??_C@_1CG@LHFJHFBB@?$AAc?$AAo?$AAm?$AAm?$AAo?$AAn?$AA_?$AAv?$AAs?$AAn?$AAp?$AAr?$AAi?$AAn?$AAt@ 10134e10     libucrtd:output.obj
 0003:00003e40       ??_C@_1CM@JOIJBMEM@?$AA_?$AAf?$AAo?$AAr?$AAm?$AAa?$AAt?$AA_?$AAi?$AAt?$AA?5?$AA?$CB?$AA?$DN?$AA?5?$AAn@ 10134e40     libucrtd:output.obj
 0003:00003e78       ??_C@_1HA@DMAAKIJP@?$AAm?$AAi?$AAn?$AAk?$AAe?$AAr?$AAn?$AAe?$AAl?$AA?2?$AAc?$AAr?$AAt?$AAs?$AA?2@ 10134e78     libucrtd:output.obj
 0003:00003f00       ??_C@_1BNA@OIIAGHJI@?$AA_?$AA_?$AAc?$AAr?$AAt?$AA_?$AAs?$AAt?$AAd?$AAi?$AAo?$AA_?$AAo?$AAu?$AAt@ 10134f00     libucrtd:output.obj
 0003:00004130       ??_C@_1EE@DMAIGNBG@?$AA?$CI?$AA?$CC?$AAI?$AAn?$AAc?$AAo?$AAr?$AAr?$AAe?$AAc?$AAt?$AA?5?$AAf?$AAo?$AAr@ 10135130     libucrtd:output.obj
 0003:00004188       ??_C@_1BLI@EGFICANE@?$AA_?$AA_?$AAc?$AAr?$AAt?$AA_?$AAs?$AAt?$AAd?$AAi?$AAo?$AA_?$AAo?$AAu?$AAt@ 10135188     libucrtd:output.obj
 0003:00004398       ??_C@_1BLI@IKDKMDHI@?$AA_?$AA_?$AAc?$AAr?$AAt?$AA_?$AAs?$AAt?$AAd?$AAi?$AAo?$AA_?$AAo?$AAu?$AAt@ 10135398     libucrtd:output.obj
 0003:000045a8       ??_C@_1BKA@DNADAJMC@?$AA_?$AA_?$AAc?$AAr?$AAt?$AA_?$AAs?$AAt?$AAd?$AAi?$AAo?$AA_?$AAo?$AAu?$AAt@ 101355a8     libucrtd:output.obj
 0003:000047a0       ??_C@_1BNA@HGLCOOBP@?$AA_?$AA_?$AAc?$AAr?$AAt?$AA_?$AAs?$AAt?$AAd?$AAi?$AAo?$AA_?$AAo?$AAu?$AAt@ 101357a0     libucrtd:output.obj
 0003:000049d0       ??_C@_1BLI@FOCNEPKJ@?$AA_?$AA_?$AAc?$AAr?$AAt?$AA_?$AAs?$AAt?$AAd?$AAi?$AAo?$AA_?$AAo?$AAu?$AAt@ 101359d0     libucrtd:output.obj
 0003:00004be0       ??_C@_1BMK@CPBKHDIH@?$AA_?$AA_?$AAc?$AAr?$AAt?$AA_?$AAs?$AAt?$AAd?$AAi?$AAo?$AA_?$AAo?$AAu?$AAt@ 10135be0     libucrtd:output.obj
 0003:00004e08       ??_C@_1BLC@PMCLHHAE@?$AA_?$AA_?$AAc?$AAr?$AAt?$AA_?$AAs?$AAt?$AAd?$AAi?$AAo?$AA_?$AAo?$AAu?$AAt@ 10135e08     libucrtd:output.obj
 0003:00005010       ??_C@_1BLI@EEAAPJD@?$AA_?$AA_?$AAc?$AAr?$AAt?$AA_?$AAs?$AAt?$AAd?$AAi?$AAo?$AA_?$AAo?$AAu?$AAt@ 10136010     libucrtd:output.obj
 0003:00005220       ??_C@_1BKA@IIAAOGBO@?$AA_?$AA_?$AAc?$AAr?$AAt?$AA_?$AAs?$AAt?$AAd?$AAi?$AAo?$AA_?$AAo?$AAu?$AAt@ 10136220     libucrtd:output.obj
 0003:00005418       ??_C@_1FG@OBJBDPAC@?$AA?$CI?$AA?$CC?$AAN?$AA?5?$AAl?$AAe?$AAn?$AAg?$AAt?$AAh?$AA?5?$AAm?$AAo?$AAd?$AAi@ 10136418     libucrtd:output.obj
 0003:00005480       ??_C@_1BOA@BMEGDMHF@?$AA_?$AA_?$AAc?$AAr?$AAt?$AA_?$AAs?$AAt?$AAd?$AAi?$AAo?$AA_?$AAo?$AAu?$AAt@ 10136480     libucrtd:output.obj
 0003:000056c0       ??_C@_1EC@GJPNJDCN@?$AA_?$AAl?$AAe?$AAn?$AAg?$AAt?$AAh?$AA?5?$AA?$DN?$AA?$DN?$AA?5?$AAl?$AAe?$AAn?$AAg@ 101366c0     libucrtd:output.obj
 0003:00005710       ??_C@_1DG@CEJKFDMO@?$AAs?$AAt?$AAa?$AAt?$AAe?$AA_?$AAc?$AAa?$AAs?$AAe?$AA_?$AAn?$AAo?$AAr?$AAm@ 10136710     libucrtd:output.obj
 0003:00005750       ??_C@_1BOE@IPKNNOEE@?$AA_?$AA_?$AAc?$AAr?$AAt?$AA_?$AAs?$AAt?$AAd?$AAi?$AAo?$AA_?$AAo?$AAu?$AAt@ 10136750     libucrtd:output.obj
 0003:00005998       ??_C@_1IC@NLEOMCDL@?$AA_?$AAt?$AAy?$AAp?$AAe?$AA_?$AAi?$AAn?$AAd?$AAe?$AAx?$AA?5?$AA?$DO?$AA?$DN?$AA?5@ 10136998     libucrtd:output.obj
 0003:00005a38       ??_C@_1BFK@KNCMELHH@?$AA_?$AA_?$AAc?$AAr?$AAt?$AA_?$AAs?$AAt?$AAd?$AAi?$AAo?$AA_?$AAo?$AAu?$AAt@ 10136a38     libucrtd:output.obj
 0003:00005bd8       ??_C@_1FK@BCPANIEK@?$AA?$CI?$AA?$CC?$AAM?$AAi?$AAs?$AAs?$AAi?$AAn?$AAg?$AA?5?$AAp?$AAo?$AAs?$AAi?$AAt@ 10136bd8     libucrtd:output.obj
 0003:00005c48       ??_C@_1BEI@IHLBHMLJ@?$AA_?$AA_?$AAc?$AAr?$AAt?$AA_?$AAs?$AAt?$AAd?$AAi?$AAo?$AA_?$AAo?$AAu?$AAt@ 10136c48     libucrtd:output.obj
 0003:00005dd8       ??_C@_1BMI@LKDDDFDL@?$AA_?$AA_?$AAc?$AAr?$AAt?$AA_?$AAs?$AAt?$AAd?$AAi?$AAo?$AA_?$AAo?$AAu?$AAt@ 10136dd8     libucrtd:output.obj
 0003:00006000       ??_C@_1BMM@JGEKEBKL@?$AA_?$AA_?$AAc?$AAr?$AAt?$AA_?$AAs?$AAt?$AAd?$AAi?$AAo?$AA_?$AAo?$AAu?$AAt@ 10137000     libucrtd:output.obj
 0003:00006228       ??_C@_1BEO@ODGKIOAL@?$AA_?$AA_?$AAc?$AAr?$AAt?$AA_?$AAs?$AAt?$AAd?$AAi?$AAo?$AA_?$AAo?$AAu?$AAt@ 10137228     libucrtd:output.obj
 0003:000063b8       ??_C@_1BDM@GFCGMNL@?$AA_?$AA_?$AAc?$AAr?$AAt?$AA_?$AAs?$AAt?$AAd?$AAi?$AAo?$AA_?$AAo?$AAu?$AAt@ 101373b8     libucrtd:output.obj
 0003:00006538       ??_C@_1BMI@KBPJOJJI@?$AA_?$AA_?$AAc?$AAr?$AAt?$AA_?$AAs?$AAt?$AAd?$AAi?$AAo?$AA_?$AAo?$AAu?$AAt@ 10137538     libucrtd:output.obj
 0003:00006760       ??_C@_1BMM@PGHHMNDM@?$AA_?$AA_?$AAc?$AAr?$AAt?$AA_?$AAs?$AAt?$AAd?$AAi?$AAo?$AA_?$AAo?$AAu?$AAt@ 10137760     libucrtd:output.obj
 0003:00006988       ??_C@_1CI@DDKMNCPP@?$AA_?$AAc?$AAo?$AAn?$AAt?$AAe?$AAx?$AAt?$AA?5?$AA?$CB?$AA?$DN?$AA?5?$AAn?$AAu?$AAl@ 10137988     libucrtd:output.obj
 0003:000069b8       ??_C@_1HK@IIPGOADH@?$AA_?$AA_?$AAc?$AAr?$AAt?$AA_?$AAs?$AAt?$AAd?$AAi?$AAo?$AA_?$AAo?$AAu?$AAt@ 101379b8     libucrtd:output.obj
 0003:00006a50       ??_C@_1BLA@MEDMHIOH@?$AA_?$AA_?$AAc?$AAr?$AAt?$AA_?$AAs?$AAt?$AAd?$AAi?$AAo?$AA_?$AAo?$AAu?$AAt@ 10137a50     libucrtd:output.obj
 0003:00006c58       ??_C@_1BLE@LCKPBJON@?$AA_?$AA_?$AAc?$AAr?$AAt?$AA_?$AAs?$AAt?$AAd?$AAi?$AAo?$AA_?$AAo?$AAu?$AAt@ 10137c58     libucrtd:output.obj
 0003:00006e68       ??_C@_1HE@IACOMEJF@?$AA_?$AA_?$AAc?$AAr?$AAt?$AA_?$AAs?$AAt?$AAd?$AAi?$AAo?$AA_?$AAo?$AAu?$AAt@ 10137e68     libucrtd:output.obj
 0003:00006ef8       ??_C@_1BOA@CBIEMBEE@?$AA_?$AA_?$AAc?$AAr?$AAt?$AA_?$AAs?$AAt?$AAd?$AAi?$AAo?$AA_?$AAo?$AAu?$AAt@ 10137ef8     libucrtd:output.obj
 0003:00007138       ??_C@_1BOE@NLICFINO@?$AA_?$AA_?$AAc?$AAr?$AAt?$AA_?$AAs?$AAt?$AAd?$AAi?$AAo?$AA_?$AAo?$AAu?$AAt@ 10138138     libucrtd:output.obj
 0003:00007380       ??_C@_1BFK@IOIDDMPJ@?$AA_?$AA_?$AAc?$AAr?$AAt?$AA_?$AAs?$AAt?$AAd?$AAi?$AAo?$AA_?$AAo?$AAu?$AAt@ 10138380     libucrtd:output.obj
 0003:00007520       ??_C@_1BEI@JNJAFAD@?$AA_?$AA_?$AAc?$AAr?$AAt?$AA_?$AAs?$AAt?$AAd?$AAi?$AAo?$AA_?$AAo?$AAu?$AAt@ 10138520     libucrtd:output.obj
 0003:000076b0       ??_C@_1BMI@PKGBOKJK@?$AA_?$AA_?$AAc?$AAr?$AAt?$AA_?$AAs?$AAt?$AAd?$AAi?$AAo?$AA_?$AAo?$AAu?$AAt@ 101386b0     libucrtd:output.obj
 0003:000078d8       ??_C@_1BMM@BLBJDDIA@?$AA_?$AA_?$AAc?$AAr?$AAt?$AA_?$AAs?$AAt?$AAd?$AAi?$AAo?$AA_?$AAo?$AAu?$AAt@ 101388d8     libucrtd:output.obj
 0003:00007b00       ??_C@_1BEO@JEHLMMKB@?$AA_?$AA_?$AAc?$AAr?$AAt?$AA_?$AAs?$AAt?$AAd?$AAi?$AAo?$AA_?$AAo?$AAu?$AAt@ 10138b00     libucrtd:output.obj
 0003:00007c90       ??_C@_1BDM@FDOLKCHK@?$AA_?$AA_?$AAc?$AAr?$AAt?$AA_?$AAs?$AAt?$AAd?$AAi?$AAo?$AA_?$AAo?$AAu?$AAt@ 10138c90     libucrtd:output.obj
 0003:00007e10       ??_C@_1BNK@ONPHCEAM@?$AA_?$AA_?$AAc?$AAr?$AAt?$AA_?$AAs?$AAt?$AAd?$AAi?$AAo?$AA_?$AAo?$AAu?$AAt@ 10138e10     libucrtd:output.obj
 0003:00008048       ??_C@_1BNO@LMMLJOOJ@?$AA_?$AA_?$AAc?$AAr?$AAt?$AA_?$AAs?$AAt?$AAd?$AAi?$AAo?$AA_?$AAo?$AAu?$AAt@ 10139048     libucrtd:output.obj
 0003:00008288       ??_C@_1GC@BNMHNGKM@?$AA_?$AAs?$AAt?$AAa?$AAt?$AAe?$AA?5?$AA?$DN?$AA?$DN?$AA?5?$AAs?$AAt?$AAa?$AAt?$AAe@ 10139288     libucrtd:output.obj
 0003:00008300       ??_C@_1BEC@FNIGNBHI@?$AA_?$AA_?$AAc?$AAr?$AAt?$AA_?$AAs?$AAt?$AAd?$AAi?$AAo?$AA_?$AAo?$AAu?$AAt@ 10139300     libucrtd:output.obj
 0003:00008488       ??_C@_1BMC@DAENMDAD@?$AA_?$AA_?$AAc?$AAr?$AAt?$AA_?$AAs?$AAt?$AAd?$AAi?$AAo?$AA_?$AAo?$AAu?$AAt@ 10139488     libucrtd:output.obj
 0003:000086a8       ??_C@_1BMG@KOENKAMB@?$AA_?$AA_?$AAc?$AAr?$AAt?$AA_?$AAs?$AAt?$AAd?$AAi?$AAo?$AA_?$AAo?$AAu?$AAt@ 101396a8     libucrtd:output.obj
 0003:000088c8       ??_C@_1BDG@PLANJEFE@?$AA_?$AA_?$AAc?$AAr?$AAt?$AA_?$AAs?$AAt?$AAd?$AAi?$AAo?$AA_?$AAo?$AAu?$AAt@ 101398c8     libucrtd:output.obj
 0003:00008a40       ??_C@_1BMI@DNMDMAAN@?$AA_?$AA_?$AAc?$AAr?$AAt?$AA_?$AAs?$AAt?$AAd?$AAi?$AAo?$AA_?$AAo?$AAu?$AAt@ 10139a40     libucrtd:output.obj
 0003:00008c68       ??_C@_1BMM@JHGFKAND@?$AA_?$AA_?$AAc?$AAr?$AAt?$AA_?$AAs?$AAt?$AAd?$AAi?$AAo?$AA_?$AAo?$AAu?$AAt@ 10139c68     libucrtd:output.obj
 0003:00008e90       ??_C@_1CA@ONEGMNAN@?$AA_?$AAs?$AAt?$AAr?$AAe?$AAa?$AAm?$AA?4?$AAv?$AAa?$AAl?$AAi?$AAd?$AA?$CI?$AA?$CJ@ 10139e90     libucrtd:output.obj
 0003:00008eb8       ??_C@_1HK@MPBCDOK@?$AA_?$AA_?$AAc?$AAr?$AAt?$AA_?$AAs?$AAt?$AAd?$AAi?$AAo?$AA_?$AAo?$AAu?$AAt@ 10139eb8     libucrtd:output.obj
 0003:00008f50       ??_C@_1BLA@GJNGKGIK@?$AA_?$AA_?$AAc?$AAr?$AAt?$AA_?$AAs?$AAt?$AAd?$AAi?$AAo?$AA_?$AAo?$AAu?$AAt@ 10139f50     libucrtd:output.obj
 0003:00009158       ??_C@_1BLE@PAACOKDK@?$AA_?$AA_?$AAc?$AAr?$AAt?$AA_?$AAs?$AAt?$AAd?$AAi?$AAo?$AA_?$AAo?$AAu?$AAt@ 1013a158     libucrtd:output.obj
 0003:00009368       ??_C@_1HE@FGKHNBNL@?$AA_?$AA_?$AAc?$AAr?$AAt?$AA_?$AAs?$AAt?$AAd?$AAi?$AAo?$AA_?$AAo?$AAu?$AAt@ 1013a368     libucrtd:output.obj
 0003:000093f8       ??_C@_1EK@PNGFDECN@?$AA?$CI?$AA?$CC?$AA?8?$AAn?$AA?8?$AA?5?$AAf?$AAo?$AAr?$AAm?$AAa?$AAt?$AA?5?$AAs?$AAp@ 1013a3f8     libucrtd:output.obj
 0003:00009450       ??_C@_1BNI@OPBGCNOB@?$AA_?$AA_?$AAc?$AAr?$AAt?$AA_?$AAs?$AAt?$AAd?$AAi?$AAo?$AA_?$AAo?$AAu?$AAt@ 1013a450     libucrtd:output.obj
 0003:00009688       ??_C@_1EO@GHKFGFKL@?$AA?$CI?$AA?$CC?$AAI?$AAn?$AAv?$AAa?$AAl?$AAi?$AAd?$AA?5?$AAi?$AAn?$AAt?$AAe?$AAg@ 1013a688     libucrtd:output.obj
 0003:000096e8       ??_C@_1JC@PMCLKCOC@?$AAp?$AAr?$AAe?$AAc?$AAi?$AAs?$AAi?$AAo?$AAn?$AA_?$AAi?$AAn?$AAd?$AAe?$AAx@ 1013a6e8     libucrtd:output.obj
 0003:00009798       ??_C@_1BAG@GKCGGKOF@?$AA_?$AA_?$AAc?$AAr?$AAt?$AA_?$AAs?$AAt?$AAd?$AAi?$AAo?$AA_?$AAo?$AAu?$AAt@ 1013a798     libucrtd:output.obj
 0003:000098d8       ??_C@_1IC@KGDNLBNC@?$AAw?$AAi?$AAd?$AAt?$AAh?$AA_?$AAi?$AAn?$AAd?$AAe?$AAx?$AA?5?$AA?$DO?$AA?$DN?$AA?5@ 1013a8d8     libucrtd:output.obj
 0003:00009978       ??_C@_1BAK@CDLANFGA@?$AA_?$AA_?$AAc?$AAr?$AAt?$AA_?$AAs?$AAt?$AAd?$AAi?$AAo?$AA_?$AAo?$AAu?$AAt@ 1013a978     libucrtd:output.obj
 0003:00009ab8       ??_C@_1BEC@NDOOKIMC@?$AA_?$AA_?$AAc?$AAr?$AAt?$AA_?$AAs?$AAt?$AAd?$AAi?$AAo?$AA_?$AAo?$AAu?$AAt@ 1013aab8     libucrtd:output.obj
 0003:00009c40       ??_C@_1BMA@CBPCAOAB@?$AA_?$AA_?$AAc?$AAr?$AAt?$AA_?$AAs?$AAt?$AAd?$AAi?$AAo?$AA_?$AAo?$AAu?$AAt@ 1013ac40     libucrtd:output.obj
 0003:00009e60       ??_C@_1PK@KBJLALII@?$AA_?$AA_?$AAc?$AAr?$AAt?$AA_?$AAs?$AAt?$AAd?$AAi?$AAo?$AA_?$AAo?$AAu?$AAt@ 1013ae60     libucrtd:output.obj
 0003:00009f90       ??_C@_1PO@PODEJAGE@?$AA_?$AA_?$AAc?$AAr?$AAt?$AA_?$AAs?$AAt?$AAd?$AAi?$AAo?$AA_?$AAo?$AAu?$AAt@ 1013af90     libucrtd:output.obj
 0003:0000a0c0       ??_C@_1BDG@KOLEFKPF@?$AA_?$AA_?$AAc?$AAr?$AAt?$AA_?$AAs?$AAt?$AAd?$AAi?$AAo?$AA_?$AAo?$AAu?$AAt@ 1013b0c0     libucrtd:output.obj
 0003:0000a238       ??_C@_1BMA@IHIBOLMD@?$AA_?$AA_?$AAc?$AAr?$AAt?$AA_?$AAs?$AAt?$AAd?$AAi?$AAo?$AA_?$AAo?$AAu?$AAt@ 1013b238     libucrtd:output.obj
 0003:0000a458       ??_C@_1BKI@CJEIGDAI@?$AA_?$AA_?$AAc?$AAr?$AAt?$AA_?$AAs?$AAt?$AAd?$AAi?$AAo?$AA_?$AAo?$AAu?$AAt@ 1013b458     libucrtd:output.obj
 0003:0000a658       ??_C@_1BNI@IMOCDBNE@?$AA_?$AA_?$AAc?$AAr?$AAt?$AA_?$AAs?$AAt?$AAd?$AAi?$AAo?$AA_?$AAo?$AAu?$AAt@ 1013b658     libucrtd:output.obj
 0003:0000a890       ??_C@_1BAG@DOFNHDMF@?$AA_?$AA_?$AAc?$AAr?$AAt?$AA_?$AAs?$AAt?$AAd?$AAi?$AAo?$AA_?$AAo?$AAu?$AAt@ 1013b890     libucrtd:output.obj
 0003:0000a9d0       ??_C@_1BAK@DALINHHB@?$AA_?$AA_?$AAc?$AAr?$AAt?$AA_?$AAs?$AAt?$AAd?$AAi?$AAo?$AA_?$AAo?$AAu?$AAt@ 1013b9d0     libucrtd:output.obj
 0003:0000ab10       ??_C@_1BMA@GACGPGHN@?$AA_?$AA_?$AAc?$AAr?$AAt?$AA_?$AAs?$AAt?$AAd?$AAi?$AAo?$AA_?$AAo?$AAu?$AAt@ 1013bb10     libucrtd:output.obj
 0003:0000ad30       ??_C@_1PK@KBJECIEM@?$AA_?$AA_?$AAc?$AAr?$AAt?$AA_?$AAs?$AAt?$AAd?$AAi?$AAo?$AA_?$AAo?$AAu?$AAt@ 1013bd30     libucrtd:output.obj
 0003:0000ae60       ??_C@_1PO@LKIIANED@?$AA_?$AA_?$AAc?$AAr?$AAt?$AA_?$AAs?$AAt?$AAd?$AAi?$AAo?$AA_?$AAo?$AAu?$AAt@ 1013be60     libucrtd:output.obj
 0003:0000af90       ??_C@_1BNC@DONELHFF@?$AA_?$AA_?$AAc?$AAr?$AAt?$AA_?$AAs?$AAt?$AAd?$AAi?$AAo?$AA_?$AAo?$AAu?$AAt@ 1013bf90     libucrtd:output.obj
 0003:0000b1c0       ??_C@_1BLK@BGFMMAPO@?$AA_?$AA_?$AAc?$AAr?$AAt?$AA_?$AAs?$AAt?$AAd?$AAi?$AAo?$AA_?$AAo?$AAu?$AAt@ 1013c1c0     libucrtd:output.obj
 0003:0000b3d8       ??_C@_1BMA@PGOJAHFP@?$AA_?$AA_?$AAc?$AAr?$AAt?$AA_?$AAs?$AAt?$AAd?$AAi?$AAo?$AA_?$AAo?$AAu?$AAt@ 1013c3d8     libucrtd:output.obj
 0003:0000b5f8       ??_C@_1BKI@NDKBCDGP@?$AA_?$AA_?$AAc?$AAr?$AAt?$AA_?$AAs?$AAt?$AAd?$AAi?$AAo?$AA_?$AAo?$AAu?$AAt@ 1013c5f8     libucrtd:output.obj
 0003:0000b7f4       ??_C@_1O@CEDCILHN@?$AA?$CI?$AAn?$AAu?$AAl?$AAl?$AA?$CJ@ 1013c7f4     libucrtd:output.obj
 0003:0000b804       ??_C@_06OJHGLDPL@?$CInull?$CJ@ 1013c804     libucrtd:output.obj
 0003:0000b810       ??_C@_1LO@HECDHMMI@?$AAi?$AAs?$AA_?$AAp?$AAo?$AAs?$AAi?$AAt?$AAi?$AAo?$AAn?$AAa?$AAl?$AA_?$AAp@ 1013c810     libucrtd:output.obj
 0003:0000b8f8       ??_C@_1BCI@OBMMNJKK@?$AA_?$AA_?$AAc?$AAr?$AAt?$AA_?$AAs?$AAt?$AAd?$AAi?$AAo?$AA_?$AAo?$AAu?$AAt@ 1013c8f8     libucrtd:output.obj
 0003:0000ba60       ??_C@_1FE@IAFJEKN@?$AA_?$AAt?$AAy?$AAp?$AAe?$AA_?$AAi?$AAn?$AAd?$AAe?$AAx?$AA?5?$AA?$DO?$AA?$DN?$AA?5@ 1013ca60     libucrtd:output.obj
 0003:0000bac8       ??_C@_1BCC@GJLKCHIG@?$AA_?$AA_?$AAc?$AAr?$AAt?$AA_?$AAs?$AAt?$AAd?$AAi?$AAo?$AA_?$AAo?$AAu?$AAt@ 1013cac8     libucrtd:output.obj
 0003:0000bc24       ??_C@_1CK@LGDCECDH@?$AA_?$AAf?$AAo?$AAr?$AAm?$AAa?$AAt?$AA_?$AAc?$AAh?$AAa?$AAr?$AA?5?$AA?$CB?$AA?$DN@ 1013cc24     libucrtd:output.obj
 0003:0000bc58       ??_C@_1BNI@EDCGAPJB@?$AA_?$AA_?$AAc?$AAr?$AAt?$AA_?$AAs?$AAt?$AAd?$AAi?$AAo?$AA_?$AAo?$AAu?$AAt@ 1013cc58     libucrtd:output.obj
 0003:0000be90       ??_C@_1BBM@CBBAFMPJ@?$AA_?$AA_?$AAc?$AAr?$AAt?$AA_?$AAs?$AAt?$AAd?$AAi?$AAo?$AA_?$AAo?$AAu?$AAt@ 1013ce90     libucrtd:output.obj
 0003:0000bfe8       ??_C@_1BBG@KIHCHFIM@?$AA_?$AA_?$AAc?$AAr?$AAt?$AA_?$AAs?$AAt?$AAd?$AAi?$AAo?$AA_?$AAo?$AAu?$AAt@ 1013cfe8     libucrtd:output.obj
 0003:0000c138       ??_C@_1BMA@FANDDEHK@?$AA_?$AA_?$AAc?$AAr?$AAt?$AA_?$AAs?$AAt?$AAd?$AAi?$AAo?$AA_?$AAo?$AAu?$AAt@ 1013d138     libucrtd:output.obj
 0003:0000c358       ??_C@_1BCI@ILAANKJG@?$AA_?$AA_?$AAc?$AAr?$AAt?$AA_?$AAs?$AAt?$AAd?$AAi?$AAo?$AA_?$AAo?$AAu?$AAt@ 1013d358     libucrtd:output.obj
 0003:0000c4c0       ??_C@_1BCC@PDNLFIHK@?$AA_?$AA_?$AAc?$AAr?$AAt?$AA_?$AAs?$AAt?$AAd?$AAi?$AAo?$AA_?$AAo?$AAu?$AAt@ 1013d4c0     libucrtd:output.obj
 0003:0000c620       ??_C@_1BNI@EJPCEBAG@?$AA_?$AA_?$AAc?$AAr?$AAt?$AA_?$AAs?$AAt?$AAd?$AAi?$AAo?$AA_?$AAo?$AAu?$AAt@ 1013d620     libucrtd:output.obj
 0003:0000c858       ??_C@_1BBM@LLHBCDAF@?$AA_?$AA_?$AAc?$AAr?$AAt?$AA_?$AAs?$AAt?$AAd?$AAi?$AAo?$AA_?$AAo?$AAu?$AAt@ 1013d858     libucrtd:output.obj
 0003:0000c9b0       ??_C@_1BBG@JLLDGFML@?$AA_?$AA_?$AAc?$AAr?$AAt?$AA_?$AAs?$AAt?$AAd?$AAi?$AAo?$AA_?$AAo?$AAu?$AAt@ 1013d9b0     libucrtd:output.obj
 0003:0000cb00       ??_C@_1BNC@BAMNIOCM@?$AA_?$AA_?$AAc?$AAr?$AAt?$AA_?$AAs?$AAt?$AAd?$AAi?$AAo?$AA_?$AAo?$AAu?$AAt@ 1013db00     libucrtd:output.obj
 0003:0000cd30       ??_C@_1BMA@MEBEEDJE@?$AA_?$AA_?$AAc?$AAr?$AAt?$AA_?$AAs?$AAt?$AAd?$AAi?$AAo?$AA_?$AAo?$AAu?$AAt@ 1013dd30     libucrtd:output.obj
 0003:0000cf50       ??_C@_1BCA@HCPCJFGA@?$AA_?$AA_?$AAc?$AAr?$AAt?$AA_?$AAs?$AAt?$AAd?$AAi?$AAo?$AA_?$AAo?$AAu?$AAt@ 1013df50     libucrtd:output.obj
 0003:0000d0b0       ??_C@_1BOE@LIBLDKPN@?$AA_?$AA_?$AAc?$AAr?$AAt?$AA_?$AAs?$AAt?$AAd?$AAi?$AAo?$AA_?$AAo?$AAu?$AAt@ 1013e0b0     libucrtd:output.obj
 0003:0000d2f4       ??_C@_0DI@KIFBHMNO@minkernel?2crts?2ucrt?2inc?2corecrt@ 1013e2f4     libucrtd:output.obj
 0003:0000d338       ??_C@_1BBE@IBPNPIIM@?$AA_?$AA_?$AAc?$AAr?$AAt?$AA_?$AAs?$AAt?$AAd?$AAi?$AAo?$AA_?$AAo?$AAu?$AAt@ 1013e338     libucrtd:output.obj
 0003:0000d488       ??_C@_1BMM@KBPMKFBC@?$AA_?$AA_?$AAc?$AAr?$AAt?$AA_?$AAs?$AAt?$AAd?$AAi?$AAo?$AA_?$AAo?$AAu?$AAt@ 1013e488     libucrtd:output.obj
 0003:0000d6b0       ??_C@_1BMM@MBMBCJIF@?$AA_?$AA_?$AAc?$AAr?$AAt?$AA_?$AAs?$AAt?$AAd?$AAi?$AAo?$AA_?$AAo?$AAu?$AAt@ 1013e6b0     libucrtd:output.obj
 0003:0000d8d8       ??_C@_1BLE@IFBJPNFE@?$AA_?$AA_?$AAc?$AAr?$AAt?$AA_?$AAs?$AAt?$AAd?$AAi?$AAo?$AA_?$AAo?$AAu?$AAt@ 1013e8d8     libucrtd:output.obj
 0003:0000dae8       ??_C@_1BCA@FCGNBIN@?$AA_?$AA_?$AAc?$AAr?$AAt?$AA_?$AAs?$AAt?$AAd?$AAi?$AAo?$AA_?$AAo?$AAu?$AAt@ 1013eae8     libucrtd:output.obj
 0003:0000dc48       ??_C@_1BOE@OMDELMGH@?$AA_?$AA_?$AAc?$AAr?$AAt?$AA_?$AAs?$AAt?$AAd?$AAi?$AAo?$AA_?$AAo?$AAu?$AAt@ 1013ec48     libucrtd:output.obj
 0003:0000de90       ??_C@_1BBE@FLKADCDA@?$AA_?$AA_?$AAc?$AAr?$AAt?$AA_?$AAs?$AAt?$AAd?$AAi?$AAo?$AA_?$AAo?$AAu?$AAt@ 1013ee90     libucrtd:output.obj
 0003:0000dfe0       ??_C@_1BMM@CMKPNHDJ@?$AA_?$AA_?$AAc?$AAr?$AAt?$AA_?$AAs?$AAt?$AAd?$AAi?$AAo?$AA_?$AAo?$AAu?$AAt@ 1013efe0     libucrtd:output.obj
 0003:0000e208       ??_C@_1BNO@ILHNHKFA@?$AA_?$AA_?$AAc?$AAr?$AAt?$AA_?$AAs?$AAt?$AAd?$AAi?$AAo?$AA_?$AAo?$AAu?$AAt@ 1013f208     libucrtd:output.obj
 0003:0000e448       ??_C@_1BMG@JJPLEEHI@?$AA_?$AA_?$AAc?$AAr?$AAt?$AA_?$AAs?$AAt?$AAd?$AAi?$AAo?$AA_?$AAo?$AAu?$AAt@ 1013f448     libucrtd:output.obj
 0003:0000e668       ??_C@_1BMM@KANDEEGK@?$AA_?$AA_?$AAc?$AAr?$AAt?$AA_?$AAs?$AAt?$AAd?$AAi?$AAo?$AA_?$AAo?$AAu?$AAt@ 1013f668     libucrtd:output.obj
 0003:0000e890       ??_C@_1BLE@MHLEAOID@?$AA_?$AA_?$AAc?$AAr?$AAt?$AA_?$AAs?$AAt?$AAd?$AAi?$AAo?$AA_?$AAo?$AAu?$AAt@ 1013f890     libucrtd:output.obj
 0003:0000eaa0       ??_C@_1BMK@JGIBNIA@?$AA_?$AA_?$AAc?$AAr?$AAt?$AA_?$AAs?$AAt?$AAd?$AAi?$AAo?$AA_?$AAo?$AAu?$AAt@ 1013faa0     libucrtd:output.obj
 0003:0000ecc8       ??_C@_1BLC@INKIGOCN@?$AA_?$AA_?$AAc?$AAr?$AAt?$AA_?$AAs?$AAt?$AAd?$AAi?$AAo?$AA_?$AAo?$AAu?$AAt@ 1013fcc8     libucrtd:output.obj
 0003:0000eed0       ??_C@_1BNK@KHNJGCCP@?$AA_?$AA_?$AAc?$AAr?$AAt?$AA_?$AAs?$AAt?$AAd?$AAi?$AAo?$AA_?$AAo?$AAu?$AAt@ 1013fed0     libucrtd:output.obj
 0003:0000f108       ??_C@_1BNO@OHFFMOOJ@?$AA_?$AA_?$AAc?$AAr?$AAt?$AA_?$AAs?$AAt?$AAd?$AAi?$AAo?$AA_?$AAo?$AAu?$AAt@ 10140108     libucrtd:output.obj
 0003:0000f348       ??_C@_1BMC@FAGJFBLI@?$AA_?$AA_?$AAc?$AAr?$AAt?$AA_?$AAs?$AAt?$AAd?$AAi?$AAo?$AA_?$AAo?$AAu?$AAt@ 10140348     libucrtd:output.obj
 0003:0000f568       ??_C@_1BMG@CGPDIFDK@?$AA_?$AA_?$AAc?$AAr?$AAt?$AA_?$AAs?$AAt?$AAd?$AAi?$AAo?$AA_?$AAo?$AAu?$AAt@ 10140568     libucrtd:output.obj
